Archive member included to satisfy reference by file (symbol)

/usr/lib/gcc/arm-none-eabi/9.2.1/thumb/v7e-m+fp/softfp/libgcc.a(_aeabi_uldivmod.o)
                              build/tsb0//home/karl/SimplicityStudio_v5/developer/sdks/gecko_sdk_suite/v3.2/platform/emlib/src/em_usart.o (__aeabi_uldivmod)
/usr/lib/gcc/arm-none-eabi/9.2.1/thumb/v7e-m+fp/softfp/libgcc.a(_udivmoddi4.o)
                              /usr/lib/gcc/arm-none-eabi/9.2.1/thumb/v7e-m+fp/softfp/libgcc.a(_aeabi_uldivmod.o) (__udivmoddi4)
/usr/lib/gcc/arm-none-eabi/9.2.1/thumb/v7e-m+fp/softfp/libgcc.a(_dvmd_tls.o)
                              /usr/lib/gcc/arm-none-eabi/9.2.1/thumb/v7e-m+fp/softfp/libgcc.a(_aeabi_uldivmod.o) (__aeabi_ldiv0)
/usr/lib/gcc/arm-none-eabi/9.2.1/../../../arm-none-eabi/lib/thumb/v7e-m+fp/softfp/libg.a(lib_a-fflush.o)
                              build/tsb0/blink_pwm_main.o (fflush)
/usr/lib/gcc/arm-none-eabi/9.2.1/../../../arm-none-eabi/lib/thumb/v7e-m+fp/softfp/libg.a(lib_a-findfp.o)
                              /usr/lib/gcc/arm-none-eabi/9.2.1/../../../arm-none-eabi/lib/thumb/v7e-m+fp/softfp/libg.a(lib_a-fflush.o) (__sinit)
/usr/lib/gcc/arm-none-eabi/9.2.1/../../../arm-none-eabi/lib/thumb/v7e-m+fp/softfp/libg.a(lib_a-freer.o)
                              /usr/lib/gcc/arm-none-eabi/9.2.1/../../../arm-none-eabi/lib/thumb/v7e-m+fp/softfp/libg.a(lib_a-fflush.o) (_free_r)
/usr/lib/gcc/arm-none-eabi/9.2.1/../../../arm-none-eabi/lib/thumb/v7e-m+fp/softfp/libg.a(lib_a-fwalk.o)
                              /usr/lib/gcc/arm-none-eabi/9.2.1/../../../arm-none-eabi/lib/thumb/v7e-m+fp/softfp/libg.a(lib_a-findfp.o) (_fwalk)
/usr/lib/gcc/arm-none-eabi/9.2.1/../../../arm-none-eabi/lib/thumb/v7e-m+fp/softfp/libg.a(lib_a-fwrite.o)
                              build/tsb0/blink_pwm_main.o (fwrite)
/usr/lib/gcc/arm-none-eabi/9.2.1/../../../arm-none-eabi/lib/thumb/v7e-m+fp/softfp/libg.a(lib_a-impure.o)
                              /usr/lib/gcc/arm-none-eabi/9.2.1/../../../arm-none-eabi/lib/thumb/v7e-m+fp/softfp/libg.a(lib_a-fflush.o) (_global_impure_ptr)
/usr/lib/gcc/arm-none-eabi/9.2.1/../../../arm-none-eabi/lib/thumb/v7e-m+fp/softfp/libg.a(lib_a-mallocr.o)
                              /usr/lib/gcc/arm-none-eabi/9.2.1/../../../arm-none-eabi/lib/thumb/v7e-m+fp/softfp/libg.a(lib_a-findfp.o) (_malloc_r)
/usr/lib/gcc/arm-none-eabi/9.2.1/../../../arm-none-eabi/lib/thumb/v7e-m+fp/softfp/libg.a(lib_a-memcpy.o)
                              build/tsb0//home/karl/node-apps/zoo/FreeRTOS-Kernel/queue.o (memcpy)
/usr/lib/gcc/arm-none-eabi/9.2.1/../../../arm-none-eabi/lib/thumb/v7e-m+fp/softfp/libg.a(lib_a-memset.o)
                              build/tsb0/blink_pwm_main.o (memset)
/usr/lib/gcc/arm-none-eabi/9.2.1/../../../arm-none-eabi/lib/thumb/v7e-m+fp/softfp/libg.a(lib_a-mlock.o)
                              /usr/lib/gcc/arm-none-eabi/9.2.1/../../../arm-none-eabi/lib/thumb/v7e-m+fp/softfp/libg.a(lib_a-freer.o) (__malloc_lock)
/usr/lib/gcc/arm-none-eabi/9.2.1/../../../arm-none-eabi/lib/thumb/v7e-m+fp/softfp/libg.a(lib_a-sbrkr.o)
                              /usr/lib/gcc/arm-none-eabi/9.2.1/../../../arm-none-eabi/lib/thumb/v7e-m+fp/softfp/libg.a(lib_a-freer.o) (_sbrk_r)
/usr/lib/gcc/arm-none-eabi/9.2.1/../../../arm-none-eabi/lib/thumb/v7e-m+fp/softfp/libg.a(lib_a-setvbuf.o)
                              build/tsb0//home/karl/SimplicityStudio_v5/developer/sdks/gecko_sdk_suite/v3.2/hardware/kit/common/drivers/retargetserial.o (setvbuf)
/usr/lib/gcc/arm-none-eabi/9.2.1/../../../arm-none-eabi/lib/thumb/v7e-m+fp/softfp/libg.a(lib_a-snprintf.o)
                              build/tsb0//home/karl/node-apps/zoo/thinnect.lll/logging/loggers_ext.o (snprintf)
/usr/lib/gcc/arm-none-eabi/9.2.1/../../../arm-none-eabi/lib/thumb/v7e-m+fp/softfp/libg.a(lib_a-stdio.o)
                              /usr/lib/gcc/arm-none-eabi/9.2.1/../../../arm-none-eabi/lib/thumb/v7e-m+fp/softfp/libg.a(lib_a-findfp.o) (__sread)
/usr/lib/gcc/arm-none-eabi/9.2.1/../../../arm-none-eabi/lib/thumb/v7e-m+fp/softfp/libg.a(lib_a-svfprintf.o)
                              /usr/lib/gcc/arm-none-eabi/9.2.1/../../../arm-none-eabi/lib/thumb/v7e-m+fp/softfp/libg.a(lib_a-snprintf.o) (_svfprintf_r)
/usr/lib/gcc/arm-none-eabi/9.2.1/../../../arm-none-eabi/lib/thumb/v7e-m+fp/softfp/libg.a(lib_a-vsnprintf.o)
                              build/tsb0//home/karl/node-apps/zoo/thinnect.lll/logging/loggers_ext.o (vsnprintf)
/usr/lib/gcc/arm-none-eabi/9.2.1/../../../arm-none-eabi/lib/thumb/v7e-m+fp/softfp/libg.a(lib_a-writer.o)
                              /usr/lib/gcc/arm-none-eabi/9.2.1/../../../arm-none-eabi/lib/thumb/v7e-m+fp/softfp/libg.a(lib_a-stdio.o) (_write_r)
/usr/lib/gcc/arm-none-eabi/9.2.1/../../../arm-none-eabi/lib/thumb/v7e-m+fp/softfp/libg.a(lib_a-closer.o)
                              /usr/lib/gcc/arm-none-eabi/9.2.1/../../../arm-none-eabi/lib/thumb/v7e-m+fp/softfp/libg.a(lib_a-stdio.o) (_close_r)
/usr/lib/gcc/arm-none-eabi/9.2.1/../../../arm-none-eabi/lib/thumb/v7e-m+fp/softfp/libg.a(lib_a-dtoa.o)
                              /usr/lib/gcc/arm-none-eabi/9.2.1/../../../arm-none-eabi/lib/thumb/v7e-m+fp/softfp/libg.a(lib_a-svfprintf.o) (_dtoa_r)
/usr/lib/gcc/arm-none-eabi/9.2.1/../../../arm-none-eabi/lib/thumb/v7e-m+fp/softfp/libg.a(lib_a-fclose.o)
                              /usr/lib/gcc/arm-none-eabi/9.2.1/../../../arm-none-eabi/lib/thumb/v7e-m+fp/softfp/libg.a(lib_a-findfp.o) (_fclose_r)
/usr/lib/gcc/arm-none-eabi/9.2.1/../../../arm-none-eabi/lib/thumb/v7e-m+fp/softfp/libg.a(lib_a-fvwrite.o)
                              /usr/lib/gcc/arm-none-eabi/9.2.1/../../../arm-none-eabi/lib/thumb/v7e-m+fp/softfp/libg.a(lib_a-fwrite.o) (__sfvwrite_r)
/usr/lib/gcc/arm-none-eabi/9.2.1/../../../arm-none-eabi/lib/thumb/v7e-m+fp/softfp/libg.a(lib_a-localeconv.o)
                              /usr/lib/gcc/arm-none-eabi/9.2.1/../../../arm-none-eabi/lib/thumb/v7e-m+fp/softfp/libg.a(lib_a-svfprintf.o) (_localeconv_r)
/usr/lib/gcc/arm-none-eabi/9.2.1/../../../arm-none-eabi/lib/thumb/v7e-m+fp/softfp/libg.a(lib_a-lseekr.o)
                              /usr/lib/gcc/arm-none-eabi/9.2.1/../../../arm-none-eabi/lib/thumb/v7e-m+fp/softfp/libg.a(lib_a-stdio.o) (_lseek_r)
/usr/lib/gcc/arm-none-eabi/9.2.1/../../../arm-none-eabi/lib/thumb/v7e-m+fp/softfp/libg.a(lib_a-makebuf.o)
                              /usr/lib/gcc/arm-none-eabi/9.2.1/../../../arm-none-eabi/lib/thumb/v7e-m+fp/softfp/libg.a(lib_a-setvbuf.o) (__swhatbuf_r)
/usr/lib/gcc/arm-none-eabi/9.2.1/../../../arm-none-eabi/lib/thumb/v7e-m+fp/softfp/libg.a(lib_a-malloc.o)
                              /usr/lib/gcc/arm-none-eabi/9.2.1/../../../arm-none-eabi/lib/thumb/v7e-m+fp/softfp/libg.a(lib_a-setvbuf.o) (malloc)
/usr/lib/gcc/arm-none-eabi/9.2.1/../../../arm-none-eabi/lib/thumb/v7e-m+fp/softfp/libg.a(lib_a-memchr.o)
                              /usr/lib/gcc/arm-none-eabi/9.2.1/../../../arm-none-eabi/lib/thumb/v7e-m+fp/softfp/libg.a(lib_a-svfprintf.o) (memchr)
/usr/lib/gcc/arm-none-eabi/9.2.1/../../../arm-none-eabi/lib/thumb/v7e-m+fp/softfp/libg.a(lib_a-memmove.o)
                              /usr/lib/gcc/arm-none-eabi/9.2.1/../../../arm-none-eabi/lib/thumb/v7e-m+fp/softfp/libg.a(lib_a-fvwrite.o) (memmove)
/usr/lib/gcc/arm-none-eabi/9.2.1/../../../arm-none-eabi/lib/thumb/v7e-m+fp/softfp/libg.a(lib_a-mprec.o)
                              /usr/lib/gcc/arm-none-eabi/9.2.1/../../../arm-none-eabi/lib/thumb/v7e-m+fp/softfp/libg.a(lib_a-dtoa.o) (_Balloc)
/usr/lib/gcc/arm-none-eabi/9.2.1/../../../arm-none-eabi/lib/thumb/v7e-m+fp/softfp/libg.a(lib_a-readr.o)
                              /usr/lib/gcc/arm-none-eabi/9.2.1/../../../arm-none-eabi/lib/thumb/v7e-m+fp/softfp/libg.a(lib_a-stdio.o) (_read_r)
/usr/lib/gcc/arm-none-eabi/9.2.1/../../../arm-none-eabi/lib/thumb/v7e-m+fp/softfp/libg.a(lib_a-reallocr.o)
                              /usr/lib/gcc/arm-none-eabi/9.2.1/../../../arm-none-eabi/lib/thumb/v7e-m+fp/softfp/libg.a(lib_a-fvwrite.o) (_realloc_r)
/usr/lib/gcc/arm-none-eabi/9.2.1/../../../arm-none-eabi/lib/thumb/v7e-m+fp/softfp/libg.a(lib_a-reent.o)
                              /usr/lib/gcc/arm-none-eabi/9.2.1/../../../arm-none-eabi/lib/thumb/v7e-m+fp/softfp/libg.a(lib_a-sbrkr.o) (errno)
/usr/lib/gcc/arm-none-eabi/9.2.1/../../../arm-none-eabi/lib/thumb/v7e-m+fp/softfp/libg.a(lib_a-strlen.o)
                              /usr/lib/gcc/arm-none-eabi/9.2.1/../../../arm-none-eabi/lib/thumb/v7e-m+fp/softfp/libg.a(lib_a-svfprintf.o) (strlen)
/usr/lib/gcc/arm-none-eabi/9.2.1/../../../arm-none-eabi/lib/thumb/v7e-m+fp/softfp/libg.a(lib_a-svfiprintf.o)
                              /usr/lib/gcc/arm-none-eabi/9.2.1/../../../arm-none-eabi/lib/thumb/v7e-m+fp/softfp/libg.a(lib_a-svfprintf.o) (__ssprint_r)
/usr/lib/gcc/arm-none-eabi/9.2.1/../../../arm-none-eabi/lib/thumb/v7e-m+fp/softfp/libg.a(lib_a-wsetup.o)
                              /usr/lib/gcc/arm-none-eabi/9.2.1/../../../arm-none-eabi/lib/thumb/v7e-m+fp/softfp/libg.a(lib_a-fvwrite.o) (__swsetup_r)
/usr/lib/gcc/arm-none-eabi/9.2.1/../../../arm-none-eabi/lib/thumb/v7e-m+fp/softfp/libg.a(lib_a-assert.o)
                              /usr/lib/gcc/arm-none-eabi/9.2.1/../../../arm-none-eabi/lib/thumb/v7e-m+fp/softfp/libg.a(lib_a-dtoa.o) (__assert_func)
/usr/lib/gcc/arm-none-eabi/9.2.1/../../../arm-none-eabi/lib/thumb/v7e-m+fp/softfp/libg.a(lib_a-callocr.o)
                              /usr/lib/gcc/arm-none-eabi/9.2.1/../../../arm-none-eabi/lib/thumb/v7e-m+fp/softfp/libg.a(lib_a-mprec.o) (_calloc_r)
/usr/lib/gcc/arm-none-eabi/9.2.1/../../../arm-none-eabi/lib/thumb/v7e-m+fp/softfp/libg.a(lib_a-fiprintf.o)
                              /usr/lib/gcc/arm-none-eabi/9.2.1/../../../arm-none-eabi/lib/thumb/v7e-m+fp/softfp/libg.a(lib_a-assert.o) (fiprintf)
/usr/lib/gcc/arm-none-eabi/9.2.1/../../../arm-none-eabi/lib/thumb/v7e-m+fp/softfp/libg.a(lib_a-fstatr.o)
                              /usr/lib/gcc/arm-none-eabi/9.2.1/../../../arm-none-eabi/lib/thumb/v7e-m+fp/softfp/libg.a(lib_a-makebuf.o) (_fstat_r)
/usr/lib/gcc/arm-none-eabi/9.2.1/../../../arm-none-eabi/lib/thumb/v7e-m+fp/softfp/libg.a(lib_a-isattyr.o)
                              /usr/lib/gcc/arm-none-eabi/9.2.1/../../../arm-none-eabi/lib/thumb/v7e-m+fp/softfp/libg.a(lib_a-makebuf.o) (_isatty_r)
/usr/lib/gcc/arm-none-eabi/9.2.1/../../../arm-none-eabi/lib/thumb/v7e-m+fp/softfp/libg.a(lib_a-locale.o)
                              /usr/lib/gcc/arm-none-eabi/9.2.1/../../../arm-none-eabi/lib/thumb/v7e-m+fp/softfp/libg.a(lib_a-localeconv.o) (__global_locale)
/usr/lib/gcc/arm-none-eabi/9.2.1/../../../arm-none-eabi/lib/thumb/v7e-m+fp/softfp/libg.a(lib_a-mbtowc_r.o)
                              /usr/lib/gcc/arm-none-eabi/9.2.1/../../../arm-none-eabi/lib/thumb/v7e-m+fp/softfp/libg.a(lib_a-locale.o) (__ascii_mbtowc)
/usr/lib/gcc/arm-none-eabi/9.2.1/../../../arm-none-eabi/lib/thumb/v7e-m+fp/softfp/libg.a(lib_a-strcmp.o)
                              /usr/lib/gcc/arm-none-eabi/9.2.1/../../../arm-none-eabi/lib/thumb/v7e-m+fp/softfp/libg.a(lib_a-locale.o) (strcmp)
/usr/lib/gcc/arm-none-eabi/9.2.1/../../../arm-none-eabi/lib/thumb/v7e-m+fp/softfp/libg.a(lib_a-vfiprintf.o)
                              /usr/lib/gcc/arm-none-eabi/9.2.1/../../../arm-none-eabi/lib/thumb/v7e-m+fp/softfp/libg.a(lib_a-fiprintf.o) (_vfiprintf_r)
/usr/lib/gcc/arm-none-eabi/9.2.1/../../../arm-none-eabi/lib/thumb/v7e-m+fp/softfp/libg.a(lib_a-wctomb_r.o)
                              /usr/lib/gcc/arm-none-eabi/9.2.1/../../../arm-none-eabi/lib/thumb/v7e-m+fp/softfp/libg.a(lib_a-locale.o) (__ascii_wctomb)
/usr/lib/gcc/arm-none-eabi/9.2.1/../../../arm-none-eabi/lib/thumb/v7e-m+fp/softfp/libg.a(lib_a-abort.o)
                              /usr/lib/gcc/arm-none-eabi/9.2.1/../../../arm-none-eabi/lib/thumb/v7e-m+fp/softfp/libg.a(lib_a-assert.o) (abort)
/usr/lib/gcc/arm-none-eabi/9.2.1/../../../arm-none-eabi/lib/thumb/v7e-m+fp/softfp/libg.a(lib_a-ctype_.o)
                              /usr/lib/gcc/arm-none-eabi/9.2.1/../../../arm-none-eabi/lib/thumb/v7e-m+fp/softfp/libg.a(lib_a-locale.o) (_ctype_)
/usr/lib/gcc/arm-none-eabi/9.2.1/../../../arm-none-eabi/lib/thumb/v7e-m+fp/softfp/libg.a(lib_a-fputwc.o)
                              /usr/lib/gcc/arm-none-eabi/9.2.1/../../../arm-none-eabi/lib/thumb/v7e-m+fp/softfp/libg.a(lib_a-vfiprintf.o) (_fputwc_r)
/usr/lib/gcc/arm-none-eabi/9.2.1/../../../arm-none-eabi/lib/thumb/v7e-m+fp/softfp/libg.a(lib_a-signal.o)
                              /usr/lib/gcc/arm-none-eabi/9.2.1/../../../arm-none-eabi/lib/thumb/v7e-m+fp/softfp/libg.a(lib_a-abort.o) (raise)
/usr/lib/gcc/arm-none-eabi/9.2.1/../../../arm-none-eabi/lib/thumb/v7e-m+fp/softfp/libg.a(lib_a-signalr.o)
                              /usr/lib/gcc/arm-none-eabi/9.2.1/../../../arm-none-eabi/lib/thumb/v7e-m+fp/softfp/libg.a(lib_a-signal.o) (_kill_r)
/usr/lib/gcc/arm-none-eabi/9.2.1/../../../arm-none-eabi/lib/thumb/v7e-m+fp/softfp/libg.a(lib_a-wbuf.o)
                              /usr/lib/gcc/arm-none-eabi/9.2.1/../../../arm-none-eabi/lib/thumb/v7e-m+fp/softfp/libg.a(lib_a-fputwc.o) (__swbuf_r)
/usr/lib/gcc/arm-none-eabi/9.2.1/../../../arm-none-eabi/lib/thumb/v7e-m+fp/softfp/libg.a(lib_a-wcrtomb.o)
                              /usr/lib/gcc/arm-none-eabi/9.2.1/../../../arm-none-eabi/lib/thumb/v7e-m+fp/softfp/libg.a(lib_a-fputwc.o) (_wcrtomb_r)
/usr/lib/gcc/arm-none-eabi/9.2.1/thumb/v7e-m+fp/softfp/libgcc.a(_arm_muldf3.o)
                              /usr/lib/gcc/arm-none-eabi/9.2.1/../../../arm-none-eabi/lib/thumb/v7e-m+fp/softfp/libg.a(lib_a-dtoa.o) (__aeabi_dmul)
/usr/lib/gcc/arm-none-eabi/9.2.1/thumb/v7e-m+fp/softfp/libgcc.a(_arm_addsubdf3.o)
                              /usr/lib/gcc/arm-none-eabi/9.2.1/../../../arm-none-eabi/lib/thumb/v7e-m+fp/softfp/libg.a(lib_a-dtoa.o) (__aeabi_dsub)
/usr/lib/gcc/arm-none-eabi/9.2.1/thumb/v7e-m+fp/softfp/libgcc.a(_arm_muldivdf3.o)
                              /usr/lib/gcc/arm-none-eabi/9.2.1/../../../arm-none-eabi/lib/thumb/v7e-m+fp/softfp/libg.a(lib_a-dtoa.o) (__aeabi_ddiv)
/usr/lib/gcc/arm-none-eabi/9.2.1/thumb/v7e-m+fp/softfp/libgcc.a(_arm_cmpdf2.o)
                              /usr/lib/gcc/arm-none-eabi/9.2.1/../../../arm-none-eabi/lib/thumb/v7e-m+fp/softfp/libg.a(lib_a-svfprintf.o) (__aeabi_dcmpeq)
/usr/lib/gcc/arm-none-eabi/9.2.1/thumb/v7e-m+fp/softfp/libgcc.a(_arm_unorddf2.o)
                              /usr/lib/gcc/arm-none-eabi/9.2.1/../../../arm-none-eabi/lib/thumb/v7e-m+fp/softfp/libg.a(lib_a-svfprintf.o) (__aeabi_dcmpun)
/usr/lib/gcc/arm-none-eabi/9.2.1/thumb/v7e-m+fp/softfp/libgcc.a(_arm_fixdfsi.o)
                              /usr/lib/gcc/arm-none-eabi/9.2.1/../../../arm-none-eabi/lib/thumb/v7e-m+fp/softfp/libg.a(lib_a-dtoa.o) (__aeabi_d2iz)
/usr/lib/gcc/arm-none-eabi/9.2.1/../../../arm-none-eabi/lib/thumb/v7e-m+fp/softfp/libnosys.a(sbrk.o)
                              /usr/lib/gcc/arm-none-eabi/9.2.1/../../../arm-none-eabi/lib/thumb/v7e-m+fp/softfp/libg.a(lib_a-sbrkr.o) (_sbrk)

Allocating common symbols
Common symbol       size              file

errno               0x4               /usr/lib/gcc/arm-none-eabi/9.2.1/../../../arm-none-eabi/lib/thumb/v7e-m+fp/softfp/libg.a(lib_a-reent.o)

Discarded input sections

 .text          0x0000000000000000        0x0 build/tsb0/blink_pwm_main.o
 .data          0x0000000000000000        0x0 build/tsb0/blink_pwm_main.o
 .bss           0x0000000000000000        0x0 build/tsb0/blink_pwm_main.o
 .text          0x0000000000000000        0x0 build/tsb0/timer_handler.o
 .data          0x0000000000000000        0x0 build/tsb0/timer_handler.o
 .bss           0x0000000000000000        0x0 build/tsb0/timer_handler.o
 .text          0x0000000000000000        0x0 build/tsb0//home/karl/node-apps/zoo/FreeRTOS-Kernel/portable/GCC/ARM_CM4F/port.o
 .data          0x0000000000000000        0x0 build/tsb0//home/karl/node-apps/zoo/FreeRTOS-Kernel/portable/GCC/ARM_CM4F/port.o
 .bss           0x0000000000000000        0x0 build/tsb0//home/karl/node-apps/zoo/FreeRTOS-Kernel/portable/GCC/ARM_CM4F/port.o
 .rodata.pcInterruptPriorityRegisters
                0x0000000000000000        0x4 build/tsb0//home/karl/node-apps/zoo/FreeRTOS-Kernel/portable/GCC/ARM_CM4F/port.o
 .text.vPortEndScheduler
                0x0000000000000000       0x20 build/tsb0//home/karl/node-apps/zoo/FreeRTOS-Kernel/portable/GCC/ARM_CM4F/port.o
 .text          0x0000000000000000        0x0 build/tsb0//home/karl/node-apps/zoo/FreeRTOS-Kernel/portable/MemMang/heap_5.o
 .data          0x0000000000000000        0x0 build/tsb0//home/karl/node-apps/zoo/FreeRTOS-Kernel/portable/MemMang/heap_5.o
 .bss           0x0000000000000000        0x0 build/tsb0//home/karl/node-apps/zoo/FreeRTOS-Kernel/portable/MemMang/heap_5.o
 .rodata.xHeapStructSize
                0x0000000000000000        0x4 build/tsb0//home/karl/node-apps/zoo/FreeRTOS-Kernel/portable/MemMang/heap_5.o
 .text.xPortGetFreeHeapSize
                0x0000000000000000       0x18 build/tsb0//home/karl/node-apps/zoo/FreeRTOS-Kernel/portable/MemMang/heap_5.o
 .text.xPortGetMinimumEverFreeHeapSize
                0x0000000000000000       0x18 build/tsb0//home/karl/node-apps/zoo/FreeRTOS-Kernel/portable/MemMang/heap_5.o
 .text.vPortGetHeapStats
                0x0000000000000000       0xc4 build/tsb0//home/karl/node-apps/zoo/FreeRTOS-Kernel/portable/MemMang/heap_5.o
 .text          0x0000000000000000        0x0 build/tsb0//home/karl/node-apps/zoo/FreeRTOS-Kernel/queue.o
 .data          0x0000000000000000        0x0 build/tsb0//home/karl/node-apps/zoo/FreeRTOS-Kernel/queue.o
 .bss           0x0000000000000000        0x0 build/tsb0//home/karl/node-apps/zoo/FreeRTOS-Kernel/queue.o
 .text.xQueueGetMutexHolder
                0x0000000000000000       0x32 build/tsb0//home/karl/node-apps/zoo/FreeRTOS-Kernel/queue.o
 .text.xQueueGetMutexHolderFromISR
                0x0000000000000000       0x34 build/tsb0//home/karl/node-apps/zoo/FreeRTOS-Kernel/queue.o
 .text.xQueueCreateCountingSemaphoreStatic
                0x0000000000000000       0x4a build/tsb0//home/karl/node-apps/zoo/FreeRTOS-Kernel/queue.o
 .text.xQueueCreateCountingSemaphore
                0x0000000000000000       0x42 build/tsb0//home/karl/node-apps/zoo/FreeRTOS-Kernel/queue.o
 .text.xQueueGiveFromISR
                0x0000000000000000       0xe0 build/tsb0//home/karl/node-apps/zoo/FreeRTOS-Kernel/queue.o
 .text.xQueuePeek
                0x0000000000000000      0x18c build/tsb0//home/karl/node-apps/zoo/FreeRTOS-Kernel/queue.o
 .text.xQueueReceiveFromISR
                0x0000000000000000       0xd8 build/tsb0//home/karl/node-apps/zoo/FreeRTOS-Kernel/queue.o
 .text.xQueuePeekFromISR
                0x0000000000000000       0x9c build/tsb0//home/karl/node-apps/zoo/FreeRTOS-Kernel/queue.o
 .text.uxQueueMessagesWaiting
                0x0000000000000000       0x2a build/tsb0//home/karl/node-apps/zoo/FreeRTOS-Kernel/queue.o
 .text.uxQueueSpacesAvailable
                0x0000000000000000       0x34 build/tsb0//home/karl/node-apps/zoo/FreeRTOS-Kernel/queue.o
 .text.uxQueueMessagesWaitingFromISR
                0x0000000000000000       0x2a build/tsb0//home/karl/node-apps/zoo/FreeRTOS-Kernel/queue.o
 .text.vQueueDelete
                0x0000000000000000       0x2e build/tsb0//home/karl/node-apps/zoo/FreeRTOS-Kernel/queue.o
 .text.uxQueueGetQueueNumber
                0x0000000000000000       0x18 build/tsb0//home/karl/node-apps/zoo/FreeRTOS-Kernel/queue.o
 .text.vQueueSetQueueNumber
                0x0000000000000000       0x1c build/tsb0//home/karl/node-apps/zoo/FreeRTOS-Kernel/queue.o
 .text.ucQueueGetQueueType
                0x0000000000000000       0x1a build/tsb0//home/karl/node-apps/zoo/FreeRTOS-Kernel/queue.o
 .text.xQueueIsQueueEmptyFromISR
                0x0000000000000000       0x36 build/tsb0//home/karl/node-apps/zoo/FreeRTOS-Kernel/queue.o
 .text.xQueueIsQueueFullFromISR
                0x0000000000000000       0x3a build/tsb0//home/karl/node-apps/zoo/FreeRTOS-Kernel/queue.o
 .text          0x0000000000000000        0x0 build/tsb0//home/karl/node-apps/zoo/FreeRTOS-Kernel/croutine.o
 .data          0x0000000000000000        0x0 build/tsb0//home/karl/node-apps/zoo/FreeRTOS-Kernel/croutine.o
 .bss           0x0000000000000000        0x0 build/tsb0//home/karl/node-apps/zoo/FreeRTOS-Kernel/croutine.o
 .debug_info    0x0000000000000000      0x105 build/tsb0//home/karl/node-apps/zoo/FreeRTOS-Kernel/croutine.o
 .debug_abbrev  0x0000000000000000       0xac build/tsb0//home/karl/node-apps/zoo/FreeRTOS-Kernel/croutine.o
 .debug_aranges
                0x0000000000000000       0x18 build/tsb0//home/karl/node-apps/zoo/FreeRTOS-Kernel/croutine.o
 .debug_line    0x0000000000000000      0x143 build/tsb0//home/karl/node-apps/zoo/FreeRTOS-Kernel/croutine.o
 .debug_str     0x0000000000000000      0x253 build/tsb0//home/karl/node-apps/zoo/FreeRTOS-Kernel/croutine.o
 .comment       0x0000000000000000       0x5a build/tsb0//home/karl/node-apps/zoo/FreeRTOS-Kernel/croutine.o
 .ARM.attributes
                0x0000000000000000       0x37 build/tsb0//home/karl/node-apps/zoo/FreeRTOS-Kernel/croutine.o
 .text          0x0000000000000000        0x0 build/tsb0//home/karl/node-apps/zoo/FreeRTOS-Kernel/list.o
 .data          0x0000000000000000        0x0 build/tsb0//home/karl/node-apps/zoo/FreeRTOS-Kernel/list.o
 .bss           0x0000000000000000        0x0 build/tsb0//home/karl/node-apps/zoo/FreeRTOS-Kernel/list.o
 .text          0x0000000000000000        0x0 build/tsb0//home/karl/node-apps/zoo/FreeRTOS-Kernel/stream_buffer.o
 .data          0x0000000000000000        0x0 build/tsb0//home/karl/node-apps/zoo/FreeRTOS-Kernel/stream_buffer.o
 .bss           0x0000000000000000        0x0 build/tsb0//home/karl/node-apps/zoo/FreeRTOS-Kernel/stream_buffer.o
 .text.xStreamBufferGenericCreate
                0x0000000000000000       0x7a build/tsb0//home/karl/node-apps/zoo/FreeRTOS-Kernel/stream_buffer.o
 .text.xStreamBufferGenericCreateStatic
                0x0000000000000000       0xa2 build/tsb0//home/karl/node-apps/zoo/FreeRTOS-Kernel/stream_buffer.o
 .text.vStreamBufferDelete
                0x0000000000000000       0x3c build/tsb0//home/karl/node-apps/zoo/FreeRTOS-Kernel/stream_buffer.o
 .text.xStreamBufferReset
                0x0000000000000000       0x66 build/tsb0//home/karl/node-apps/zoo/FreeRTOS-Kernel/stream_buffer.o
 .text.xStreamBufferSetTriggerLevel
                0x0000000000000000       0x4a build/tsb0//home/karl/node-apps/zoo/FreeRTOS-Kernel/stream_buffer.o
 .text.xStreamBufferSpacesAvailable
                0x0000000000000000       0x54 build/tsb0//home/karl/node-apps/zoo/FreeRTOS-Kernel/stream_buffer.o
 .text.xStreamBufferBytesAvailable
                0x0000000000000000       0x28 build/tsb0//home/karl/node-apps/zoo/FreeRTOS-Kernel/stream_buffer.o
 .text.xStreamBufferSend
                0x0000000000000000      0x122 build/tsb0//home/karl/node-apps/zoo/FreeRTOS-Kernel/stream_buffer.o
 .text.xStreamBufferSendFromISR
                0x0000000000000000       0xbe build/tsb0//home/karl/node-apps/zoo/FreeRTOS-Kernel/stream_buffer.o
 .text.prvWriteMessageToBuffer
                0x0000000000000000       0x7a build/tsb0//home/karl/node-apps/zoo/FreeRTOS-Kernel/stream_buffer.o
 .text.xStreamBufferReceive
                0x0000000000000000       0xf4 build/tsb0//home/karl/node-apps/zoo/FreeRTOS-Kernel/stream_buffer.o
 .text.xStreamBufferNextMessageLengthBytes
                0x0000000000000000       0x6e build/tsb0//home/karl/node-apps/zoo/FreeRTOS-Kernel/stream_buffer.o
 .text.xStreamBufferReceiveFromISR
                0x0000000000000000       0xba build/tsb0//home/karl/node-apps/zoo/FreeRTOS-Kernel/stream_buffer.o
 .text.prvReadMessageFromBuffer
                0x0000000000000000       0x64 build/tsb0//home/karl/node-apps/zoo/FreeRTOS-Kernel/stream_buffer.o
 .text.xStreamBufferIsEmpty
                0x0000000000000000       0x3e build/tsb0//home/karl/node-apps/zoo/FreeRTOS-Kernel/stream_buffer.o
 .text.xStreamBufferIsFull
                0x0000000000000000       0x4e build/tsb0//home/karl/node-apps/zoo/FreeRTOS-Kernel/stream_buffer.o
 .text.xStreamBufferSendCompletedFromISR
                0x0000000000000000       0x74 build/tsb0//home/karl/node-apps/zoo/FreeRTOS-Kernel/stream_buffer.o
 .text.xStreamBufferReceiveCompletedFromISR
                0x0000000000000000       0x74 build/tsb0//home/karl/node-apps/zoo/FreeRTOS-Kernel/stream_buffer.o
 .text.prvWriteBytesToBuffer
                0x0000000000000000       0xae build/tsb0//home/karl/node-apps/zoo/FreeRTOS-Kernel/stream_buffer.o
 .text.prvReadBytesFromBuffer
                0x0000000000000000       0xbe build/tsb0//home/karl/node-apps/zoo/FreeRTOS-Kernel/stream_buffer.o
 .text.prvBytesInBuffer
                0x0000000000000000       0x40 build/tsb0//home/karl/node-apps/zoo/FreeRTOS-Kernel/stream_buffer.o
 .text.prvInitialiseNewStreamBuffer
                0x0000000000000000       0x54 build/tsb0//home/karl/node-apps/zoo/FreeRTOS-Kernel/stream_buffer.o
 .text.uxStreamBufferGetStreamBufferNumber
                0x0000000000000000       0x18 build/tsb0//home/karl/node-apps/zoo/FreeRTOS-Kernel/stream_buffer.o
 .text.vStreamBufferSetStreamBufferNumber
                0x0000000000000000       0x1c build/tsb0//home/karl/node-apps/zoo/FreeRTOS-Kernel/stream_buffer.o
 .text.ucStreamBufferGetStreamBufferType
                0x0000000000000000       0x1e build/tsb0//home/karl/node-apps/zoo/FreeRTOS-Kernel/stream_buffer.o
 .debug_info    0x0000000000000000     0x17dc build/tsb0//home/karl/node-apps/zoo/FreeRTOS-Kernel/stream_buffer.o
 .debug_abbrev  0x0000000000000000      0x38d build/tsb0//home/karl/node-apps/zoo/FreeRTOS-Kernel/stream_buffer.o
 .debug_aranges
                0x0000000000000000       0xe0 build/tsb0//home/karl/node-apps/zoo/FreeRTOS-Kernel/stream_buffer.o
 .debug_ranges  0x0000000000000000       0xd0 build/tsb0//home/karl/node-apps/zoo/FreeRTOS-Kernel/stream_buffer.o
 .debug_line    0x0000000000000000      0xa3e build/tsb0//home/karl/node-apps/zoo/FreeRTOS-Kernel/stream_buffer.o
 .debug_str     0x0000000000000000      0xcf9 build/tsb0//home/karl/node-apps/zoo/FreeRTOS-Kernel/stream_buffer.o
 .comment       0x0000000000000000       0x5a build/tsb0//home/karl/node-apps/zoo/FreeRTOS-Kernel/stream_buffer.o
 .debug_frame   0x0000000000000000      0x3c4 build/tsb0//home/karl/node-apps/zoo/FreeRTOS-Kernel/stream_buffer.o
 .ARM.attributes
                0x0000000000000000       0x32 build/tsb0//home/karl/node-apps/zoo/FreeRTOS-Kernel/stream_buffer.o
 .text          0x0000000000000000        0x0 build/tsb0//home/karl/node-apps/zoo/FreeRTOS-Kernel/event_groups.o
 .data          0x0000000000000000        0x0 build/tsb0//home/karl/node-apps/zoo/FreeRTOS-Kernel/event_groups.o
 .bss           0x0000000000000000        0x0 build/tsb0//home/karl/node-apps/zoo/FreeRTOS-Kernel/event_groups.o
 .text.xEventGroupCreateStatic
                0x0000000000000000       0x4a build/tsb0//home/karl/node-apps/zoo/FreeRTOS-Kernel/event_groups.o
 .text.xEventGroupCreate
                0x0000000000000000       0x34 build/tsb0//home/karl/node-apps/zoo/FreeRTOS-Kernel/event_groups.o
 .text.xEventGroupSync
                0x0000000000000000      0x128 build/tsb0//home/karl/node-apps/zoo/FreeRTOS-Kernel/event_groups.o
 .text.xEventGroupWaitBits
                0x0000000000000000      0x154 build/tsb0//home/karl/node-apps/zoo/FreeRTOS-Kernel/event_groups.o
 .text.xEventGroupClearBits
                0x0000000000000000       0x4c build/tsb0//home/karl/node-apps/zoo/FreeRTOS-Kernel/event_groups.o
 .text.xEventGroupClearBitsFromISR
                0x0000000000000000       0x28 build/tsb0//home/karl/node-apps/zoo/FreeRTOS-Kernel/event_groups.o
 .text.xEventGroupGetBitsFromISR
                0x0000000000000000       0x48 build/tsb0//home/karl/node-apps/zoo/FreeRTOS-Kernel/event_groups.o
 .text.xEventGroupSetBits
                0x0000000000000000       0xf2 build/tsb0//home/karl/node-apps/zoo/FreeRTOS-Kernel/event_groups.o
 .text.vEventGroupDelete
                0x0000000000000000       0x58 build/tsb0//home/karl/node-apps/zoo/FreeRTOS-Kernel/event_groups.o
 .text.vEventGroupSetBitsCallback
                0x0000000000000000       0x1a build/tsb0//home/karl/node-apps/zoo/FreeRTOS-Kernel/event_groups.o
 .text.vEventGroupClearBitsCallback
                0x0000000000000000       0x1a build/tsb0//home/karl/node-apps/zoo/FreeRTOS-Kernel/event_groups.o
 .text.prvTestWaitCondition
                0x0000000000000000       0x44 build/tsb0//home/karl/node-apps/zoo/FreeRTOS-Kernel/event_groups.o
 .text.xEventGroupSetBitsFromISR
                0x0000000000000000       0x28 build/tsb0//home/karl/node-apps/zoo/FreeRTOS-Kernel/event_groups.o
 .text.uxEventGroupGetNumber
                0x0000000000000000       0x2c build/tsb0//home/karl/node-apps/zoo/FreeRTOS-Kernel/event_groups.o
 .text.vEventGroupSetNumber
                0x0000000000000000       0x1c build/tsb0//home/karl/node-apps/zoo/FreeRTOS-Kernel/event_groups.o
 .debug_info    0x0000000000000000     0x12a6 build/tsb0//home/karl/node-apps/zoo/FreeRTOS-Kernel/event_groups.o
 .debug_abbrev  0x0000000000000000      0x336 build/tsb0//home/karl/node-apps/zoo/FreeRTOS-Kernel/event_groups.o
 .debug_aranges
                0x0000000000000000       0x90 build/tsb0//home/karl/node-apps/zoo/FreeRTOS-Kernel/event_groups.o
 .debug_ranges  0x0000000000000000       0x80 build/tsb0//home/karl/node-apps/zoo/FreeRTOS-Kernel/event_groups.o
 .debug_line    0x0000000000000000      0x6b3 build/tsb0//home/karl/node-apps/zoo/FreeRTOS-Kernel/event_groups.o
 .debug_str     0x0000000000000000      0xb6e build/tsb0//home/karl/node-apps/zoo/FreeRTOS-Kernel/event_groups.o
 .comment       0x0000000000000000       0x5a build/tsb0//home/karl/node-apps/zoo/FreeRTOS-Kernel/event_groups.o
 .debug_frame   0x0000000000000000      0x23c build/tsb0//home/karl/node-apps/zoo/FreeRTOS-Kernel/event_groups.o
 .ARM.attributes
                0x0000000000000000       0x32 build/tsb0//home/karl/node-apps/zoo/FreeRTOS-Kernel/event_groups.o
 .text          0x0000000000000000        0x0 build/tsb0//home/karl/node-apps/zoo/FreeRTOS-Kernel/tasks.o
 .data          0x0000000000000000        0x0 build/tsb0//home/karl/node-apps/zoo/FreeRTOS-Kernel/tasks.o
 .bss           0x0000000000000000        0x0 build/tsb0//home/karl/node-apps/zoo/FreeRTOS-Kernel/tasks.o
 .text.vTaskDelete
                0x0000000000000000       0xd4 build/tsb0//home/karl/node-apps/zoo/FreeRTOS-Kernel/tasks.o
 .text.vTaskDelayUntil
                0x0000000000000000       0xc4 build/tsb0//home/karl/node-apps/zoo/FreeRTOS-Kernel/tasks.o
 .text.eTaskGetState
                0x0000000000000000       0xbc build/tsb0//home/karl/node-apps/zoo/FreeRTOS-Kernel/tasks.o
 .text.uxTaskPriorityGet
                0x0000000000000000       0x34 build/tsb0//home/karl/node-apps/zoo/FreeRTOS-Kernel/tasks.o
 .text.uxTaskPriorityGetFromISR
                0x0000000000000000       0x58 build/tsb0//home/karl/node-apps/zoo/FreeRTOS-Kernel/tasks.o
 .text.vTaskPrioritySet
                0x0000000000000000      0x128 build/tsb0//home/karl/node-apps/zoo/FreeRTOS-Kernel/tasks.o
 .text.vTaskSuspend
                0x0000000000000000       0xd8 build/tsb0//home/karl/node-apps/zoo/FreeRTOS-Kernel/tasks.o
 .text.prvTaskIsTaskSuspended
                0x0000000000000000       0x50 build/tsb0//home/karl/node-apps/zoo/FreeRTOS-Kernel/tasks.o
 .text.vTaskResume
                0x0000000000000000       0xac build/tsb0//home/karl/node-apps/zoo/FreeRTOS-Kernel/tasks.o
 .text.xTaskResumeFromISR
                0x0000000000000000       0xd4 build/tsb0//home/karl/node-apps/zoo/FreeRTOS-Kernel/tasks.o
 .text.vTaskEndScheduler
                0x0000000000000000       0x30 build/tsb0//home/karl/node-apps/zoo/FreeRTOS-Kernel/tasks.o
 .text.xTaskGetTickCountFromISR
                0x0000000000000000       0x24 build/tsb0//home/karl/node-apps/zoo/FreeRTOS-Kernel/tasks.o
 .text.uxTaskGetNumberOfTasks
                0x0000000000000000       0x18 build/tsb0//home/karl/node-apps/zoo/FreeRTOS-Kernel/tasks.o
 .text.pcTaskGetName
                0x0000000000000000       0x38 build/tsb0//home/karl/node-apps/zoo/FreeRTOS-Kernel/tasks.o
 .text.uxTaskGetSystemState
                0x0000000000000000      0x11c build/tsb0//home/karl/node-apps/zoo/FreeRTOS-Kernel/tasks.o
 .text.xTaskCatchUpTicks
                0x0000000000000000       0x40 build/tsb0//home/karl/node-apps/zoo/FreeRTOS-Kernel/tasks.o
 .text.vTaskPlaceOnUnorderedEventList
                0x0000000000000000       0x54 build/tsb0//home/karl/node-apps/zoo/FreeRTOS-Kernel/tasks.o
 .text.vTaskRemoveFromUnorderedEventList
                0x0000000000000000       0xa0 build/tsb0//home/karl/node-apps/zoo/FreeRTOS-Kernel/tasks.o
 .text.vTaskSetTimeOutState
                0x0000000000000000       0x3c build/tsb0//home/karl/node-apps/zoo/FreeRTOS-Kernel/tasks.o
 .text.uxTaskGetTaskNumber
                0x0000000000000000       0x2c build/tsb0//home/karl/node-apps/zoo/FreeRTOS-Kernel/tasks.o
 .text.vTaskSetTaskNumber
                0x0000000000000000       0x26 build/tsb0//home/karl/node-apps/zoo/FreeRTOS-Kernel/tasks.o
 .text.vTaskGetInfo
                0x0000000000000000       0xcc build/tsb0//home/karl/node-apps/zoo/FreeRTOS-Kernel/tasks.o
 .text.prvListTasksWithinSingleList
                0x0000000000000000       0xa4 build/tsb0//home/karl/node-apps/zoo/FreeRTOS-Kernel/tasks.o
 .text.prvTaskCheckFreeStackSpace
                0x0000000000000000       0x38 build/tsb0//home/karl/node-apps/zoo/FreeRTOS-Kernel/tasks.o
 .text.uxTaskGetStackHighWaterMark
                0x0000000000000000       0x38 build/tsb0//home/karl/node-apps/zoo/FreeRTOS-Kernel/tasks.o
 .text.uxTaskResetEventItemValue
                0x0000000000000000       0x30 build/tsb0//home/karl/node-apps/zoo/FreeRTOS-Kernel/tasks.o
 .text.ulTaskNotifyTake
                0x0000000000000000       0x90 build/tsb0//home/karl/node-apps/zoo/FreeRTOS-Kernel/tasks.o
 .text.xTaskNotifyWait
                0x0000000000000000       0xb4 build/tsb0//home/karl/node-apps/zoo/FreeRTOS-Kernel/tasks.o
 .text.xTaskGenericNotify
                0x0000000000000000      0x138 build/tsb0//home/karl/node-apps/zoo/FreeRTOS-Kernel/tasks.o
 .text.xTaskGenericNotifyFromISR
                0x0000000000000000      0x184 build/tsb0//home/karl/node-apps/zoo/FreeRTOS-Kernel/tasks.o
 .text.vTaskNotifyGiveFromISR
                0x0000000000000000      0x100 build/tsb0//home/karl/node-apps/zoo/FreeRTOS-Kernel/tasks.o
 .text.xTaskNotifyStateClear
                0x0000000000000000       0x4c build/tsb0//home/karl/node-apps/zoo/FreeRTOS-Kernel/tasks.o
 .text.ulTaskNotifyValueClear
                0x0000000000000000       0x48 build/tsb0//home/karl/node-apps/zoo/FreeRTOS-Kernel/tasks.o
 .text          0x0000000000000000        0x0 build/tsb0//home/karl/node-apps/zoo/FreeRTOS-Kernel/timers.o
 .data          0x0000000000000000        0x0 build/tsb0//home/karl/node-apps/zoo/FreeRTOS-Kernel/timers.o
 .bss           0x0000000000000000        0x0 build/tsb0//home/karl/node-apps/zoo/FreeRTOS-Kernel/timers.o
 .text.xTimerGetTimerDaemonTaskHandle
                0x0000000000000000       0x24 build/tsb0//home/karl/node-apps/zoo/FreeRTOS-Kernel/timers.o
 .text.xTimerGetPeriod
                0x0000000000000000       0x26 build/tsb0//home/karl/node-apps/zoo/FreeRTOS-Kernel/timers.o
 .text.vTimerSetReloadMode
                0x0000000000000000       0x54 build/tsb0//home/karl/node-apps/zoo/FreeRTOS-Kernel/timers.o
 .text.uxTimerGetReloadMode
                0x0000000000000000       0x40 build/tsb0//home/karl/node-apps/zoo/FreeRTOS-Kernel/timers.o
 .text.xTimerGetExpiryTime
                0x0000000000000000       0x2a build/tsb0//home/karl/node-apps/zoo/FreeRTOS-Kernel/timers.o
 .text.pcTimerGetName
                0x0000000000000000       0x26 build/tsb0//home/karl/node-apps/zoo/FreeRTOS-Kernel/timers.o
 .text.xTimerIsTimerActive
                0x0000000000000000       0x40 build/tsb0//home/karl/node-apps/zoo/FreeRTOS-Kernel/timers.o
 .text.vTimerSetTimerID
                0x0000000000000000       0x2e build/tsb0//home/karl/node-apps/zoo/FreeRTOS-Kernel/timers.o
 .text.xTimerPendFunctionCallFromISR
                0x0000000000000000       0x40 build/tsb0//home/karl/node-apps/zoo/FreeRTOS-Kernel/timers.o
 .text.xTimerPendFunctionCall
                0x0000000000000000       0x4c build/tsb0//home/karl/node-apps/zoo/FreeRTOS-Kernel/timers.o
 .text.uxTimerGetTimerNumber
                0x0000000000000000       0x18 build/tsb0//home/karl/node-apps/zoo/FreeRTOS-Kernel/timers.o
 .text.vTimerSetTimerNumber
                0x0000000000000000       0x1c build/tsb0//home/karl/node-apps/zoo/FreeRTOS-Kernel/timers.o
 .text          0x0000000000000000        0x0 build/tsb0//home/karl/node-apps/zoo/thinnect.cmsis-freertos/CMSIS-FreeRTOS/CMSIS/RTOS2/FreeRTOS/Source/cmsis_os2.o
 .data          0x0000000000000000        0x0 build/tsb0//home/karl/node-apps/zoo/thinnect.cmsis-freertos/CMSIS-FreeRTOS/CMSIS/RTOS2/FreeRTOS/Source/cmsis_os2.o
 .bss           0x0000000000000000        0x0 build/tsb0//home/karl/node-apps/zoo/thinnect.cmsis-freertos/CMSIS-FreeRTOS/CMSIS/RTOS2/FreeRTOS/Source/cmsis_os2.o
 .rodata        0x0000000000000000       0x11 build/tsb0//home/karl/node-apps/zoo/thinnect.cmsis-freertos/CMSIS-FreeRTOS/CMSIS/RTOS2/FreeRTOS/Source/cmsis_os2.o
 .text.osKernelGetInfo
                0x0000000000000000       0x50 build/tsb0//home/karl/node-apps/zoo/thinnect.cmsis-freertos/CMSIS-FreeRTOS/CMSIS/RTOS2/FreeRTOS/Source/cmsis_os2.o
 .text.osKernelLock
                0x0000000000000000       0x70 build/tsb0//home/karl/node-apps/zoo/thinnect.cmsis-freertos/CMSIS-FreeRTOS/CMSIS/RTOS2/FreeRTOS/Source/cmsis_os2.o
 .text.osKernelUnlock
                0x0000000000000000       0x88 build/tsb0//home/karl/node-apps/zoo/thinnect.cmsis-freertos/CMSIS-FreeRTOS/CMSIS/RTOS2/FreeRTOS/Source/cmsis_os2.o
 .text.osKernelRestoreLock
                0x0000000000000000       0x98 build/tsb0//home/karl/node-apps/zoo/thinnect.cmsis-freertos/CMSIS-FreeRTOS/CMSIS/RTOS2/FreeRTOS/Source/cmsis_os2.o
 .text.osKernelGetTickCount
                0x0000000000000000       0x50 build/tsb0//home/karl/node-apps/zoo/thinnect.cmsis-freertos/CMSIS-FreeRTOS/CMSIS/RTOS2/FreeRTOS/Source/cmsis_os2.o
 .text.osKernelGetTickFreq
                0x0000000000000000       0x12 build/tsb0//home/karl/node-apps/zoo/thinnect.cmsis-freertos/CMSIS-FreeRTOS/CMSIS/RTOS2/FreeRTOS/Source/cmsis_os2.o
 .text.osKernelGetSysTimerCount
                0x0000000000000000       0x72 build/tsb0//home/karl/node-apps/zoo/thinnect.cmsis-freertos/CMSIS-FreeRTOS/CMSIS/RTOS2/FreeRTOS/Source/cmsis_os2.o
 .text.osKernelGetSysTimerFreq
                0x0000000000000000       0x18 build/tsb0//home/karl/node-apps/zoo/thinnect.cmsis-freertos/CMSIS-FreeRTOS/CMSIS/RTOS2/FreeRTOS/Source/cmsis_os2.o
 .text.osThreadGetName
                0x0000000000000000       0x5c build/tsb0//home/karl/node-apps/zoo/thinnect.cmsis-freertos/CMSIS-FreeRTOS/CMSIS/RTOS2/FreeRTOS/Source/cmsis_os2.o
 .text.osThreadGetId
                0x0000000000000000       0x16 build/tsb0//home/karl/node-apps/zoo/thinnect.cmsis-freertos/CMSIS-FreeRTOS/CMSIS/RTOS2/FreeRTOS/Source/cmsis_os2.o
 .text.osThreadGetState
                0x0000000000000000       0x9c build/tsb0//home/karl/node-apps/zoo/thinnect.cmsis-freertos/CMSIS-FreeRTOS/CMSIS/RTOS2/FreeRTOS/Source/cmsis_os2.o
 .text.osThreadGetStackSpace
                0x0000000000000000       0x60 build/tsb0//home/karl/node-apps/zoo/thinnect.cmsis-freertos/CMSIS-FreeRTOS/CMSIS/RTOS2/FreeRTOS/Source/cmsis_os2.o
 .text.osThreadSetPriority
                0x0000000000000000       0x78 build/tsb0//home/karl/node-apps/zoo/thinnect.cmsis-freertos/CMSIS-FreeRTOS/CMSIS/RTOS2/FreeRTOS/Source/cmsis_os2.o
 .text.osThreadGetPriority
                0x0000000000000000       0x60 build/tsb0//home/karl/node-apps/zoo/thinnect.cmsis-freertos/CMSIS-FreeRTOS/CMSIS/RTOS2/FreeRTOS/Source/cmsis_os2.o
 .text.osThreadYield
                0x0000000000000000       0x64 build/tsb0//home/karl/node-apps/zoo/thinnect.cmsis-freertos/CMSIS-FreeRTOS/CMSIS/RTOS2/FreeRTOS/Source/cmsis_os2.o
 .text.osThreadSuspend
                0x0000000000000000       0x68 build/tsb0//home/karl/node-apps/zoo/thinnect.cmsis-freertos/CMSIS-FreeRTOS/CMSIS/RTOS2/FreeRTOS/Source/cmsis_os2.o
 .text.osThreadResume
                0x0000000000000000       0x68 build/tsb0//home/karl/node-apps/zoo/thinnect.cmsis-freertos/CMSIS-FreeRTOS/CMSIS/RTOS2/FreeRTOS/Source/cmsis_os2.o
 .text.osThreadExit
                0x0000000000000000        0xc build/tsb0//home/karl/node-apps/zoo/thinnect.cmsis-freertos/CMSIS-FreeRTOS/CMSIS/RTOS2/FreeRTOS/Source/cmsis_os2.o
 .text.osThreadTerminate
                0x0000000000000000       0x80 build/tsb0//home/karl/node-apps/zoo/thinnect.cmsis-freertos/CMSIS-FreeRTOS/CMSIS/RTOS2/FreeRTOS/Source/cmsis_os2.o
 .text.osThreadGetCount
                0x0000000000000000       0x4c build/tsb0//home/karl/node-apps/zoo/thinnect.cmsis-freertos/CMSIS-FreeRTOS/CMSIS/RTOS2/FreeRTOS/Source/cmsis_os2.o
 .text.osThreadEnumerate
                0x0000000000000000       0xcc build/tsb0//home/karl/node-apps/zoo/thinnect.cmsis-freertos/CMSIS-FreeRTOS/CMSIS/RTOS2/FreeRTOS/Source/cmsis_os2.o
 .text.osThreadFlagsSet
                0x0000000000000000       0xc0 build/tsb0//home/karl/node-apps/zoo/thinnect.cmsis-freertos/CMSIS-FreeRTOS/CMSIS/RTOS2/FreeRTOS/Source/cmsis_os2.o
 .text.osThreadFlagsClear
                0x0000000000000000       0xa0 build/tsb0//home/karl/node-apps/zoo/thinnect.cmsis-freertos/CMSIS-FreeRTOS/CMSIS/RTOS2/FreeRTOS/Source/cmsis_os2.o
 .text.osThreadFlagsGet
                0x0000000000000000       0x68 build/tsb0//home/karl/node-apps/zoo/thinnect.cmsis-freertos/CMSIS-FreeRTOS/CMSIS/RTOS2/FreeRTOS/Source/cmsis_os2.o
 .text.osThreadFlagsWait
                0x0000000000000000      0x128 build/tsb0//home/karl/node-apps/zoo/thinnect.cmsis-freertos/CMSIS-FreeRTOS/CMSIS/RTOS2/FreeRTOS/Source/cmsis_os2.o
 .text.osDelayUntil
                0x0000000000000000       0x80 build/tsb0//home/karl/node-apps/zoo/thinnect.cmsis-freertos/CMSIS-FreeRTOS/CMSIS/RTOS2/FreeRTOS/Source/cmsis_os2.o
 .text.osTimerGetName
                0x0000000000000000       0x5c build/tsb0//home/karl/node-apps/zoo/thinnect.cmsis-freertos/CMSIS-FreeRTOS/CMSIS/RTOS2/FreeRTOS/Source/cmsis_os2.o
 .text.osTimerStop
                0x0000000000000000       0x94 build/tsb0//home/karl/node-apps/zoo/thinnect.cmsis-freertos/CMSIS-FreeRTOS/CMSIS/RTOS2/FreeRTOS/Source/cmsis_os2.o
 .text.osTimerIsRunning
                0x0000000000000000       0x5c build/tsb0//home/karl/node-apps/zoo/thinnect.cmsis-freertos/CMSIS-FreeRTOS/CMSIS/RTOS2/FreeRTOS/Source/cmsis_os2.o
 .text.osTimerDelete
                0x0000000000000000       0x8c build/tsb0//home/karl/node-apps/zoo/thinnect.cmsis-freertos/CMSIS-FreeRTOS/CMSIS/RTOS2/FreeRTOS/Source/cmsis_os2.o
 .text.osEventFlagsNew
                0x0000000000000000       0xa4 build/tsb0//home/karl/node-apps/zoo/thinnect.cmsis-freertos/CMSIS-FreeRTOS/CMSIS/RTOS2/FreeRTOS/Source/cmsis_os2.o
 .text.osEventFlagsSet
                0x0000000000000000       0xb0 build/tsb0//home/karl/node-apps/zoo/thinnect.cmsis-freertos/CMSIS-FreeRTOS/CMSIS/RTOS2/FreeRTOS/Source/cmsis_os2.o
 .text.osEventFlagsClear
                0x0000000000000000       0x88 build/tsb0//home/karl/node-apps/zoo/thinnect.cmsis-freertos/CMSIS-FreeRTOS/CMSIS/RTOS2/FreeRTOS/Source/cmsis_os2.o
 .text.osEventFlagsGet
                0x0000000000000000       0x68 build/tsb0//home/karl/node-apps/zoo/thinnect.cmsis-freertos/CMSIS-FreeRTOS/CMSIS/RTOS2/FreeRTOS/Source/cmsis_os2.o
 .text.osEventFlagsWait
                0x0000000000000000       0xf0 build/tsb0//home/karl/node-apps/zoo/thinnect.cmsis-freertos/CMSIS-FreeRTOS/CMSIS/RTOS2/FreeRTOS/Source/cmsis_os2.o
 .text.osEventFlagsDelete
                0x0000000000000000       0x68 build/tsb0//home/karl/node-apps/zoo/thinnect.cmsis-freertos/CMSIS-FreeRTOS/CMSIS/RTOS2/FreeRTOS/Source/cmsis_os2.o
 .text.osMutexGetOwner
                0x0000000000000000       0x60 build/tsb0//home/karl/node-apps/zoo/thinnect.cmsis-freertos/CMSIS-FreeRTOS/CMSIS/RTOS2/FreeRTOS/Source/cmsis_os2.o
 .text.osMutexDelete
                0x0000000000000000       0x6c build/tsb0//home/karl/node-apps/zoo/thinnect.cmsis-freertos/CMSIS-FreeRTOS/CMSIS/RTOS2/FreeRTOS/Source/cmsis_os2.o
 .text.osSemaphoreNew
                0x0000000000000000      0x118 build/tsb0//home/karl/node-apps/zoo/thinnect.cmsis-freertos/CMSIS-FreeRTOS/CMSIS/RTOS2/FreeRTOS/Source/cmsis_os2.o
 .text.osSemaphoreAcquire
                0x0000000000000000       0xcc build/tsb0//home/karl/node-apps/zoo/thinnect.cmsis-freertos/CMSIS-FreeRTOS/CMSIS/RTOS2/FreeRTOS/Source/cmsis_os2.o
 .text.osSemaphoreRelease
                0x0000000000000000       0xb0 build/tsb0//home/karl/node-apps/zoo/thinnect.cmsis-freertos/CMSIS-FreeRTOS/CMSIS/RTOS2/FreeRTOS/Source/cmsis_os2.o
 .text.osSemaphoreGetCount
                0x0000000000000000       0x64 build/tsb0//home/karl/node-apps/zoo/thinnect.cmsis-freertos/CMSIS-FreeRTOS/CMSIS/RTOS2/FreeRTOS/Source/cmsis_os2.o
 .text.osSemaphoreDelete
                0x0000000000000000       0x68 build/tsb0//home/karl/node-apps/zoo/thinnect.cmsis-freertos/CMSIS-FreeRTOS/CMSIS/RTOS2/FreeRTOS/Source/cmsis_os2.o
 .text.osMessageQueueNew
                0x0000000000000000       0xec build/tsb0//home/karl/node-apps/zoo/thinnect.cmsis-freertos/CMSIS-FreeRTOS/CMSIS/RTOS2/FreeRTOS/Source/cmsis_os2.o
 .text.osMessageQueuePut
                0x0000000000000000       0xe8 build/tsb0//home/karl/node-apps/zoo/thinnect.cmsis-freertos/CMSIS-FreeRTOS/CMSIS/RTOS2/FreeRTOS/Source/cmsis_os2.o
 .text.osMessageQueueGet
                0x0000000000000000       0xe4 build/tsb0//home/karl/node-apps/zoo/thinnect.cmsis-freertos/CMSIS-FreeRTOS/CMSIS/RTOS2/FreeRTOS/Source/cmsis_os2.o
 .text.osMessageQueueGetCapacity
                0x0000000000000000       0x2c build/tsb0//home/karl/node-apps/zoo/thinnect.cmsis-freertos/CMSIS-FreeRTOS/CMSIS/RTOS2/FreeRTOS/Source/cmsis_os2.o
 .text.osMessageQueueGetMsgSize
                0x0000000000000000       0x2c build/tsb0//home/karl/node-apps/zoo/thinnect.cmsis-freertos/CMSIS-FreeRTOS/CMSIS/RTOS2/FreeRTOS/Source/cmsis_os2.o
 .text.osMessageQueueGetCount
                0x0000000000000000       0x64 build/tsb0//home/karl/node-apps/zoo/thinnect.cmsis-freertos/CMSIS-FreeRTOS/CMSIS/RTOS2/FreeRTOS/Source/cmsis_os2.o
 .text.osMessageQueueGetSpace
                0x0000000000000000       0x90 build/tsb0//home/karl/node-apps/zoo/thinnect.cmsis-freertos/CMSIS-FreeRTOS/CMSIS/RTOS2/FreeRTOS/Source/cmsis_os2.o
 .text.osMessageQueueReset
                0x0000000000000000       0x68 build/tsb0//home/karl/node-apps/zoo/thinnect.cmsis-freertos/CMSIS-FreeRTOS/CMSIS/RTOS2/FreeRTOS/Source/cmsis_os2.o
 .text.osMessageQueueDelete
                0x0000000000000000       0x68 build/tsb0//home/karl/node-apps/zoo/thinnect.cmsis-freertos/CMSIS-FreeRTOS/CMSIS/RTOS2/FreeRTOS/Source/cmsis_os2.o
 .text.osMemoryPoolNew
                0x0000000000000000      0x1cc build/tsb0//home/karl/node-apps/zoo/thinnect.cmsis-freertos/CMSIS-FreeRTOS/CMSIS/RTOS2/FreeRTOS/Source/cmsis_os2.o
 .text.osMemoryPoolGetName
                0x0000000000000000       0x64 build/tsb0//home/karl/node-apps/zoo/thinnect.cmsis-freertos/CMSIS-FreeRTOS/CMSIS/RTOS2/FreeRTOS/Source/cmsis_os2.o
 .text.osMemoryPoolAlloc
                0x0000000000000000      0x114 build/tsb0//home/karl/node-apps/zoo/thinnect.cmsis-freertos/CMSIS-FreeRTOS/CMSIS/RTOS2/FreeRTOS/Source/cmsis_os2.o
 .text.osMemoryPoolFree
                0x0000000000000000      0x158 build/tsb0//home/karl/node-apps/zoo/thinnect.cmsis-freertos/CMSIS-FreeRTOS/CMSIS/RTOS2/FreeRTOS/Source/cmsis_os2.o
 .text.osMemoryPoolGetCapacity
                0x0000000000000000       0x44 build/tsb0//home/karl/node-apps/zoo/thinnect.cmsis-freertos/CMSIS-FreeRTOS/CMSIS/RTOS2/FreeRTOS/Source/cmsis_os2.o
 .text.osMemoryPoolGetBlockSize
                0x0000000000000000       0x44 build/tsb0//home/karl/node-apps/zoo/thinnect.cmsis-freertos/CMSIS-FreeRTOS/CMSIS/RTOS2/FreeRTOS/Source/cmsis_os2.o
 .text.osMemoryPoolGetCount
                0x0000000000000000       0x90 build/tsb0//home/karl/node-apps/zoo/thinnect.cmsis-freertos/CMSIS-FreeRTOS/CMSIS/RTOS2/FreeRTOS/Source/cmsis_os2.o
 .text.osMemoryPoolGetSpace
                0x0000000000000000       0x84 build/tsb0//home/karl/node-apps/zoo/thinnect.cmsis-freertos/CMSIS-FreeRTOS/CMSIS/RTOS2/FreeRTOS/Source/cmsis_os2.o
 .text.osMemoryPoolDelete
                0x0000000000000000       0xc4 build/tsb0//home/karl/node-apps/zoo/thinnect.cmsis-freertos/CMSIS-FreeRTOS/CMSIS/RTOS2/FreeRTOS/Source/cmsis_os2.o
 .text.CreateBlock
                0x0000000000000000       0x44 build/tsb0//home/karl/node-apps/zoo/thinnect.cmsis-freertos/CMSIS-FreeRTOS/CMSIS/RTOS2/FreeRTOS/Source/cmsis_os2.o
 .text.AllocBlock
                0x0000000000000000       0x30 build/tsb0//home/karl/node-apps/zoo/thinnect.cmsis-freertos/CMSIS-FreeRTOS/CMSIS/RTOS2/FreeRTOS/Source/cmsis_os2.o
 .text.FreeBlock
                0x0000000000000000       0x28 build/tsb0//home/karl/node-apps/zoo/thinnect.cmsis-freertos/CMSIS-FreeRTOS/CMSIS/RTOS2/FreeRTOS/Source/cmsis_os2.o
 .text          0x0000000000000000        0x0 build/tsb0//home/karl/SimplicityStudio_v5/developer/sdks/gecko_sdk_suite/v3.2/hardware/kit/common/drivers/retargetserial.o
 .data          0x0000000000000000        0x0 build/tsb0//home/karl/SimplicityStudio_v5/developer/sdks/gecko_sdk_suite/v3.2/hardware/kit/common/drivers/retargetserial.o
 .bss           0x0000000000000000        0x0 build/tsb0//home/karl/SimplicityStudio_v5/developer/sdks/gecko_sdk_suite/v3.2/hardware/kit/common/drivers/retargetserial.o
 .text.RETARGET_SerialCrLf
                0x0000000000000000       0x2c build/tsb0//home/karl/SimplicityStudio_v5/developer/sdks/gecko_sdk_suite/v3.2/hardware/kit/common/drivers/retargetserial.o
 .text.RETARGET_SerialEnableFlowControl
                0x0000000000000000       0x10 build/tsb0//home/karl/SimplicityStudio_v5/developer/sdks/gecko_sdk_suite/v3.2/hardware/kit/common/drivers/retargetserial.o
 .text.RETARGET_SerialFlush
                0x0000000000000000       0x24 build/tsb0//home/karl/SimplicityStudio_v5/developer/sdks/gecko_sdk_suite/v3.2/hardware/kit/common/drivers/retargetserial.o
 .text.RETARGET_RequireEm1
                0x0000000000000000       0x16 build/tsb0//home/karl/SimplicityStudio_v5/developer/sdks/gecko_sdk_suite/v3.2/hardware/kit/common/drivers/retargetserial.o
 .text          0x0000000000000000        0x0 build/tsb0//home/karl/SimplicityStudio_v5/developer/sdks/gecko_sdk_suite/v3.2/hardware/kit/common/drivers/retargetio.o
 .data          0x0000000000000000        0x0 build/tsb0//home/karl/SimplicityStudio_v5/developer/sdks/gecko_sdk_suite/v3.2/hardware/kit/common/drivers/retargetio.o
 .bss           0x0000000000000000        0x0 build/tsb0//home/karl/SimplicityStudio_v5/developer/sdks/gecko_sdk_suite/v3.2/hardware/kit/common/drivers/retargetio.o
 .text          0x0000000000000000        0x0 build/tsb0//home/karl/SimplicityStudio_v5/developer/sdks/gecko_sdk_suite/v3.2/platform/emlib/src/em_system.o
 .data          0x0000000000000000        0x0 build/tsb0//home/karl/SimplicityStudio_v5/developer/sdks/gecko_sdk_suite/v3.2/platform/emlib/src/em_system.o
 .bss           0x0000000000000000        0x0 build/tsb0//home/karl/SimplicityStudio_v5/developer/sdks/gecko_sdk_suite/v3.2/platform/emlib/src/em_system.o
 .text.SYSTEM_ChipRevisionGet
                0x0000000000000000       0x78 build/tsb0//home/karl/SimplicityStudio_v5/developer/sdks/gecko_sdk_suite/v3.2/platform/emlib/src/em_system.o
 .text.SYSTEM_GetCalibrationValue
                0x0000000000000000       0x58 build/tsb0//home/karl/SimplicityStudio_v5/developer/sdks/gecko_sdk_suite/v3.2/platform/emlib/src/em_system.o
 .text.SYSTEM_GetSecurityCapability
                0x0000000000000000       0x18 build/tsb0//home/karl/SimplicityStudio_v5/developer/sdks/gecko_sdk_suite/v3.2/platform/emlib/src/em_system.o
 .debug_info    0x0000000000000000      0x31b build/tsb0//home/karl/SimplicityStudio_v5/developer/sdks/gecko_sdk_suite/v3.2/platform/emlib/src/em_system.o
 .debug_abbrev  0x0000000000000000      0x188 build/tsb0//home/karl/SimplicityStudio_v5/developer/sdks/gecko_sdk_suite/v3.2/platform/emlib/src/em_system.o
 .debug_aranges
                0x0000000000000000       0x30 build/tsb0//home/karl/SimplicityStudio_v5/developer/sdks/gecko_sdk_suite/v3.2/platform/emlib/src/em_system.o
 .debug_ranges  0x0000000000000000       0x20 build/tsb0//home/karl/SimplicityStudio_v5/developer/sdks/gecko_sdk_suite/v3.2/platform/emlib/src/em_system.o
 .debug_line    0x0000000000000000      0x2dd build/tsb0//home/karl/SimplicityStudio_v5/developer/sdks/gecko_sdk_suite/v3.2/platform/emlib/src/em_system.o
 .debug_str     0x0000000000000000      0x428 build/tsb0//home/karl/SimplicityStudio_v5/developer/sdks/gecko_sdk_suite/v3.2/platform/emlib/src/em_system.o
 .comment       0x0000000000000000       0x5a build/tsb0//home/karl/SimplicityStudio_v5/developer/sdks/gecko_sdk_suite/v3.2/platform/emlib/src/em_system.o
 .debug_frame   0x0000000000000000       0x88 build/tsb0//home/karl/SimplicityStudio_v5/developer/sdks/gecko_sdk_suite/v3.2/platform/emlib/src/em_system.o
 .ARM.attributes
                0x0000000000000000       0x32 build/tsb0//home/karl/SimplicityStudio_v5/developer/sdks/gecko_sdk_suite/v3.2/platform/emlib/src/em_system.o
 .text          0x0000000000000000        0x0 build/tsb0//home/karl/SimplicityStudio_v5/developer/sdks/gecko_sdk_suite/v3.2/platform/emlib/src/em_core.o
 .data          0x0000000000000000        0x0 build/tsb0//home/karl/SimplicityStudio_v5/developer/sdks/gecko_sdk_suite/v3.2/platform/emlib/src/em_core.o
 .bss           0x0000000000000000        0x0 build/tsb0//home/karl/SimplicityStudio_v5/developer/sdks/gecko_sdk_suite/v3.2/platform/emlib/src/em_core.o
 .text.__NVIC_GetPriority
                0x0000000000000000       0x50 build/tsb0//home/karl/SimplicityStudio_v5/developer/sdks/gecko_sdk_suite/v3.2/platform/emlib/src/em_core.o
 .text.CORE_CriticalDisableIrq
                0x0000000000000000       0x12 build/tsb0//home/karl/SimplicityStudio_v5/developer/sdks/gecko_sdk_suite/v3.2/platform/emlib/src/em_core.o
 .text.CORE_CriticalEnableIrq
                0x0000000000000000       0x12 build/tsb0//home/karl/SimplicityStudio_v5/developer/sdks/gecko_sdk_suite/v3.2/platform/emlib/src/em_core.o
 .text.CORE_EnterCritical
                0x0000000000000000       0x22 build/tsb0//home/karl/SimplicityStudio_v5/developer/sdks/gecko_sdk_suite/v3.2/platform/emlib/src/em_core.o
 .text.CORE_ExitCritical
                0x0000000000000000       0x1e build/tsb0//home/karl/SimplicityStudio_v5/developer/sdks/gecko_sdk_suite/v3.2/platform/emlib/src/em_core.o
 .text.CORE_YieldCritical
                0x0000000000000000       0x30 build/tsb0//home/karl/SimplicityStudio_v5/developer/sdks/gecko_sdk_suite/v3.2/platform/emlib/src/em_core.o
 .text.CORE_AtomicDisableIrq
                0x0000000000000000       0x12 build/tsb0//home/karl/SimplicityStudio_v5/developer/sdks/gecko_sdk_suite/v3.2/platform/emlib/src/em_core.o
 .text.CORE_AtomicEnableIrq
                0x0000000000000000       0x12 build/tsb0//home/karl/SimplicityStudio_v5/developer/sdks/gecko_sdk_suite/v3.2/platform/emlib/src/em_core.o
 .text.CORE_YieldAtomic
                0x0000000000000000       0x30 build/tsb0//home/karl/SimplicityStudio_v5/developer/sdks/gecko_sdk_suite/v3.2/platform/emlib/src/em_core.o
 .text.CORE_EnterNvicMask
                0x0000000000000000       0x3c build/tsb0//home/karl/SimplicityStudio_v5/developer/sdks/gecko_sdk_suite/v3.2/platform/emlib/src/em_core.o
 .text.CORE_NvicDisableMask
                0x0000000000000000       0x2c build/tsb0//home/karl/SimplicityStudio_v5/developer/sdks/gecko_sdk_suite/v3.2/platform/emlib/src/em_core.o
 .text.CORE_NvicEnableMask
                0x0000000000000000       0x2c build/tsb0//home/karl/SimplicityStudio_v5/developer/sdks/gecko_sdk_suite/v3.2/platform/emlib/src/em_core.o
 .text.CORE_YieldNvicMask
                0x0000000000000000       0x8c build/tsb0//home/karl/SimplicityStudio_v5/developer/sdks/gecko_sdk_suite/v3.2/platform/emlib/src/em_core.o
 .text.CORE_NvicMaskSetIRQ
                0x0000000000000000       0x4e build/tsb0//home/karl/SimplicityStudio_v5/developer/sdks/gecko_sdk_suite/v3.2/platform/emlib/src/em_core.o
 .text.CORE_NvicMaskClearIRQ
                0x0000000000000000       0x50 build/tsb0//home/karl/SimplicityStudio_v5/developer/sdks/gecko_sdk_suite/v3.2/platform/emlib/src/em_core.o
 .text.CORE_InIrqContext
                0x0000000000000000       0x24 build/tsb0//home/karl/SimplicityStudio_v5/developer/sdks/gecko_sdk_suite/v3.2/platform/emlib/src/em_core.o
 .text.CORE_IrqIsBlocked
                0x0000000000000000       0xa8 build/tsb0//home/karl/SimplicityStudio_v5/developer/sdks/gecko_sdk_suite/v3.2/platform/emlib/src/em_core.o
 .text.CORE_IrqIsDisabled
                0x0000000000000000       0x28 build/tsb0//home/karl/SimplicityStudio_v5/developer/sdks/gecko_sdk_suite/v3.2/platform/emlib/src/em_core.o
 .text.CORE_GetNvicEnabledMask
                0x0000000000000000       0x2c build/tsb0//home/karl/SimplicityStudio_v5/developer/sdks/gecko_sdk_suite/v3.2/platform/emlib/src/em_core.o
 .text.CORE_GetNvicMaskDisableState
                0x0000000000000000       0x54 build/tsb0//home/karl/SimplicityStudio_v5/developer/sdks/gecko_sdk_suite/v3.2/platform/emlib/src/em_core.o
 .text.CORE_NvicIRQDisabled
                0x0000000000000000       0x54 build/tsb0//home/karl/SimplicityStudio_v5/developer/sdks/gecko_sdk_suite/v3.2/platform/emlib/src/em_core.o
 .text.CORE_GetNvicRamTableHandler
                0x0000000000000000       0x3c build/tsb0//home/karl/SimplicityStudio_v5/developer/sdks/gecko_sdk_suite/v3.2/platform/emlib/src/em_core.o
 .text.CORE_SetNvicRamTableHandler
                0x0000000000000000       0x44 build/tsb0//home/karl/SimplicityStudio_v5/developer/sdks/gecko_sdk_suite/v3.2/platform/emlib/src/em_core.o
 .text.CORE_InitNvicVectorTable
                0x0000000000000000       0xc8 build/tsb0//home/karl/SimplicityStudio_v5/developer/sdks/gecko_sdk_suite/v3.2/platform/emlib/src/em_core.o
 .text          0x0000000000000000        0x0 build/tsb0//home/karl/SimplicityStudio_v5/developer/sdks/gecko_sdk_suite/v3.2/platform/emlib/src/em_emu.o
 .data          0x0000000000000000        0x0 build/tsb0//home/karl/SimplicityStudio_v5/developer/sdks/gecko_sdk_suite/v3.2/platform/emlib/src/em_emu.o
 .bss           0x0000000000000000        0x0 build/tsb0//home/karl/SimplicityStudio_v5/developer/sdks/gecko_sdk_suite/v3.2/platform/emlib/src/em_emu.o
 .text.SystemCoreClockUpdate
                0x0000000000000000        0xc build/tsb0//home/karl/SimplicityStudio_v5/developer/sdks/gecko_sdk_suite/v3.2/platform/emlib/src/em_emu.o
 .text.BUS_RegBitWrite
                0x0000000000000000       0x32 build/tsb0//home/karl/SimplicityStudio_v5/developer/sdks/gecko_sdk_suite/v3.2/platform/emlib/src/em_emu.o
 .text.EMU_IntClear
                0x0000000000000000       0x20 build/tsb0//home/karl/SimplicityStudio_v5/developer/sdks/gecko_sdk_suite/v3.2/platform/emlib/src/em_emu.o
 .text.EMU_IntGet
                0x0000000000000000       0x18 build/tsb0//home/karl/SimplicityStudio_v5/developer/sdks/gecko_sdk_suite/v3.2/platform/emlib/src/em_emu.o
 .text.EMU_Unlock
                0x0000000000000000       0x1c build/tsb0//home/karl/SimplicityStudio_v5/developer/sdks/gecko_sdk_suite/v3.2/platform/emlib/src/em_emu.o
 .text.EMU_PowerLock
                0x0000000000000000       0x18 build/tsb0//home/karl/SimplicityStudio_v5/developer/sdks/gecko_sdk_suite/v3.2/platform/emlib/src/em_emu.o
 .text.EMU_PowerUnlock
                0x0000000000000000       0x1c build/tsb0//home/karl/SimplicityStudio_v5/developer/sdks/gecko_sdk_suite/v3.2/platform/emlib/src/em_emu.o
 .text.CMU_Lock
                0x0000000000000000       0x1c build/tsb0//home/karl/SimplicityStudio_v5/developer/sdks/gecko_sdk_suite/v3.2/platform/emlib/src/em_emu.o
 .text.CMU_Unlock
                0x0000000000000000       0x1c build/tsb0//home/karl/SimplicityStudio_v5/developer/sdks/gecko_sdk_suite/v3.2/platform/emlib/src/em_emu.o
 .bss.dcdcMaxCurrent_mA
                0x0000000000000000        0x2 build/tsb0//home/karl/SimplicityStudio_v5/developer/sdks/gecko_sdk_suite/v3.2/platform/emlib/src/em_emu.o
 .bss.dcdcEm01LoadCurrent_mA
                0x0000000000000000        0x2 build/tsb0//home/karl/SimplicityStudio_v5/developer/sdks/gecko_sdk_suite/v3.2/platform/emlib/src/em_emu.o
 .bss.dcdcReverseCurrentControl
                0x0000000000000000        0x2 build/tsb0//home/karl/SimplicityStudio_v5/developer/sdks/gecko_sdk_suite/v3.2/platform/emlib/src/em_emu.o
 .ram           0x0000000000000000       0x28 build/tsb0//home/karl/SimplicityStudio_v5/developer/sdks/gecko_sdk_suite/v3.2/platform/emlib/src/em_emu.o
 .text.emState  0x0000000000000000      0x158 build/tsb0//home/karl/SimplicityStudio_v5/developer/sdks/gecko_sdk_suite/v3.2/platform/emlib/src/em_emu.o
 .text.vScaleDownEM23Setup
                0x0000000000000000       0x64 build/tsb0//home/karl/SimplicityStudio_v5/developer/sdks/gecko_sdk_suite/v3.2/platform/emlib/src/em_emu.o
 .text.vScaleAfterWakeup
                0x0000000000000000       0x48 build/tsb0//home/karl/SimplicityStudio_v5/developer/sdks/gecko_sdk_suite/v3.2/platform/emlib/src/em_emu.o
 .text.EMU_EM23PresleepHook
                0x0000000000000000        0xe build/tsb0//home/karl/SimplicityStudio_v5/developer/sdks/gecko_sdk_suite/v3.2/platform/emlib/src/em_emu.o
 .text.EMU_EFPEM23PresleepHook
                0x0000000000000000        0xe build/tsb0//home/karl/SimplicityStudio_v5/developer/sdks/gecko_sdk_suite/v3.2/platform/emlib/src/em_emu.o
 .text.EMU_EM23PostsleepHook
                0x0000000000000000        0xe build/tsb0//home/karl/SimplicityStudio_v5/developer/sdks/gecko_sdk_suite/v3.2/platform/emlib/src/em_emu.o
 .text.EMU_EFPEM23PostsleepHook
                0x0000000000000000        0xe build/tsb0//home/karl/SimplicityStudio_v5/developer/sdks/gecko_sdk_suite/v3.2/platform/emlib/src/em_emu.o
 .text.EMU_EnterEM2
                0x0000000000000000       0x98 build/tsb0//home/karl/SimplicityStudio_v5/developer/sdks/gecko_sdk_suite/v3.2/platform/emlib/src/em_emu.o
 .text.EMU_EnterEM3
                0x0000000000000000       0xb8 build/tsb0//home/karl/SimplicityStudio_v5/developer/sdks/gecko_sdk_suite/v3.2/platform/emlib/src/em_emu.o
 .text.EMU_Save
                0x0000000000000000        0xe build/tsb0//home/karl/SimplicityStudio_v5/developer/sdks/gecko_sdk_suite/v3.2/platform/emlib/src/em_emu.o
 .text.EMU_Restore
                0x0000000000000000        0xe build/tsb0//home/karl/SimplicityStudio_v5/developer/sdks/gecko_sdk_suite/v3.2/platform/emlib/src/em_emu.o
 .text.EMU_EM4PresleepHook
                0x0000000000000000        0xe build/tsb0//home/karl/SimplicityStudio_v5/developer/sdks/gecko_sdk_suite/v3.2/platform/emlib/src/em_emu.o
 .text.EMU_EFPEM4PresleepHook
                0x0000000000000000        0xe build/tsb0//home/karl/SimplicityStudio_v5/developer/sdks/gecko_sdk_suite/v3.2/platform/emlib/src/em_emu.o
 .text.EMU_EnterEM4
                0x0000000000000000       0x5c build/tsb0//home/karl/SimplicityStudio_v5/developer/sdks/gecko_sdk_suite/v3.2/platform/emlib/src/em_emu.o
 .text.EMU_EnterEM4H
                0x0000000000000000       0x1c build/tsb0//home/karl/SimplicityStudio_v5/developer/sdks/gecko_sdk_suite/v3.2/platform/emlib/src/em_emu.o
 .text.EMU_EnterEM4S
                0x0000000000000000       0x1c build/tsb0//home/karl/SimplicityStudio_v5/developer/sdks/gecko_sdk_suite/v3.2/platform/emlib/src/em_emu.o
 .text.EMU_MemPwrDown
                0x0000000000000000       0x24 build/tsb0//home/karl/SimplicityStudio_v5/developer/sdks/gecko_sdk_suite/v3.2/platform/emlib/src/em_emu.o
 .text.EMU_RamPowerDown
                0x0000000000000000      0x14c build/tsb0//home/karl/SimplicityStudio_v5/developer/sdks/gecko_sdk_suite/v3.2/platform/emlib/src/em_emu.o
 .text.EMU_RamPowerUp
                0x0000000000000000       0x28 build/tsb0//home/karl/SimplicityStudio_v5/developer/sdks/gecko_sdk_suite/v3.2/platform/emlib/src/em_emu.o
 .text.EMU_PeripheralRetention
                0x0000000000000000       0x28 build/tsb0//home/karl/SimplicityStudio_v5/developer/sdks/gecko_sdk_suite/v3.2/platform/emlib/src/em_emu.o
 .text.EMU_UpdateOscConfig
                0x0000000000000000        0xe build/tsb0//home/karl/SimplicityStudio_v5/developer/sdks/gecko_sdk_suite/v3.2/platform/emlib/src/em_emu.o
 .text.EMU_EM01Init
                0x0000000000000000       0x24 build/tsb0//home/karl/SimplicityStudio_v5/developer/sdks/gecko_sdk_suite/v3.2/platform/emlib/src/em_emu.o
 .text.EMU_EM23Init
                0x0000000000000000       0x3c build/tsb0//home/karl/SimplicityStudio_v5/developer/sdks/gecko_sdk_suite/v3.2/platform/emlib/src/em_emu.o
 .text.EMU_EM4Init
                0x0000000000000000       0x8c build/tsb0//home/karl/SimplicityStudio_v5/developer/sdks/gecko_sdk_suite/v3.2/platform/emlib/src/em_emu.o
 .text.dcdcConstCalibrationLoad
                0x0000000000000000       0x10 build/tsb0//home/karl/SimplicityStudio_v5/developer/sdks/gecko_sdk_suite/v3.2/platform/emlib/src/em_emu.o
 .text.dcdcValidatedConfigSet
                0x0000000000000000       0x40 build/tsb0//home/karl/SimplicityStudio_v5/developer/sdks/gecko_sdk_suite/v3.2/platform/emlib/src/em_emu.o
 .text.currentLimitersUpdate
                0x0000000000000000       0xe8 build/tsb0//home/karl/SimplicityStudio_v5/developer/sdks/gecko_sdk_suite/v3.2/platform/emlib/src/em_emu.o
 .text.userCurrentLimitsSet
                0x0000000000000000       0x30 build/tsb0//home/karl/SimplicityStudio_v5/developer/sdks/gecko_sdk_suite/v3.2/platform/emlib/src/em_emu.o
 .text.compCtrlSet
                0x0000000000000000       0x40 build/tsb0//home/karl/SimplicityStudio_v5/developer/sdks/gecko_sdk_suite/v3.2/platform/emlib/src/em_emu.o
 .text.lpCmpHystCalibrationLoad
                0x0000000000000000       0xd0 build/tsb0//home/karl/SimplicityStudio_v5/developer/sdks/gecko_sdk_suite/v3.2/platform/emlib/src/em_emu.o
 .text.lpGetDevinfoVrefLowHigh
                0x0000000000000000      0x18c build/tsb0//home/karl/SimplicityStudio_v5/developer/sdks/gecko_sdk_suite/v3.2/platform/emlib/src/em_emu.o
 .text.EMU_DCDCModeSet
                0x0000000000000000      0x10c build/tsb0//home/karl/SimplicityStudio_v5/developer/sdks/gecko_sdk_suite/v3.2/platform/emlib/src/em_emu.o
 .text.EMU_DCDCModeEM23Set
                0x0000000000000000       0x50 build/tsb0//home/karl/SimplicityStudio_v5/developer/sdks/gecko_sdk_suite/v3.2/platform/emlib/src/em_emu.o
 .text.EMU_DCDCConductionModeSet
                0x0000000000000000       0xb0 build/tsb0//home/karl/SimplicityStudio_v5/developer/sdks/gecko_sdk_suite/v3.2/platform/emlib/src/em_emu.o
 .text.EMU_DCDCInit
                0x0000000000000000      0x138 build/tsb0//home/karl/SimplicityStudio_v5/developer/sdks/gecko_sdk_suite/v3.2/platform/emlib/src/em_emu.o
 .rodata        0x0000000000000000        0x3 build/tsb0//home/karl/SimplicityStudio_v5/developer/sdks/gecko_sdk_suite/v3.2/platform/emlib/src/em_emu.o
 .text.EMU_DCDCOutputVoltageSet
                0x0000000000000000      0x2ac build/tsb0//home/karl/SimplicityStudio_v5/developer/sdks/gecko_sdk_suite/v3.2/platform/emlib/src/em_emu.o
 .text.EMU_DCDCOptimizeSlice
                0x0000000000000000       0xd8 build/tsb0//home/karl/SimplicityStudio_v5/developer/sdks/gecko_sdk_suite/v3.2/platform/emlib/src/em_emu.o
 .text.EMU_DCDCLnRcoBandSet
                0x0000000000000000       0x54 build/tsb0//home/karl/SimplicityStudio_v5/developer/sdks/gecko_sdk_suite/v3.2/platform/emlib/src/em_emu.o
 .text.EMU_DCDCPowerOff
                0x0000000000000000       0x4c build/tsb0//home/karl/SimplicityStudio_v5/developer/sdks/gecko_sdk_suite/v3.2/platform/emlib/src/em_emu.o
 .text.vmonCalibratedThreshold
                0x0000000000000000      0x1a8 build/tsb0//home/karl/SimplicityStudio_v5/developer/sdks/gecko_sdk_suite/v3.2/platform/emlib/src/em_emu.o
 .text.EMU_VmonInit
                0x0000000000000000      0x1b8 build/tsb0//home/karl/SimplicityStudio_v5/developer/sdks/gecko_sdk_suite/v3.2/platform/emlib/src/em_emu.o
 .text.EMU_VmonHystInit
                0x0000000000000000       0xfc build/tsb0//home/karl/SimplicityStudio_v5/developer/sdks/gecko_sdk_suite/v3.2/platform/emlib/src/em_emu.o
 .text.EMU_VmonEnable
                0x0000000000000000       0x7c build/tsb0//home/karl/SimplicityStudio_v5/developer/sdks/gecko_sdk_suite/v3.2/platform/emlib/src/em_emu.o
 .text.EMU_VmonChannelStatusGet
                0x0000000000000000       0x68 build/tsb0//home/karl/SimplicityStudio_v5/developer/sdks/gecko_sdk_suite/v3.2/platform/emlib/src/em_emu.o
 .text.EMU_TemperatureGet
                0x0000000000000000       0x94 build/tsb0//home/karl/SimplicityStudio_v5/developer/sdks/gecko_sdk_suite/v3.2/platform/emlib/src/em_emu.o
 .bss.cmuStatus.7968
                0x0000000000000000        0x4 build/tsb0//home/karl/SimplicityStudio_v5/developer/sdks/gecko_sdk_suite/v3.2/platform/emlib/src/em_emu.o
 .bss.hfClock.7969
                0x0000000000000000        0x1 build/tsb0//home/karl/SimplicityStudio_v5/developer/sdks/gecko_sdk_suite/v3.2/platform/emlib/src/em_emu.o
 .bss.vScaleStatus.7970
                0x0000000000000000        0x1 build/tsb0//home/karl/SimplicityStudio_v5/developer/sdks/gecko_sdk_suite/v3.2/platform/emlib/src/em_emu.o
 .bss.hfrcoCtrl.7971
                0x0000000000000000        0x4 build/tsb0//home/karl/SimplicityStudio_v5/developer/sdks/gecko_sdk_suite/v3.2/platform/emlib/src/em_emu.o
 .text          0x0000000000000000        0x0 build/tsb0//home/karl/SimplicityStudio_v5/developer/sdks/gecko_sdk_suite/v3.2/platform/emlib/src/em_cmu.o
 .data          0x0000000000000000        0x0 build/tsb0//home/karl/SimplicityStudio_v5/developer/sdks/gecko_sdk_suite/v3.2/platform/emlib/src/em_cmu.o
 .bss           0x0000000000000000        0x0 build/tsb0//home/karl/SimplicityStudio_v5/developer/sdks/gecko_sdk_suite/v3.2/platform/emlib/src/em_cmu.o
 .text.CMU_DivToLog2
                0x0000000000000000       0x32 build/tsb0//home/karl/SimplicityStudio_v5/developer/sdks/gecko_sdk_suite/v3.2/platform/emlib/src/em_cmu.o
 .text.CMU_PrescToLog2
                0x0000000000000000       0x28 build/tsb0//home/karl/SimplicityStudio_v5/developer/sdks/gecko_sdk_suite/v3.2/platform/emlib/src/em_cmu.o
 .rodata.hfrcoCtrlTable
                0x0000000000000000      0x150 build/tsb0//home/karl/SimplicityStudio_v5/developer/sdks/gecko_sdk_suite/v3.2/platform/emlib/src/em_cmu.o
 .data.lfxo_precision
                0x0000000000000000        0x2 build/tsb0//home/karl/SimplicityStudio_v5/developer/sdks/gecko_sdk_suite/v3.2/platform/emlib/src/em_cmu.o
 .text.CMU_AUXHFRCODevinfoGet
                0x0000000000000000      0x114 build/tsb0//home/karl/SimplicityStudio_v5/developer/sdks/gecko_sdk_suite/v3.2/platform/emlib/src/em_cmu.o
 .text.CMU_AUXHFRCOBandGet
                0x0000000000000000       0x18 build/tsb0//home/karl/SimplicityStudio_v5/developer/sdks/gecko_sdk_suite/v3.2/platform/emlib/src/em_cmu.o
 .text.CMU_AUXHFRCOBandSet
                0x0000000000000000       0xa4 build/tsb0//home/karl/SimplicityStudio_v5/developer/sdks/gecko_sdk_suite/v3.2/platform/emlib/src/em_cmu.o
 .text.CMU_Calibrate
                0x0000000000000000       0x88 build/tsb0//home/karl/SimplicityStudio_v5/developer/sdks/gecko_sdk_suite/v3.2/platform/emlib/src/em_cmu.o
 .text.CMU_CalibrateConfig
                0x0000000000000000       0xd8 build/tsb0//home/karl/SimplicityStudio_v5/developer/sdks/gecko_sdk_suite/v3.2/platform/emlib/src/em_cmu.o
 .text.CMU_CalibrateCountGet
                0x0000000000000000       0x38 build/tsb0//home/karl/SimplicityStudio_v5/developer/sdks/gecko_sdk_suite/v3.2/platform/emlib/src/em_cmu.o
 .text.CMU_ClockDivSet
                0x0000000000000000       0x1e build/tsb0//home/karl/SimplicityStudio_v5/developer/sdks/gecko_sdk_suite/v3.2/platform/emlib/src/em_cmu.o
 .text.CMU_ClockPrescSet
                0x0000000000000000      0x26c build/tsb0//home/karl/SimplicityStudio_v5/developer/sdks/gecko_sdk_suite/v3.2/platform/emlib/src/em_cmu.o
 .text.CMU_LF_ClockPrecisionGet
                0x0000000000000000       0x38 build/tsb0//home/karl/SimplicityStudio_v5/developer/sdks/gecko_sdk_suite/v3.2/platform/emlib/src/em_cmu.o
 .text.CMU_DPLLLock
                0x0000000000000000      0x1ec build/tsb0//home/karl/SimplicityStudio_v5/developer/sdks/gecko_sdk_suite/v3.2/platform/emlib/src/em_cmu.o
 .text.CMU_FreezeEnable
                0x0000000000000000       0x40 build/tsb0//home/karl/SimplicityStudio_v5/developer/sdks/gecko_sdk_suite/v3.2/platform/emlib/src/em_cmu.o
 .text.CMU_HFRCODevinfoGet
                0x0000000000000000      0x114 build/tsb0//home/karl/SimplicityStudio_v5/developer/sdks/gecko_sdk_suite/v3.2/platform/emlib/src/em_cmu.o
 .text.CMU_HFRCOBandSet
                0x0000000000000000      0x12c build/tsb0//home/karl/SimplicityStudio_v5/developer/sdks/gecko_sdk_suite/v3.2/platform/emlib/src/em_cmu.o
 .text.CMU_HFXOAutostartEnable
                0x0000000000000000       0xc0 build/tsb0//home/karl/SimplicityStudio_v5/developer/sdks/gecko_sdk_suite/v3.2/platform/emlib/src/em_cmu.o
 .text.CMU_LCDClkFDIVGet
                0x0000000000000000       0x10 build/tsb0//home/karl/SimplicityStudio_v5/developer/sdks/gecko_sdk_suite/v3.2/platform/emlib/src/em_cmu.o
 .text.CMU_LCDClkFDIVSet
                0x0000000000000000       0x14 build/tsb0//home/karl/SimplicityStudio_v5/developer/sdks/gecko_sdk_suite/v3.2/platform/emlib/src/em_cmu.o
 .text.CMU_LFXOInit
                0x0000000000000000       0x60 build/tsb0//home/karl/SimplicityStudio_v5/developer/sdks/gecko_sdk_suite/v3.2/platform/emlib/src/em_cmu.o
 .text.CMU_LFXOPrecisionSet
                0x0000000000000000       0x20 build/tsb0//home/karl/SimplicityStudio_v5/developer/sdks/gecko_sdk_suite/v3.2/platform/emlib/src/em_cmu.o
 .text.CMU_PCNTClockExternalGet
                0x0000000000000000       0x70 build/tsb0//home/karl/SimplicityStudio_v5/developer/sdks/gecko_sdk_suite/v3.2/platform/emlib/src/em_cmu.o
 .text.CMU_PCNTClockExternalSet
                0x0000000000000000       0x38 build/tsb0//home/karl/SimplicityStudio_v5/developer/sdks/gecko_sdk_suite/v3.2/platform/emlib/src/em_cmu.o
 .text          0x0000000000000000        0x0 build/tsb0//home/karl/SimplicityStudio_v5/developer/sdks/gecko_sdk_suite/v3.2/platform/emlib/src/em_rmu.o
 .data          0x0000000000000000        0x0 build/tsb0//home/karl/SimplicityStudio_v5/developer/sdks/gecko_sdk_suite/v3.2/platform/emlib/src/em_rmu.o
 .bss           0x0000000000000000        0x0 build/tsb0//home/karl/SimplicityStudio_v5/developer/sdks/gecko_sdk_suite/v3.2/platform/emlib/src/em_rmu.o
 .text.SL_CTZ   0x0000000000000000       0x28 build/tsb0//home/karl/SimplicityStudio_v5/developer/sdks/gecko_sdk_suite/v3.2/platform/emlib/src/em_rmu.o
 .text.RMU_ResetControl
                0x0000000000000000       0x44 build/tsb0//home/karl/SimplicityStudio_v5/developer/sdks/gecko_sdk_suite/v3.2/platform/emlib/src/em_rmu.o
 .text          0x0000000000000000        0x0 build/tsb0//home/karl/SimplicityStudio_v5/developer/sdks/gecko_sdk_suite/v3.2/platform/emlib/src/em_gpio.o
 .data          0x0000000000000000        0x0 build/tsb0//home/karl/SimplicityStudio_v5/developer/sdks/gecko_sdk_suite/v3.2/platform/emlib/src/em_gpio.o
 .bss           0x0000000000000000        0x0 build/tsb0//home/karl/SimplicityStudio_v5/developer/sdks/gecko_sdk_suite/v3.2/platform/emlib/src/em_gpio.o
 .text.BUS_RegBitWrite
                0x0000000000000000       0x32 build/tsb0//home/karl/SimplicityStudio_v5/developer/sdks/gecko_sdk_suite/v3.2/platform/emlib/src/em_gpio.o
 .text.BUS_RegMaskedWrite
                0x0000000000000000       0x36 build/tsb0//home/karl/SimplicityStudio_v5/developer/sdks/gecko_sdk_suite/v3.2/platform/emlib/src/em_gpio.o
 .text.GPIO_EM4SetPinRetention
                0x0000000000000000       0x50 build/tsb0//home/karl/SimplicityStudio_v5/developer/sdks/gecko_sdk_suite/v3.2/platform/emlib/src/em_gpio.o
 .text.GPIO_IntClear
                0x0000000000000000       0x20 build/tsb0//home/karl/SimplicityStudio_v5/developer/sdks/gecko_sdk_suite/v3.2/platform/emlib/src/em_gpio.o
 .text.GPIO_DbgLocationSet
                0x0000000000000000       0x2c build/tsb0//home/karl/SimplicityStudio_v5/developer/sdks/gecko_sdk_suite/v3.2/platform/emlib/src/em_gpio.o
 .text.GPIO_DriveStrengthSet
                0x0000000000000000       0x7e build/tsb0//home/karl/SimplicityStudio_v5/developer/sdks/gecko_sdk_suite/v3.2/platform/emlib/src/em_gpio.o
 .text.GPIO_ExtIntConfig
                0x0000000000000000      0x140 build/tsb0//home/karl/SimplicityStudio_v5/developer/sdks/gecko_sdk_suite/v3.2/platform/emlib/src/em_gpio.o
 .text.GPIO_PinModeGet
                0x0000000000000000       0xac build/tsb0//home/karl/SimplicityStudio_v5/developer/sdks/gecko_sdk_suite/v3.2/platform/emlib/src/em_gpio.o
 .text.GPIO_EM4EnablePinWakeup
                0x0000000000000000       0x58 build/tsb0//home/karl/SimplicityStudio_v5/developer/sdks/gecko_sdk_suite/v3.2/platform/emlib/src/em_gpio.o
 .text          0x0000000000000000        0x0 build/tsb0//home/karl/SimplicityStudio_v5/developer/sdks/gecko_sdk_suite/v3.2/platform/emlib/src/em_usart.o
 .data          0x0000000000000000        0x0 build/tsb0//home/karl/SimplicityStudio_v5/developer/sdks/gecko_sdk_suite/v3.2/platform/emlib/src/em_usart.o
 .bss           0x0000000000000000        0x0 build/tsb0//home/karl/SimplicityStudio_v5/developer/sdks/gecko_sdk_suite/v3.2/platform/emlib/src/em_usart.o
 .text.prsIrInput
                0x0000000000000000       0x2a build/tsb0//home/karl/SimplicityStudio_v5/developer/sdks/gecko_sdk_suite/v3.2/platform/emlib/src/em_usart.o
 .text.prsTriggerInput
                0x0000000000000000       0x2a build/tsb0//home/karl/SimplicityStudio_v5/developer/sdks/gecko_sdk_suite/v3.2/platform/emlib/src/em_usart.o
 .text.USART_BaudrateCalc
                0x0000000000000000      0x11c build/tsb0//home/karl/SimplicityStudio_v5/developer/sdks/gecko_sdk_suite/v3.2/platform/emlib/src/em_usart.o
 .text.USART_BaudrateGet
                0x0000000000000000       0x50 build/tsb0//home/karl/SimplicityStudio_v5/developer/sdks/gecko_sdk_suite/v3.2/platform/emlib/src/em_usart.o
 .text.USART_BaudrateSyncSet
                0x0000000000000000       0x40 build/tsb0//home/karl/SimplicityStudio_v5/developer/sdks/gecko_sdk_suite/v3.2/platform/emlib/src/em_usart.o
 .text.USART_InitSync
                0x0000000000000000      0x100 build/tsb0//home/karl/SimplicityStudio_v5/developer/sdks/gecko_sdk_suite/v3.2/platform/emlib/src/em_usart.o
 .text.USARTn_InitIrDA
                0x0000000000000000       0xa8 build/tsb0//home/karl/SimplicityStudio_v5/developer/sdks/gecko_sdk_suite/v3.2/platform/emlib/src/em_usart.o
 .text.USART_InitI2s
                0x0000000000000000       0x94 build/tsb0//home/karl/SimplicityStudio_v5/developer/sdks/gecko_sdk_suite/v3.2/platform/emlib/src/em_usart.o
 .text.USART_InitPrsTrigger
                0x0000000000000000       0x5e build/tsb0//home/karl/SimplicityStudio_v5/developer/sdks/gecko_sdk_suite/v3.2/platform/emlib/src/em_usart.o
 .text.USART_RxDouble
                0x0000000000000000       0x28 build/tsb0//home/karl/SimplicityStudio_v5/developer/sdks/gecko_sdk_suite/v3.2/platform/emlib/src/em_usart.o
 .text.USART_RxDoubleExt
                0x0000000000000000       0x26 build/tsb0//home/karl/SimplicityStudio_v5/developer/sdks/gecko_sdk_suite/v3.2/platform/emlib/src/em_usart.o
 .text.USART_RxExt
                0x0000000000000000       0x28 build/tsb0//home/karl/SimplicityStudio_v5/developer/sdks/gecko_sdk_suite/v3.2/platform/emlib/src/em_usart.o
 .text.USART_SpiTransfer
                0x0000000000000000       0x40 build/tsb0//home/karl/SimplicityStudio_v5/developer/sdks/gecko_sdk_suite/v3.2/platform/emlib/src/em_usart.o
 .text.USART_TxDouble
                0x0000000000000000       0x2c build/tsb0//home/karl/SimplicityStudio_v5/developer/sdks/gecko_sdk_suite/v3.2/platform/emlib/src/em_usart.o
 .text.USART_TxDoubleExt
                0x0000000000000000       0x2a build/tsb0//home/karl/SimplicityStudio_v5/developer/sdks/gecko_sdk_suite/v3.2/platform/emlib/src/em_usart.o
 .text.USART_TxExt
                0x0000000000000000       0x2c build/tsb0//home/karl/SimplicityStudio_v5/developer/sdks/gecko_sdk_suite/v3.2/platform/emlib/src/em_usart.o
 .text          0x0000000000000000        0x0 build/tsb0//home/karl/SimplicityStudio_v5/developer/sdks/gecko_sdk_suite/v3.2/platform/emlib/src/em_msc.o
 .data          0x0000000000000000        0x0 build/tsb0//home/karl/SimplicityStudio_v5/developer/sdks/gecko_sdk_suite/v3.2/platform/emlib/src/em_msc.o
 .bss           0x0000000000000000        0x0 build/tsb0//home/karl/SimplicityStudio_v5/developer/sdks/gecko_sdk_suite/v3.2/platform/emlib/src/em_msc.o
 .text.BUS_RegMaskedClear
                0x0000000000000000       0x24 build/tsb0//home/karl/SimplicityStudio_v5/developer/sdks/gecko_sdk_suite/v3.2/platform/emlib/src/em_msc.o
 .ram           0x0000000000000000       0x90 build/tsb0//home/karl/SimplicityStudio_v5/developer/sdks/gecko_sdk_suite/v3.2/platform/emlib/src/em_msc.o
 .text.MSC_Deinit
                0x0000000000000000       0x24 build/tsb0//home/karl/SimplicityStudio_v5/developer/sdks/gecko_sdk_suite/v3.2/platform/emlib/src/em_msc.o
 .text.MSC_ExecConfigSet
                0x0000000000000000       0x98 build/tsb0//home/karl/SimplicityStudio_v5/developer/sdks/gecko_sdk_suite/v3.2/platform/emlib/src/em_msc.o
 .text.MSC_LoadVerifyAddress
                0x0000000000000000       0x68 build/tsb0//home/karl/SimplicityStudio_v5/developer/sdks/gecko_sdk_suite/v3.2/platform/emlib/src/em_msc.o
 .text.MSC_LoadWriteData
                0x0000000000000000       0xa0 build/tsb0//home/karl/SimplicityStudio_v5/developer/sdks/gecko_sdk_suite/v3.2/platform/emlib/src/em_msc.o
 .text.MSC_WriteWordI
                0x0000000000000000      0x10c build/tsb0//home/karl/SimplicityStudio_v5/developer/sdks/gecko_sdk_suite/v3.2/platform/emlib/src/em_msc.o
 .text.MSC_ErasePage
                0x0000000000000000      0x110 build/tsb0//home/karl/SimplicityStudio_v5/developer/sdks/gecko_sdk_suite/v3.2/platform/emlib/src/em_msc.o
 .text.MSC_WriteWord
                0x0000000000000000       0x20 build/tsb0//home/karl/SimplicityStudio_v5/developer/sdks/gecko_sdk_suite/v3.2/platform/emlib/src/em_msc.o
 .text.MSC_WriteWordFast
                0x0000000000000000       0x20 build/tsb0//home/karl/SimplicityStudio_v5/developer/sdks/gecko_sdk_suite/v3.2/platform/emlib/src/em_msc.o
 .text.MSC_WriteWordDma
                0x0000000000000000      0x1f4 build/tsb0//home/karl/SimplicityStudio_v5/developer/sdks/gecko_sdk_suite/v3.2/platform/emlib/src/em_msc.o
 .text          0x0000000000000000        0x0 build/tsb0//home/karl/SimplicityStudio_v5/developer/sdks/gecko_sdk_suite/v3.2/platform/emlib/src/em_timer.o
 .data          0x0000000000000000        0x0 build/tsb0//home/karl/SimplicityStudio_v5/developer/sdks/gecko_sdk_suite/v3.2/platform/emlib/src/em_timer.o
 .bss           0x0000000000000000        0x0 build/tsb0//home/karl/SimplicityStudio_v5/developer/sdks/gecko_sdk_suite/v3.2/platform/emlib/src/em_timer.o
 .text.TIMER_SupportsDTI
                0x0000000000000000       0x38 build/tsb0//home/karl/SimplicityStudio_v5/developer/sdks/gecko_sdk_suite/v3.2/platform/emlib/src/em_timer.o
 .text.TIMER_EnableDTI
                0x0000000000000000       0x42 build/tsb0//home/karl/SimplicityStudio_v5/developer/sdks/gecko_sdk_suite/v3.2/platform/emlib/src/em_timer.o
 .text.TIMER_GetDTIFault
                0x0000000000000000       0x1c build/tsb0//home/karl/SimplicityStudio_v5/developer/sdks/gecko_sdk_suite/v3.2/platform/emlib/src/em_timer.o
 .text.TIMER_ClearDTIFault
                0x0000000000000000       0x20 build/tsb0//home/karl/SimplicityStudio_v5/developer/sdks/gecko_sdk_suite/v3.2/platform/emlib/src/em_timer.o
 .text.TIMER_InitDTI
                0x0000000000000000      0x112 build/tsb0//home/karl/SimplicityStudio_v5/developer/sdks/gecko_sdk_suite/v3.2/platform/emlib/src/em_timer.o
 .text.TIMER_Reset
                0x0000000000000000       0xb4 build/tsb0//home/karl/SimplicityStudio_v5/developer/sdks/gecko_sdk_suite/v3.2/platform/emlib/src/em_timer.o
 .text          0x0000000000000000        0x0 build/tsb0//home/karl/node-apps/zoo/thinnect.node-platform/silabs/logger_fwrite.o
 .data          0x0000000000000000        0x0 build/tsb0//home/karl/node-apps/zoo/thinnect.node-platform/silabs/logger_fwrite.o
 .bss           0x0000000000000000        0x0 build/tsb0//home/karl/node-apps/zoo/thinnect.node-platform/silabs/logger_fwrite.o
 .text          0x0000000000000000        0x0 build/tsb0//home/karl/node-apps/zoo/thinnect.lll/logging/loggers_ext.o
 .data          0x0000000000000000        0x0 build/tsb0//home/karl/node-apps/zoo/thinnect.lll/logging/loggers_ext.o
 .bss           0x0000000000000000        0x0 build/tsb0//home/karl/node-apps/zoo/thinnect.lll/logging/loggers_ext.o
 .text.__loggerb
                0x0000000000000000      0x200 build/tsb0//home/karl/node-apps/zoo/thinnect.lll/logging/loggers_ext.o
 .text          0x0000000000000000        0x0 build/tsb0//home/karl/node-apps/zoo/thinnect.device-signature/signature/DeviceSignature.o
 .data          0x0000000000000000        0x0 build/tsb0//home/karl/node-apps/zoo/thinnect.device-signature/signature/DeviceSignature.o
 .bss           0x0000000000000000        0x0 build/tsb0//home/karl/node-apps/zoo/thinnect.device-signature/signature/DeviceSignature.o
 .data.mStatus  0x0000000000000000        0x1 build/tsb0//home/karl/node-apps/zoo/thinnect.device-signature/signature/DeviceSignature.o
 .bss.mEUI64    0x0000000000000000        0x8 build/tsb0//home/karl/node-apps/zoo/thinnect.device-signature/signature/DeviceSignature.o
 .text.findSignature
                0x0000000000000000      0x142 build/tsb0//home/karl/node-apps/zoo/thinnect.device-signature/signature/DeviceSignature.o
 .text.getSignatureVersion
                0x0000000000000000       0x60 build/tsb0//home/karl/node-apps/zoo/thinnect.device-signature/signature/DeviceSignature.o
 .text.getSignatureLength
                0x0000000000000000       0x50 build/tsb0//home/karl/node-apps/zoo/thinnect.device-signature/signature/DeviceSignature.o
 .text.getEui64
                0x0000000000000000       0x6e build/tsb0//home/karl/node-apps/zoo/thinnect.device-signature/signature/DeviceSignature.o
 .text.sigInit  0x0000000000000000       0x90 build/tsb0//home/karl/node-apps/zoo/thinnect.device-signature/signature/DeviceSignature.o
 .text.sigGetEui64
                0x0000000000000000       0x20 build/tsb0//home/karl/node-apps/zoo/thinnect.device-signature/signature/DeviceSignature.o
 .text.sigSetEui64
                0x0000000000000000       0x20 build/tsb0//home/karl/node-apps/zoo/thinnect.device-signature/signature/DeviceSignature.o
 .text.sigGetNodeId
                0x0000000000000000       0x40 build/tsb0//home/karl/node-apps/zoo/thinnect.device-signature/signature/DeviceSignature.o
 .text.sigGetSignatureVersion
                0x0000000000000000       0x70 build/tsb0//home/karl/node-apps/zoo/thinnect.device-signature/signature/DeviceSignature.o
 .text.sigGetBoardVersion
                0x0000000000000000       0xda build/tsb0//home/karl/node-apps/zoo/thinnect.device-signature/signature/DeviceSignature.o
 .text.sigGetPlatformVersion
                0x0000000000000000       0x8a build/tsb0//home/karl/node-apps/zoo/thinnect.device-signature/signature/DeviceSignature.o
 .text.sigGetBoardUUID
                0x0000000000000000       0xae build/tsb0//home/karl/node-apps/zoo/thinnect.device-signature/signature/DeviceSignature.o
 .text.sigGetPlatformUUID
                0x0000000000000000       0x42 build/tsb0//home/karl/node-apps/zoo/thinnect.device-signature/signature/DeviceSignature.o
 .text.sigGetBoardManufacturerUUID
                0x0000000000000000       0xae build/tsb0//home/karl/node-apps/zoo/thinnect.device-signature/signature/DeviceSignature.o
 .text.sigGetPlatformManufacturerUUID
                0x0000000000000000       0x42 build/tsb0//home/karl/node-apps/zoo/thinnect.device-signature/signature/DeviceSignature.o
 .text.sigGetBoardName
                0x0000000000000000       0xb6 build/tsb0//home/karl/node-apps/zoo/thinnect.device-signature/signature/DeviceSignature.o
 .text.sigGetPlatformName
                0x0000000000000000       0x5c build/tsb0//home/karl/node-apps/zoo/thinnect.device-signature/signature/DeviceSignature.o
 .text.sigGetBoardProductionTime
                0x0000000000000000       0xc0 build/tsb0//home/karl/node-apps/zoo/thinnect.device-signature/signature/DeviceSignature.o
 .text.sigGetPlatformProductionTime
                0x0000000000000000       0x64 build/tsb0//home/karl/node-apps/zoo/thinnect.device-signature/signature/DeviceSignature.o
 .text.sigGetBoardSerial
                0x0000000000000000       0x42 build/tsb0//home/karl/node-apps/zoo/thinnect.device-signature/signature/DeviceSignature.o
 .text.sigGetPlatformSerial
                0x0000000000000000       0x3e build/tsb0//home/karl/node-apps/zoo/thinnect.device-signature/signature/DeviceSignature.o
 .text.sigFirstElement
                0x0000000000000000       0x1e build/tsb0//home/karl/node-apps/zoo/thinnect.device-signature/signature/DeviceSignature.o
 .text.sigNextElement
                0x0000000000000000       0x38 build/tsb0//home/karl/node-apps/zoo/thinnect.device-signature/signature/DeviceSignature.o
 .text.sigGetElementVersion
                0x0000000000000000       0x5c build/tsb0//home/karl/node-apps/zoo/thinnect.device-signature/signature/DeviceSignature.o
 .text.sigGetElementProductionTime
                0x0000000000000000       0x6c build/tsb0//home/karl/node-apps/zoo/thinnect.device-signature/signature/DeviceSignature.o
 .text.sigGetElementManufacturerUUID
                0x0000000000000000       0x48 build/tsb0//home/karl/node-apps/zoo/thinnect.device-signature/signature/DeviceSignature.o
 .text.sigGetElementUUID
                0x0000000000000000       0x48 build/tsb0//home/karl/node-apps/zoo/thinnect.device-signature/signature/DeviceSignature.o
 .text.sigGetElementName
                0x0000000000000000       0x50 build/tsb0//home/karl/node-apps/zoo/thinnect.device-signature/signature/DeviceSignature.o
 .text.sigGetElementSerial
                0x0000000000000000       0x48 build/tsb0//home/karl/node-apps/zoo/thinnect.device-signature/signature/DeviceSignature.o
 .text.sigGetElementPosition
                0x0000000000000000       0x48 build/tsb0//home/karl/node-apps/zoo/thinnect.device-signature/signature/DeviceSignature.o
 .text.sigGetElementDataLength
                0x0000000000000000       0x4e build/tsb0//home/karl/node-apps/zoo/thinnect.device-signature/signature/DeviceSignature.o
 .text.sigGetElementData
                0x0000000000000000       0xa0 build/tsb0//home/karl/node-apps/zoo/thinnect.device-signature/signature/DeviceSignature.o
 .text.sigFirstComponent
                0x0000000000000000       0x10 build/tsb0//home/karl/node-apps/zoo/thinnect.device-signature/signature/DeviceSignature.o
 .text.sigNextComponent
                0x0000000000000000       0x1e build/tsb0//home/karl/node-apps/zoo/thinnect.device-signature/signature/DeviceSignature.o
 .text.sigGetComponentVersion
                0x0000000000000000       0x22 build/tsb0//home/karl/node-apps/zoo/thinnect.device-signature/signature/DeviceSignature.o
 .text.sigGetComponentProductionTime
                0x0000000000000000       0x22 build/tsb0//home/karl/node-apps/zoo/thinnect.device-signature/signature/DeviceSignature.o
 .text.sigGetComponentManufacturerUUID
                0x0000000000000000       0x22 build/tsb0//home/karl/node-apps/zoo/thinnect.device-signature/signature/DeviceSignature.o
 .text.sigGetComponentUUID
                0x0000000000000000       0x22 build/tsb0//home/karl/node-apps/zoo/thinnect.device-signature/signature/DeviceSignature.o
 .text.sigGetComponentName
                0x0000000000000000       0x22 build/tsb0//home/karl/node-apps/zoo/thinnect.device-signature/signature/DeviceSignature.o
 .text.sigGetComponentSerial
                0x0000000000000000       0x22 build/tsb0//home/karl/node-apps/zoo/thinnect.device-signature/signature/DeviceSignature.o
 .text.sigGetComponentPosition
                0x0000000000000000       0x22 build/tsb0//home/karl/node-apps/zoo/thinnect.device-signature/signature/DeviceSignature.o
 .text.sigGetComponentDataLength
                0x0000000000000000       0x1e build/tsb0//home/karl/node-apps/zoo/thinnect.device-signature/signature/DeviceSignature.o
 .text.sigGetComponentData
                0x0000000000000000       0x36 build/tsb0//home/karl/node-apps/zoo/thinnect.device-signature/signature/DeviceSignature.o
 .debug_info    0x0000000000000000     0x175a build/tsb0//home/karl/node-apps/zoo/thinnect.device-signature/signature/DeviceSignature.o
 .debug_abbrev  0x0000000000000000      0x338 build/tsb0//home/karl/node-apps/zoo/thinnect.device-signature/signature/DeviceSignature.o
 .debug_aranges
                0x0000000000000000      0x170 build/tsb0//home/karl/node-apps/zoo/thinnect.device-signature/signature/DeviceSignature.o
 .debug_ranges  0x0000000000000000      0x160 build/tsb0//home/karl/node-apps/zoo/thinnect.device-signature/signature/DeviceSignature.o
 .debug_line    0x0000000000000000      0x933 build/tsb0//home/karl/node-apps/zoo/thinnect.device-signature/signature/DeviceSignature.o
 .debug_str     0x0000000000000000      0xb96 build/tsb0//home/karl/node-apps/zoo/thinnect.device-signature/signature/DeviceSignature.o
 .comment       0x0000000000000000       0x5a build/tsb0//home/karl/node-apps/zoo/thinnect.device-signature/signature/DeviceSignature.o
 .debug_frame   0x0000000000000000      0x624 build/tsb0//home/karl/node-apps/zoo/thinnect.device-signature/signature/DeviceSignature.o
 .ARM.attributes
                0x0000000000000000       0x32 build/tsb0//home/karl/node-apps/zoo/thinnect.device-signature/signature/DeviceSignature.o
 .text          0x0000000000000000        0x0 build/tsb0//home/karl/node-apps/zoo/thinnect.device-signature/area/silabs/SignatureArea.o
 .data          0x0000000000000000        0x0 build/tsb0//home/karl/node-apps/zoo/thinnect.device-signature/area/silabs/SignatureArea.o
 .bss           0x0000000000000000        0x0 build/tsb0//home/karl/node-apps/zoo/thinnect.device-signature/area/silabs/SignatureArea.o
 .text.sigAreaGetSize
                0x0000000000000000       0x12 build/tsb0//home/karl/node-apps/zoo/thinnect.device-signature/area/silabs/SignatureArea.o
 .text.sigAreaRead
                0x0000000000000000       0x2a build/tsb0//home/karl/node-apps/zoo/thinnect.device-signature/area/silabs/SignatureArea.o
 .text.sigAreaReadByte
                0x0000000000000000       0x20 build/tsb0//home/karl/node-apps/zoo/thinnect.device-signature/area/silabs/SignatureArea.o
 .debug_info    0x0000000000000000      0x9af build/tsb0//home/karl/node-apps/zoo/thinnect.device-signature/area/silabs/SignatureArea.o
 .debug_abbrev  0x0000000000000000      0x21a build/tsb0//home/karl/node-apps/zoo/thinnect.device-signature/area/silabs/SignatureArea.o
 .debug_aranges
                0x0000000000000000       0x30 build/tsb0//home/karl/node-apps/zoo/thinnect.device-signature/area/silabs/SignatureArea.o
 .debug_ranges  0x0000000000000000       0x20 build/tsb0//home/karl/node-apps/zoo/thinnect.device-signature/area/silabs/SignatureArea.o
 .debug_line    0x0000000000000000      0x13d build/tsb0//home/karl/node-apps/zoo/thinnect.device-signature/area/silabs/SignatureArea.o
 .debug_str     0x0000000000000000      0x63a build/tsb0//home/karl/node-apps/zoo/thinnect.device-signature/area/silabs/SignatureArea.o
 .comment       0x0000000000000000       0x5a build/tsb0//home/karl/node-apps/zoo/thinnect.device-signature/area/silabs/SignatureArea.o
 .debug_frame   0x0000000000000000       0x7c build/tsb0//home/karl/node-apps/zoo/thinnect.device-signature/area/silabs/SignatureArea.o
 .ARM.attributes
                0x0000000000000000       0x32 build/tsb0//home/karl/node-apps/zoo/thinnect.device-signature/area/silabs/SignatureArea.o
 .text          0x0000000000000000        0x0 build/tsb0//home/karl/node-apps/zoo/lammertb.libcrc/src/crcccitt.o
 .data          0x0000000000000000        0x0 build/tsb0//home/karl/node-apps/zoo/lammertb.libcrc/src/crcccitt.o
 .bss           0x0000000000000000        0x0 build/tsb0//home/karl/node-apps/zoo/lammertb.libcrc/src/crcccitt.o
 .bss.crc_tabccitt_init
                0x0000000000000000        0x1 build/tsb0//home/karl/node-apps/zoo/lammertb.libcrc/src/crcccitt.o
 .bss.crc_tabccitt
                0x0000000000000000      0x200 build/tsb0//home/karl/node-apps/zoo/lammertb.libcrc/src/crcccitt.o
 .text.crc_xmodem
                0x0000000000000000       0x1e build/tsb0//home/karl/node-apps/zoo/lammertb.libcrc/src/crcccitt.o
 .text.crc_ccitt_1d0f
                0x0000000000000000       0x20 build/tsb0//home/karl/node-apps/zoo/lammertb.libcrc/src/crcccitt.o
 .text.crc_ccitt_ffff
                0x0000000000000000       0x20 build/tsb0//home/karl/node-apps/zoo/lammertb.libcrc/src/crcccitt.o
 .text.crc_ccitt_generic
                0x0000000000000000       0x7c build/tsb0//home/karl/node-apps/zoo/lammertb.libcrc/src/crcccitt.o
 .text.update_crc_ccitt
                0x0000000000000000       0x54 build/tsb0//home/karl/node-apps/zoo/lammertb.libcrc/src/crcccitt.o
 .text.init_crcccitt_tab
                0x0000000000000000       0x88 build/tsb0//home/karl/node-apps/zoo/lammertb.libcrc/src/crcccitt.o
 .debug_info    0x0000000000000000      0xb59 build/tsb0//home/karl/node-apps/zoo/lammertb.libcrc/src/crcccitt.o
 .debug_abbrev  0x0000000000000000      0x26e build/tsb0//home/karl/node-apps/zoo/lammertb.libcrc/src/crcccitt.o
 .debug_aranges
                0x0000000000000000       0x48 build/tsb0//home/karl/node-apps/zoo/lammertb.libcrc/src/crcccitt.o
 .debug_ranges  0x0000000000000000       0x38 build/tsb0//home/karl/node-apps/zoo/lammertb.libcrc/src/crcccitt.o
 .debug_line    0x0000000000000000      0x299 build/tsb0//home/karl/node-apps/zoo/lammertb.libcrc/src/crcccitt.o
 .debug_str     0x0000000000000000      0x6a9 build/tsb0//home/karl/node-apps/zoo/lammertb.libcrc/src/crcccitt.o
 .comment       0x0000000000000000       0x5a build/tsb0//home/karl/node-apps/zoo/lammertb.libcrc/src/crcccitt.o
 .debug_frame   0x0000000000000000       0xec build/tsb0//home/karl/node-apps/zoo/lammertb.libcrc/src/crcccitt.o
 .ARM.attributes
                0x0000000000000000       0x32 build/tsb0//home/karl/node-apps/zoo/lammertb.libcrc/src/crcccitt.o
 .text          0x0000000000000000        0x0 build/tsb0//home/karl/SimplicityStudio_v5/developer/sdks/gecko_sdk_suite/v3.2/platform/Device/SiliconLabs/EFR32MG12P/Source/GCC/startup_efr32mg12p.o
 .data          0x0000000000000000        0x0 build/tsb0//home/karl/SimplicityStudio_v5/developer/sdks/gecko_sdk_suite/v3.2/platform/Device/SiliconLabs/EFR32MG12P/Source/GCC/startup_efr32mg12p.o
 .bss           0x0000000000000000        0x0 build/tsb0//home/karl/SimplicityStudio_v5/developer/sdks/gecko_sdk_suite/v3.2/platform/Device/SiliconLabs/EFR32MG12P/Source/GCC/startup_efr32mg12p.o
 .text          0x0000000000000000        0x0 build/tsb0//home/karl/SimplicityStudio_v5/developer/sdks/gecko_sdk_suite/v3.2/platform/Device/SiliconLabs/EFR32MG12P/Source/system_efr32mg12p.o
 .data          0x0000000000000000        0x0 build/tsb0//home/karl/SimplicityStudio_v5/developer/sdks/gecko_sdk_suite/v3.2/platform/Device/SiliconLabs/EFR32MG12P/Source/system_efr32mg12p.o
 .bss           0x0000000000000000        0x0 build/tsb0//home/karl/SimplicityStudio_v5/developer/sdks/gecko_sdk_suite/v3.2/platform/Device/SiliconLabs/EFR32MG12P/Source/system_efr32mg12p.o
 .text.SystemHFXOClockSet
                0x0000000000000000       0x30 build/tsb0//home/karl/SimplicityStudio_v5/developer/sdks/gecko_sdk_suite/v3.2/platform/Device/SiliconLabs/EFR32MG12P/Source/system_efr32mg12p.o
 .text.SystemLFXOClockSet
                0x0000000000000000       0x30 build/tsb0//home/karl/SimplicityStudio_v5/developer/sdks/gecko_sdk_suite/v3.2/platform/Device/SiliconLabs/EFR32MG12P/Source/system_efr32mg12p.o
 .text          0x0000000000000000        0x0 build/tsb0//home/karl/node-apps/zoo/thinnect.dev-platforms/make/boards/../../src/boards/tsb0/platform.o
 .data          0x0000000000000000        0x0 build/tsb0//home/karl/node-apps/zoo/thinnect.dev-platforms/make/boards/../../src/boards/tsb0/platform.o
 .bss           0x0000000000000000        0x0 build/tsb0//home/karl/node-apps/zoo/thinnect.dev-platforms/make/boards/../../src/boards/tsb0/platform.o
 .text.PLATFORM_RadioInit
                0x0000000000000000        0xe build/tsb0//home/karl/node-apps/zoo/thinnect.dev-platforms/make/boards/../../src/boards/tsb0/platform.o
 .text          0x0000000000000000        0x0 build/tsb0//home/karl/node-apps/zoo/thinnect.node-platform/silabs/platform_io.o
 .data          0x0000000000000000        0x0 build/tsb0//home/karl/node-apps/zoo/thinnect.node-platform/silabs/platform_io.o
 .bss           0x0000000000000000        0x0 build/tsb0//home/karl/node-apps/zoo/thinnect.node-platform/silabs/platform_io.o
 .text.BUS_RegMaskedSet
                0x0000000000000000       0x24 build/tsb0//home/karl/node-apps/zoo/thinnect.node-platform/silabs/platform_io.o
 .text.BUS_RegMaskedClear
                0x0000000000000000       0x24 build/tsb0//home/karl/node-apps/zoo/thinnect.node-platform/silabs/platform_io.o
 .text.GPIO_PinOutClear
                0x0000000000000000       0x78 build/tsb0//home/karl/node-apps/zoo/thinnect.node-platform/silabs/platform_io.o
 .text.GPIO_PinOutGet
                0x0000000000000000       0x72 build/tsb0//home/karl/node-apps/zoo/thinnect.node-platform/silabs/platform_io.o
 .text.GPIO_PinOutSet
                0x0000000000000000       0x78 build/tsb0//home/karl/node-apps/zoo/thinnect.node-platform/silabs/platform_io.o
 .text.GPIO_PinOutToggle
                0x0000000000000000       0x74 build/tsb0//home/karl/node-apps/zoo/thinnect.node-platform/silabs/platform_io.o
 .text.ledSet   0x0000000000000000       0x34 build/tsb0//home/karl/node-apps/zoo/thinnect.node-platform/silabs/platform_io.o
 .text.PLATFORM_LedsSet
                0x0000000000000000       0x72 build/tsb0//home/karl/node-apps/zoo/thinnect.node-platform/silabs/platform_io.o
 .text.ledGet   0x0000000000000000       0x22 build/tsb0//home/karl/node-apps/zoo/thinnect.node-platform/silabs/platform_io.o
 .text.PLATFORM_LedsGet
                0x0000000000000000       0x5a build/tsb0//home/karl/node-apps/zoo/thinnect.node-platform/silabs/platform_io.o
 .text.PLATFORM_GpioPinInit
                0x0000000000000000       0x44 build/tsb0//home/karl/node-apps/zoo/thinnect.node-platform/silabs/platform_io.o
 .text.PLATFORM_ClearGpioPin
                0x0000000000000000       0x64 build/tsb0//home/karl/node-apps/zoo/thinnect.node-platform/silabs/platform_io.o
 .text.PLATFORM_SetGpioPin
                0x0000000000000000       0x58 build/tsb0//home/karl/node-apps/zoo/thinnect.node-platform/silabs/platform_io.o
 .text.PLATFORM_GetGpioPin
                0x0000000000000000       0x8c build/tsb0//home/karl/node-apps/zoo/thinnect.node-platform/silabs/platform_io.o
 .text.PLATFORM_ToggleGpioPin
                0x0000000000000000       0x58 build/tsb0//home/karl/node-apps/zoo/thinnect.node-platform/silabs/platform_io.o
 .text.platform_io_error
                0x0000000000000000       0x16 build/tsb0//home/karl/node-apps/zoo/thinnect.node-platform/silabs/platform_io.o
 .data          0x0000000000000000        0x0 /usr/lib/gcc/arm-none-eabi/9.2.1/thumb/v7e-m+fp/softfp/libgcc.a(_aeabi_uldivmod.o)
 .bss           0x0000000000000000        0x0 /usr/lib/gcc/arm-none-eabi/9.2.1/thumb/v7e-m+fp/softfp/libgcc.a(_aeabi_uldivmod.o)
 .data          0x0000000000000000        0x0 /usr/lib/gcc/arm-none-eabi/9.2.1/thumb/v7e-m+fp/softfp/libgcc.a(_udivmoddi4.o)
 .bss           0x0000000000000000        0x0 /usr/lib/gcc/arm-none-eabi/9.2.1/thumb/v7e-m+fp/softfp/libgcc.a(_udivmoddi4.o)
 .ARM.extab     0x0000000000000000        0x0 /usr/lib/gcc/arm-none-eabi/9.2.1/thumb/v7e-m+fp/softfp/libgcc.a(_udivmoddi4.o)
 .data          0x0000000000000000        0x0 /usr/lib/gcc/arm-none-eabi/9.2.1/thumb/v7e-m+fp/softfp/libgcc.a(_dvmd_tls.o)
 .bss           0x0000000000000000        0x0 /usr/lib/gcc/arm-none-eabi/9.2.1/thumb/v7e-m+fp/softfp/libgcc.a(_dvmd_tls.o)
 .data          0x0000000000000000        0x0 /usr/lib/gcc/arm-none-eabi/9.2.1/../../../arm-none-eabi/lib/thumb/v7e-m+fp/softfp/libg.a(lib_a-fflush.o)
 .bss           0x0000000000000000        0x0 /usr/lib/gcc/arm-none-eabi/9.2.1/../../../arm-none-eabi/lib/thumb/v7e-m+fp/softfp/libg.a(lib_a-fflush.o)
 .data          0x0000000000000000        0x0 /usr/lib/gcc/arm-none-eabi/9.2.1/../../../arm-none-eabi/lib/thumb/v7e-m+fp/softfp/libg.a(lib_a-findfp.o)
 .bss           0x0000000000000000        0x0 /usr/lib/gcc/arm-none-eabi/9.2.1/../../../arm-none-eabi/lib/thumb/v7e-m+fp/softfp/libg.a(lib_a-findfp.o)
 .data          0x0000000000000000        0x0 /usr/lib/gcc/arm-none-eabi/9.2.1/../../../arm-none-eabi/lib/thumb/v7e-m+fp/softfp/libg.a(lib_a-freer.o)
 .bss           0x0000000000000000        0x0 /usr/lib/gcc/arm-none-eabi/9.2.1/../../../arm-none-eabi/lib/thumb/v7e-m+fp/softfp/libg.a(lib_a-freer.o)
 .data          0x0000000000000000        0x0 /usr/lib/gcc/arm-none-eabi/9.2.1/../../../arm-none-eabi/lib/thumb/v7e-m+fp/softfp/libg.a(lib_a-fwalk.o)
 .bss           0x0000000000000000        0x0 /usr/lib/gcc/arm-none-eabi/9.2.1/../../../arm-none-eabi/lib/thumb/v7e-m+fp/softfp/libg.a(lib_a-fwalk.o)
 .data          0x0000000000000000        0x0 /usr/lib/gcc/arm-none-eabi/9.2.1/../../../arm-none-eabi/lib/thumb/v7e-m+fp/softfp/libg.a(lib_a-fwrite.o)
 .bss           0x0000000000000000        0x0 /usr/lib/gcc/arm-none-eabi/9.2.1/../../../arm-none-eabi/lib/thumb/v7e-m+fp/softfp/libg.a(lib_a-fwrite.o)
 .text          0x0000000000000000        0x0 /usr/lib/gcc/arm-none-eabi/9.2.1/../../../arm-none-eabi/lib/thumb/v7e-m+fp/softfp/libg.a(lib_a-impure.o)
 .bss           0x0000000000000000        0x0 /usr/lib/gcc/arm-none-eabi/9.2.1/../../../arm-none-eabi/lib/thumb/v7e-m+fp/softfp/libg.a(lib_a-impure.o)
 .data          0x0000000000000000        0x0 /usr/lib/gcc/arm-none-eabi/9.2.1/../../../arm-none-eabi/lib/thumb/v7e-m+fp/softfp/libg.a(lib_a-memcpy.o)
 .bss           0x0000000000000000        0x0 /usr/lib/gcc/arm-none-eabi/9.2.1/../../../arm-none-eabi/lib/thumb/v7e-m+fp/softfp/libg.a(lib_a-memcpy.o)
 .data          0x0000000000000000        0x0 /usr/lib/gcc/arm-none-eabi/9.2.1/../../../arm-none-eabi/lib/thumb/v7e-m+fp/softfp/libg.a(lib_a-memset.o)
 .bss           0x0000000000000000        0x0 /usr/lib/gcc/arm-none-eabi/9.2.1/../../../arm-none-eabi/lib/thumb/v7e-m+fp/softfp/libg.a(lib_a-memset.o)
 .data          0x0000000000000000        0x0 /usr/lib/gcc/arm-none-eabi/9.2.1/../../../arm-none-eabi/lib/thumb/v7e-m+fp/softfp/libg.a(lib_a-mlock.o)
 .bss           0x0000000000000000        0x0 /usr/lib/gcc/arm-none-eabi/9.2.1/../../../arm-none-eabi/lib/thumb/v7e-m+fp/softfp/libg.a(lib_a-mlock.o)
 .data          0x0000000000000000        0x0 /usr/lib/gcc/arm-none-eabi/9.2.1/../../../arm-none-eabi/lib/thumb/v7e-m+fp/softfp/libg.a(lib_a-sbrkr.o)
 .bss           0x0000000000000000        0x0 /usr/lib/gcc/arm-none-eabi/9.2.1/../../../arm-none-eabi/lib/thumb/v7e-m+fp/softfp/libg.a(lib_a-sbrkr.o)
 .data          0x0000000000000000        0x0 /usr/lib/gcc/arm-none-eabi/9.2.1/../../../arm-none-eabi/lib/thumb/v7e-m+fp/softfp/libg.a(lib_a-setvbuf.o)
 .bss           0x0000000000000000        0x0 /usr/lib/gcc/arm-none-eabi/9.2.1/../../../arm-none-eabi/lib/thumb/v7e-m+fp/softfp/libg.a(lib_a-setvbuf.o)
 .data          0x0000000000000000        0x0 /usr/lib/gcc/arm-none-eabi/9.2.1/../../../arm-none-eabi/lib/thumb/v7e-m+fp/softfp/libg.a(lib_a-snprintf.o)
 .bss           0x0000000000000000        0x0 /usr/lib/gcc/arm-none-eabi/9.2.1/../../../arm-none-eabi/lib/thumb/v7e-m+fp/softfp/libg.a(lib_a-snprintf.o)
 .data          0x0000000000000000        0x0 /usr/lib/gcc/arm-none-eabi/9.2.1/../../../arm-none-eabi/lib/thumb/v7e-m+fp/softfp/libg.a(lib_a-stdio.o)
 .bss           0x0000000000000000        0x0 /usr/lib/gcc/arm-none-eabi/9.2.1/../../../arm-none-eabi/lib/thumb/v7e-m+fp/softfp/libg.a(lib_a-stdio.o)
 .data          0x0000000000000000        0x0 /usr/lib/gcc/arm-none-eabi/9.2.1/../../../arm-none-eabi/lib/thumb/v7e-m+fp/softfp/libg.a(lib_a-svfprintf.o)
 .bss           0x0000000000000000        0x0 /usr/lib/gcc/arm-none-eabi/9.2.1/../../../arm-none-eabi/lib/thumb/v7e-m+fp/softfp/libg.a(lib_a-svfprintf.o)
 .data          0x0000000000000000        0x0 /usr/lib/gcc/arm-none-eabi/9.2.1/../../../arm-none-eabi/lib/thumb/v7e-m+fp/softfp/libg.a(lib_a-vsnprintf.o)
 .bss           0x0000000000000000        0x0 /usr/lib/gcc/arm-none-eabi/9.2.1/../../../arm-none-eabi/lib/thumb/v7e-m+fp/softfp/libg.a(lib_a-vsnprintf.o)
 .data          0x0000000000000000        0x0 /usr/lib/gcc/arm-none-eabi/9.2.1/../../../arm-none-eabi/lib/thumb/v7e-m+fp/softfp/libg.a(lib_a-writer.o)
 .bss           0x0000000000000000        0x0 /usr/lib/gcc/arm-none-eabi/9.2.1/../../../arm-none-eabi/lib/thumb/v7e-m+fp/softfp/libg.a(lib_a-writer.o)
 .data          0x0000000000000000        0x0 /usr/lib/gcc/arm-none-eabi/9.2.1/../../../arm-none-eabi/lib/thumb/v7e-m+fp/softfp/libg.a(lib_a-closer.o)
 .bss           0x0000000000000000        0x0 /usr/lib/gcc/arm-none-eabi/9.2.1/../../../arm-none-eabi/lib/thumb/v7e-m+fp/softfp/libg.a(lib_a-closer.o)
 .data          0x0000000000000000        0x0 /usr/lib/gcc/arm-none-eabi/9.2.1/../../../arm-none-eabi/lib/thumb/v7e-m+fp/softfp/libg.a(lib_a-dtoa.o)
 .bss           0x0000000000000000        0x0 /usr/lib/gcc/arm-none-eabi/9.2.1/../../../arm-none-eabi/lib/thumb/v7e-m+fp/softfp/libg.a(lib_a-dtoa.o)
 .data          0x0000000000000000        0x0 /usr/lib/gcc/arm-none-eabi/9.2.1/../../../arm-none-eabi/lib/thumb/v7e-m+fp/softfp/libg.a(lib_a-fclose.o)
 .bss           0x0000000000000000        0x0 /usr/lib/gcc/arm-none-eabi/9.2.1/../../../arm-none-eabi/lib/thumb/v7e-m+fp/softfp/libg.a(lib_a-fclose.o)
 .data          0x0000000000000000        0x0 /usr/lib/gcc/arm-none-eabi/9.2.1/../../../arm-none-eabi/lib/thumb/v7e-m+fp/softfp/libg.a(lib_a-fvwrite.o)
 .bss           0x0000000000000000        0x0 /usr/lib/gcc/arm-none-eabi/9.2.1/../../../arm-none-eabi/lib/thumb/v7e-m+fp/softfp/libg.a(lib_a-fvwrite.o)
 .data          0x0000000000000000        0x0 /usr/lib/gcc/arm-none-eabi/9.2.1/../../../arm-none-eabi/lib/thumb/v7e-m+fp/softfp/libg.a(lib_a-localeconv.o)
 .bss           0x0000000000000000        0x0 /usr/lib/gcc/arm-none-eabi/9.2.1/../../../arm-none-eabi/lib/thumb/v7e-m+fp/softfp/libg.a(lib_a-localeconv.o)
 .data          0x0000000000000000        0x0 /usr/lib/gcc/arm-none-eabi/9.2.1/../../../arm-none-eabi/lib/thumb/v7e-m+fp/softfp/libg.a(lib_a-lseekr.o)
 .bss           0x0000000000000000        0x0 /usr/lib/gcc/arm-none-eabi/9.2.1/../../../arm-none-eabi/lib/thumb/v7e-m+fp/softfp/libg.a(lib_a-lseekr.o)
 .data          0x0000000000000000        0x0 /usr/lib/gcc/arm-none-eabi/9.2.1/../../../arm-none-eabi/lib/thumb/v7e-m+fp/softfp/libg.a(lib_a-makebuf.o)
 .bss           0x0000000000000000        0x0 /usr/lib/gcc/arm-none-eabi/9.2.1/../../../arm-none-eabi/lib/thumb/v7e-m+fp/softfp/libg.a(lib_a-makebuf.o)
 .data          0x0000000000000000        0x0 /usr/lib/gcc/arm-none-eabi/9.2.1/../../../arm-none-eabi/lib/thumb/v7e-m+fp/softfp/libg.a(lib_a-malloc.o)
 .bss           0x0000000000000000        0x0 /usr/lib/gcc/arm-none-eabi/9.2.1/../../../arm-none-eabi/lib/thumb/v7e-m+fp/softfp/libg.a(lib_a-malloc.o)
 .data          0x0000000000000000        0x0 /usr/lib/gcc/arm-none-eabi/9.2.1/../../../arm-none-eabi/lib/thumb/v7e-m+fp/softfp/libg.a(lib_a-memchr.o)
 .bss           0x0000000000000000        0x0 /usr/lib/gcc/arm-none-eabi/9.2.1/../../../arm-none-eabi/lib/thumb/v7e-m+fp/softfp/libg.a(lib_a-memchr.o)
 .data          0x0000000000000000        0x0 /usr/lib/gcc/arm-none-eabi/9.2.1/../../../arm-none-eabi/lib/thumb/v7e-m+fp/softfp/libg.a(lib_a-memmove.o)
 .bss           0x0000000000000000        0x0 /usr/lib/gcc/arm-none-eabi/9.2.1/../../../arm-none-eabi/lib/thumb/v7e-m+fp/softfp/libg.a(lib_a-memmove.o)
 .data          0x0000000000000000        0x0 /usr/lib/gcc/arm-none-eabi/9.2.1/../../../arm-none-eabi/lib/thumb/v7e-m+fp/softfp/libg.a(lib_a-mprec.o)
 .bss           0x0000000000000000        0x0 /usr/lib/gcc/arm-none-eabi/9.2.1/../../../arm-none-eabi/lib/thumb/v7e-m+fp/softfp/libg.a(lib_a-mprec.o)
 .data          0x0000000000000000        0x0 /usr/lib/gcc/arm-none-eabi/9.2.1/../../../arm-none-eabi/lib/thumb/v7e-m+fp/softfp/libg.a(lib_a-readr.o)
 .bss           0x0000000000000000        0x0 /usr/lib/gcc/arm-none-eabi/9.2.1/../../../arm-none-eabi/lib/thumb/v7e-m+fp/softfp/libg.a(lib_a-readr.o)
 .data          0x0000000000000000        0x0 /usr/lib/gcc/arm-none-eabi/9.2.1/../../../arm-none-eabi/lib/thumb/v7e-m+fp/softfp/libg.a(lib_a-reallocr.o)
 .bss           0x0000000000000000        0x0 /usr/lib/gcc/arm-none-eabi/9.2.1/../../../arm-none-eabi/lib/thumb/v7e-m+fp/softfp/libg.a(lib_a-reallocr.o)
 .text          0x0000000000000000       0xa4 /usr/lib/gcc/arm-none-eabi/9.2.1/../../../arm-none-eabi/lib/thumb/v7e-m+fp/softfp/libg.a(lib_a-reent.o)
 .data          0x0000000000000000        0x0 /usr/lib/gcc/arm-none-eabi/9.2.1/../../../arm-none-eabi/lib/thumb/v7e-m+fp/softfp/libg.a(lib_a-reent.o)
 .bss           0x0000000000000000        0x0 /usr/lib/gcc/arm-none-eabi/9.2.1/../../../arm-none-eabi/lib/thumb/v7e-m+fp/softfp/libg.a(lib_a-reent.o)
 .data          0x0000000000000000        0x0 /usr/lib/gcc/arm-none-eabi/9.2.1/../../../arm-none-eabi/lib/thumb/v7e-m+fp/softfp/libg.a(lib_a-strlen.o)
 .bss           0x0000000000000000        0x0 /usr/lib/gcc/arm-none-eabi/9.2.1/../../../arm-none-eabi/lib/thumb/v7e-m+fp/softfp/libg.a(lib_a-strlen.o)
 .data          0x0000000000000000        0x0 /usr/lib/gcc/arm-none-eabi/9.2.1/../../../arm-none-eabi/lib/thumb/v7e-m+fp/softfp/libg.a(lib_a-svfiprintf.o)
 .bss           0x0000000000000000        0x0 /usr/lib/gcc/arm-none-eabi/9.2.1/../../../arm-none-eabi/lib/thumb/v7e-m+fp/softfp/libg.a(lib_a-svfiprintf.o)
 .data          0x0000000000000000        0x0 /usr/lib/gcc/arm-none-eabi/9.2.1/../../../arm-none-eabi/lib/thumb/v7e-m+fp/softfp/libg.a(lib_a-wsetup.o)
 .bss           0x0000000000000000        0x0 /usr/lib/gcc/arm-none-eabi/9.2.1/../../../arm-none-eabi/lib/thumb/v7e-m+fp/softfp/libg.a(lib_a-wsetup.o)
 .data          0x0000000000000000        0x0 /usr/lib/gcc/arm-none-eabi/9.2.1/../../../arm-none-eabi/lib/thumb/v7e-m+fp/softfp/libg.a(lib_a-assert.o)
 .bss           0x0000000000000000        0x0 /usr/lib/gcc/arm-none-eabi/9.2.1/../../../arm-none-eabi/lib/thumb/v7e-m+fp/softfp/libg.a(lib_a-assert.o)
 .data          0x0000000000000000        0x0 /usr/lib/gcc/arm-none-eabi/9.2.1/../../../arm-none-eabi/lib/thumb/v7e-m+fp/softfp/libg.a(lib_a-callocr.o)
 .bss           0x0000000000000000        0x0 /usr/lib/gcc/arm-none-eabi/9.2.1/../../../arm-none-eabi/lib/thumb/v7e-m+fp/softfp/libg.a(lib_a-callocr.o)
 .data          0x0000000000000000        0x0 /usr/lib/gcc/arm-none-eabi/9.2.1/../../../arm-none-eabi/lib/thumb/v7e-m+fp/softfp/libg.a(lib_a-fiprintf.o)
 .bss           0x0000000000000000        0x0 /usr/lib/gcc/arm-none-eabi/9.2.1/../../../arm-none-eabi/lib/thumb/v7e-m+fp/softfp/libg.a(lib_a-fiprintf.o)
 .data          0x0000000000000000        0x0 /usr/lib/gcc/arm-none-eabi/9.2.1/../../../arm-none-eabi/lib/thumb/v7e-m+fp/softfp/libg.a(lib_a-fstatr.o)
 .bss           0x0000000000000000        0x0 /usr/lib/gcc/arm-none-eabi/9.2.1/../../../arm-none-eabi/lib/thumb/v7e-m+fp/softfp/libg.a(lib_a-fstatr.o)
 .data          0x0000000000000000        0x0 /usr/lib/gcc/arm-none-eabi/9.2.1/../../../arm-none-eabi/lib/thumb/v7e-m+fp/softfp/libg.a(lib_a-isattyr.o)
 .bss           0x0000000000000000        0x0 /usr/lib/gcc/arm-none-eabi/9.2.1/../../../arm-none-eabi/lib/thumb/v7e-m+fp/softfp/libg.a(lib_a-isattyr.o)
 .bss           0x0000000000000000        0x4 /usr/lib/gcc/arm-none-eabi/9.2.1/../../../arm-none-eabi/lib/thumb/v7e-m+fp/softfp/libg.a(lib_a-locale.o)
 .data          0x0000000000000000        0x0 /usr/lib/gcc/arm-none-eabi/9.2.1/../../../arm-none-eabi/lib/thumb/v7e-m+fp/softfp/libg.a(lib_a-mbtowc_r.o)
 .bss           0x0000000000000000        0x0 /usr/lib/gcc/arm-none-eabi/9.2.1/../../../arm-none-eabi/lib/thumb/v7e-m+fp/softfp/libg.a(lib_a-mbtowc_r.o)
 .data          0x0000000000000000        0x0 /usr/lib/gcc/arm-none-eabi/9.2.1/../../../arm-none-eabi/lib/thumb/v7e-m+fp/softfp/libg.a(lib_a-strcmp.o)
 .bss           0x0000000000000000        0x0 /usr/lib/gcc/arm-none-eabi/9.2.1/../../../arm-none-eabi/lib/thumb/v7e-m+fp/softfp/libg.a(lib_a-strcmp.o)
 .data          0x0000000000000000        0x0 /usr/lib/gcc/arm-none-eabi/9.2.1/../../../arm-none-eabi/lib/thumb/v7e-m+fp/softfp/libg.a(lib_a-vfiprintf.o)
 .bss           0x0000000000000000        0x0 /usr/lib/gcc/arm-none-eabi/9.2.1/../../../arm-none-eabi/lib/thumb/v7e-m+fp/softfp/libg.a(lib_a-vfiprintf.o)
 .data          0x0000000000000000        0x0 /usr/lib/gcc/arm-none-eabi/9.2.1/../../../arm-none-eabi/lib/thumb/v7e-m+fp/softfp/libg.a(lib_a-wctomb_r.o)
 .bss           0x0000000000000000        0x0 /usr/lib/gcc/arm-none-eabi/9.2.1/../../../arm-none-eabi/lib/thumb/v7e-m+fp/softfp/libg.a(lib_a-wctomb_r.o)
 .data          0x0000000000000000        0x0 /usr/lib/gcc/arm-none-eabi/9.2.1/../../../arm-none-eabi/lib/thumb/v7e-m+fp/softfp/libg.a(lib_a-abort.o)
 .bss           0x0000000000000000        0x0 /usr/lib/gcc/arm-none-eabi/9.2.1/../../../arm-none-eabi/lib/thumb/v7e-m+fp/softfp/libg.a(lib_a-abort.o)
 .text          0x0000000000000000        0x0 /usr/lib/gcc/arm-none-eabi/9.2.1/../../../arm-none-eabi/lib/thumb/v7e-m+fp/softfp/libg.a(lib_a-ctype_.o)
 .data          0x0000000000000000        0x0 /usr/lib/gcc/arm-none-eabi/9.2.1/../../../arm-none-eabi/lib/thumb/v7e-m+fp/softfp/libg.a(lib_a-ctype_.o)
 .bss           0x0000000000000000        0x0 /usr/lib/gcc/arm-none-eabi/9.2.1/../../../arm-none-eabi/lib/thumb/v7e-m+fp/softfp/libg.a(lib_a-ctype_.o)
 .data          0x0000000000000000        0x0 /usr/lib/gcc/arm-none-eabi/9.2.1/../../../arm-none-eabi/lib/thumb/v7e-m+fp/softfp/libg.a(lib_a-fputwc.o)
 .bss           0x0000000000000000        0x0 /usr/lib/gcc/arm-none-eabi/9.2.1/../../../arm-none-eabi/lib/thumb/v7e-m+fp/softfp/libg.a(lib_a-fputwc.o)
 .data          0x0000000000000000        0x0 /usr/lib/gcc/arm-none-eabi/9.2.1/../../../arm-none-eabi/lib/thumb/v7e-m+fp/softfp/libg.a(lib_a-signal.o)
 .bss           0x0000000000000000        0x0 /usr/lib/gcc/arm-none-eabi/9.2.1/../../../arm-none-eabi/lib/thumb/v7e-m+fp/softfp/libg.a(lib_a-signal.o)
 .data          0x0000000000000000        0x0 /usr/lib/gcc/arm-none-eabi/9.2.1/../../../arm-none-eabi/lib/thumb/v7e-m+fp/softfp/libg.a(lib_a-signalr.o)
 .bss           0x0000000000000000        0x0 /usr/lib/gcc/arm-none-eabi/9.2.1/../../../arm-none-eabi/lib/thumb/v7e-m+fp/softfp/libg.a(lib_a-signalr.o)
 .data          0x0000000000000000        0x0 /usr/lib/gcc/arm-none-eabi/9.2.1/../../../arm-none-eabi/lib/thumb/v7e-m+fp/softfp/libg.a(lib_a-wbuf.o)
 .bss           0x0000000000000000        0x0 /usr/lib/gcc/arm-none-eabi/9.2.1/../../../arm-none-eabi/lib/thumb/v7e-m+fp/softfp/libg.a(lib_a-wbuf.o)
 .data          0x0000000000000000        0x0 /usr/lib/gcc/arm-none-eabi/9.2.1/../../../arm-none-eabi/lib/thumb/v7e-m+fp/softfp/libg.a(lib_a-wcrtomb.o)
 .bss           0x0000000000000000        0x0 /usr/lib/gcc/arm-none-eabi/9.2.1/../../../arm-none-eabi/lib/thumb/v7e-m+fp/softfp/libg.a(lib_a-wcrtomb.o)
 .text          0x0000000000000000      0x254 /usr/lib/gcc/arm-none-eabi/9.2.1/thumb/v7e-m+fp/softfp/libgcc.a(_arm_muldf3.o)
 .data          0x0000000000000000        0x0 /usr/lib/gcc/arm-none-eabi/9.2.1/thumb/v7e-m+fp/softfp/libgcc.a(_arm_muldf3.o)
 .bss           0x0000000000000000        0x0 /usr/lib/gcc/arm-none-eabi/9.2.1/thumb/v7e-m+fp/softfp/libgcc.a(_arm_muldf3.o)
 .debug_line    0x0000000000000000      0x10c /usr/lib/gcc/arm-none-eabi/9.2.1/thumb/v7e-m+fp/softfp/libgcc.a(_arm_muldf3.o)
 .debug_info    0x0000000000000000       0x26 /usr/lib/gcc/arm-none-eabi/9.2.1/thumb/v7e-m+fp/softfp/libgcc.a(_arm_muldf3.o)
 .debug_abbrev  0x0000000000000000       0x14 /usr/lib/gcc/arm-none-eabi/9.2.1/thumb/v7e-m+fp/softfp/libgcc.a(_arm_muldf3.o)
 .debug_aranges
                0x0000000000000000       0x20 /usr/lib/gcc/arm-none-eabi/9.2.1/thumb/v7e-m+fp/softfp/libgcc.a(_arm_muldf3.o)
 .debug_str     0x0000000000000000       0xaa /usr/lib/gcc/arm-none-eabi/9.2.1/thumb/v7e-m+fp/softfp/libgcc.a(_arm_muldf3.o)
 .debug_frame   0x0000000000000000       0x30 /usr/lib/gcc/arm-none-eabi/9.2.1/thumb/v7e-m+fp/softfp/libgcc.a(_arm_muldf3.o)
 .ARM.attributes
                0x0000000000000000       0x1e /usr/lib/gcc/arm-none-eabi/9.2.1/thumb/v7e-m+fp/softfp/libgcc.a(_arm_muldf3.o)
 .data          0x0000000000000000        0x0 /usr/lib/gcc/arm-none-eabi/9.2.1/thumb/v7e-m+fp/softfp/libgcc.a(_arm_addsubdf3.o)
 .bss           0x0000000000000000        0x0 /usr/lib/gcc/arm-none-eabi/9.2.1/thumb/v7e-m+fp/softfp/libgcc.a(_arm_addsubdf3.o)
 .data          0x0000000000000000        0x0 /usr/lib/gcc/arm-none-eabi/9.2.1/thumb/v7e-m+fp/softfp/libgcc.a(_arm_muldivdf3.o)
 .bss           0x0000000000000000        0x0 /usr/lib/gcc/arm-none-eabi/9.2.1/thumb/v7e-m+fp/softfp/libgcc.a(_arm_muldivdf3.o)
 .data          0x0000000000000000        0x0 /usr/lib/gcc/arm-none-eabi/9.2.1/thumb/v7e-m+fp/softfp/libgcc.a(_arm_cmpdf2.o)
 .bss           0x0000000000000000        0x0 /usr/lib/gcc/arm-none-eabi/9.2.1/thumb/v7e-m+fp/softfp/libgcc.a(_arm_cmpdf2.o)
 .data          0x0000000000000000        0x0 /usr/lib/gcc/arm-none-eabi/9.2.1/thumb/v7e-m+fp/softfp/libgcc.a(_arm_unorddf2.o)
 .bss           0x0000000000000000        0x0 /usr/lib/gcc/arm-none-eabi/9.2.1/thumb/v7e-m+fp/softfp/libgcc.a(_arm_unorddf2.o)
 .data          0x0000000000000000        0x0 /usr/lib/gcc/arm-none-eabi/9.2.1/thumb/v7e-m+fp/softfp/libgcc.a(_arm_fixdfsi.o)
 .bss           0x0000000000000000        0x0 /usr/lib/gcc/arm-none-eabi/9.2.1/thumb/v7e-m+fp/softfp/libgcc.a(_arm_fixdfsi.o)
 .data          0x0000000000000000        0x0 /usr/lib/gcc/arm-none-eabi/9.2.1/../../../arm-none-eabi/lib/thumb/v7e-m+fp/softfp/libnosys.a(sbrk.o)

Memory Configuration

Name             Origin             Length             Attributes
FLASH            0x0000000000000000 0x0000000000100000 xr
RAM              0x0000000020000000 0x0000000000040000 xrw
*default*        0x0000000000000000 0xffffffffffffffff

Linker script and memory map

LOAD build/tsb0/blink_pwm_main.o
LOAD build/tsb0/timer_handler.o
LOAD build/tsb0//home/karl/node-apps/zoo/FreeRTOS-Kernel/portable/GCC/ARM_CM4F/port.o
LOAD build/tsb0//home/karl/node-apps/zoo/FreeRTOS-Kernel/portable/MemMang/heap_5.o
LOAD build/tsb0//home/karl/node-apps/zoo/FreeRTOS-Kernel/queue.o
LOAD build/tsb0//home/karl/node-apps/zoo/FreeRTOS-Kernel/croutine.o
LOAD build/tsb0//home/karl/node-apps/zoo/FreeRTOS-Kernel/list.o
LOAD build/tsb0//home/karl/node-apps/zoo/FreeRTOS-Kernel/stream_buffer.o
LOAD build/tsb0//home/karl/node-apps/zoo/FreeRTOS-Kernel/event_groups.o
LOAD build/tsb0//home/karl/node-apps/zoo/FreeRTOS-Kernel/tasks.o
LOAD build/tsb0//home/karl/node-apps/zoo/FreeRTOS-Kernel/timers.o
LOAD build/tsb0//home/karl/node-apps/zoo/thinnect.cmsis-freertos/CMSIS-FreeRTOS/CMSIS/RTOS2/FreeRTOS/Source/cmsis_os2.o
LOAD build/tsb0//home/karl/SimplicityStudio_v5/developer/sdks/gecko_sdk_suite/v3.2/hardware/kit/common/drivers/retargetserial.o
LOAD build/tsb0//home/karl/SimplicityStudio_v5/developer/sdks/gecko_sdk_suite/v3.2/hardware/kit/common/drivers/retargetio.o
LOAD build/tsb0//home/karl/SimplicityStudio_v5/developer/sdks/gecko_sdk_suite/v3.2/platform/emlib/src/em_system.o
LOAD build/tsb0//home/karl/SimplicityStudio_v5/developer/sdks/gecko_sdk_suite/v3.2/platform/emlib/src/em_core.o
LOAD build/tsb0//home/karl/SimplicityStudio_v5/developer/sdks/gecko_sdk_suite/v3.2/platform/emlib/src/em_emu.o
LOAD build/tsb0//home/karl/SimplicityStudio_v5/developer/sdks/gecko_sdk_suite/v3.2/platform/emlib/src/em_cmu.o
LOAD build/tsb0//home/karl/SimplicityStudio_v5/developer/sdks/gecko_sdk_suite/v3.2/platform/emlib/src/em_rmu.o
LOAD build/tsb0//home/karl/SimplicityStudio_v5/developer/sdks/gecko_sdk_suite/v3.2/platform/emlib/src/em_gpio.o
LOAD build/tsb0//home/karl/SimplicityStudio_v5/developer/sdks/gecko_sdk_suite/v3.2/platform/emlib/src/em_usart.o
LOAD build/tsb0//home/karl/SimplicityStudio_v5/developer/sdks/gecko_sdk_suite/v3.2/platform/emlib/src/em_msc.o
LOAD build/tsb0//home/karl/SimplicityStudio_v5/developer/sdks/gecko_sdk_suite/v3.2/platform/emlib/src/em_timer.o
LOAD build/tsb0//home/karl/node-apps/zoo/thinnect.node-platform/silabs/logger_fwrite.o
LOAD build/tsb0//home/karl/node-apps/zoo/thinnect.lll/logging/loggers_ext.o
LOAD build/tsb0//home/karl/node-apps/zoo/thinnect.device-signature/signature/DeviceSignature.o
LOAD build/tsb0//home/karl/node-apps/zoo/thinnect.device-signature/area/silabs/SignatureArea.o
LOAD build/tsb0//home/karl/node-apps/zoo/lammertb.libcrc/src/crcccitt.o
LOAD build/tsb0//home/karl/SimplicityStudio_v5/developer/sdks/gecko_sdk_suite/v3.2/platform/Device/SiliconLabs/EFR32MG12P/Source/GCC/startup_efr32mg12p.o
LOAD build/tsb0//home/karl/SimplicityStudio_v5/developer/sdks/gecko_sdk_suite/v3.2/platform/Device/SiliconLabs/EFR32MG12P/Source/system_efr32mg12p.o
LOAD build/tsb0//home/karl/node-apps/zoo/thinnect.dev-platforms/make/boards/../../src/boards/tsb0/platform.o
LOAD build/tsb0//home/karl/node-apps/zoo/thinnect.node-platform/silabs/platform_io.o
LOAD /usr/lib/gcc/arm-none-eabi/9.2.1/thumb/v7e-m+fp/softfp/libgcc.a
LOAD /usr/lib/gcc/arm-none-eabi/9.2.1/../../../arm-none-eabi/lib/thumb/v7e-m+fp/softfp/libm.a
LOAD /home/karl/SimplicityStudio_v5/developer/sdks/gecko_sdk_suite/v3.2/platform/CMSIS/Lib/GCC/libarm_cortexM4lf_math.a
LOAD /home/karl/SimplicityStudio_v5/developer/sdks/gecko_sdk_suite/v3.2/platform/radio/rail_lib/autogen/librail_release/librail_efr32xg12_gcc_release.a

.text           0x0000000000000000     0xe6ad
 *(.vectors)
 .vectors       0x0000000000000000      0x10c build/tsb0//home/karl/SimplicityStudio_v5/developer/sdks/gecko_sdk_suite/v3.2/platform/Device/SiliconLabs/EFR32MG12P/Source/GCC/startup_efr32mg12p.o
                0x0000000000000000                __Vectors
                0x000000000000010c                __Vectors_End = .
                0x000000000000010c                __Vectors_Size = (__Vectors_End - __Vectors)
                0x000000002000c5d0                __end__ = .
 *(.text*)
 .text.led0_timer_cb
                0x000000000000010c       0x54 build/tsb0/blink_pwm_main.o
 .text.led1_timer_cb
                0x0000000000000160       0x54 build/tsb0/blink_pwm_main.o
 .text.led2_timer_cb
                0x00000000000001b4       0x54 build/tsb0/blink_pwm_main.o
 .text.app_loop
                0x0000000000000208       0xf4 build/tsb0/blink_pwm_main.o
                0x0000000000000208                app_loop
 .text.dimmer_loop
                0x00000000000002fc       0x10 build/tsb0/blink_pwm_main.o
                0x00000000000002fc                dimmer_loop
 .text.logger_fwrite_boot
                0x000000000000030c       0x34 build/tsb0/blink_pwm_main.o
                0x000000000000030c                logger_fwrite_boot
 .text.main     0x0000000000000340       0xd4 build/tsb0/blink_pwm_main.o
                0x0000000000000340                main
 .text.TIMER_Valid
                0x0000000000000414       0x50 build/tsb0/timer_handler.o
 .text.TIMER_MaxCount
                0x0000000000000464       0x38 build/tsb0/timer_handler.o
 .text.TIMER_CompareBufSet
                0x000000000000049c       0x28 build/tsb0/timer_handler.o
 .text.TIMER_Enable
                0x00000000000004c4       0x2e build/tsb0/timer_handler.o
 .text.TIMER_IntClear
                0x00000000000004f2       0x1c build/tsb0/timer_handler.o
 .text.TIMER_IntEnable
                0x000000000000050e       0x22 build/tsb0/timer_handler.o
 .text.TIMER_IntGet
                0x0000000000000530       0x18 build/tsb0/timer_handler.o
 .text.TIMER_TopSet
                0x0000000000000548       0x1e build/tsb0/timer_handler.o
 *fill*         0x0000000000000566        0x2 
 .text.timer1_init
                0x0000000000000568       0x60 build/tsb0/timer_handler.o
                0x0000000000000568                timer1_init
 .text.timer0_cc_init
                0x00000000000005c8       0xf8 build/tsb0/timer_handler.o
                0x00000000000005c8                timer0_cc_init
 .text.start_fading_leds_loop
                0x00000000000006c0       0x48 build/tsb0/timer_handler.o
                0x00000000000006c0                start_fading_leds_loop
 .text.set_leds_pwm
                0x0000000000000708       0x74 build/tsb0/timer_handler.o
                0x0000000000000708                set_leds_pwm
 .text.get_leds_pwm
                0x000000000000077c       0x18 build/tsb0/timer_handler.o
                0x000000000000077c                get_leds_pwm
 .text.change_pwm_dutycycle
                0x0000000000000794      0x168 build/tsb0/timer_handler.o
 .text.pxPortInitialiseStack
                0x00000000000008fc       0x68 build/tsb0//home/karl/node-apps/zoo/FreeRTOS-Kernel/portable/GCC/ARM_CM4F/port.o
                0x00000000000008fc                pxPortInitialiseStack
 .text.prvTaskExitError
                0x0000000000000964       0x48 build/tsb0//home/karl/node-apps/zoo/FreeRTOS-Kernel/portable/GCC/ARM_CM4F/port.o
 *fill*         0x00000000000009ac        0x4 
 .text.SVC_Handler
                0x00000000000009b0       0x28 build/tsb0//home/karl/node-apps/zoo/FreeRTOS-Kernel/portable/GCC/ARM_CM4F/port.o
                0x00000000000009b0                SVC_Handler
 .text.prvPortStartFirstTask
                0x00000000000009d8       0x28 build/tsb0//home/karl/node-apps/zoo/FreeRTOS-Kernel/portable/GCC/ARM_CM4F/port.o
 .text.xPortStartScheduler
                0x0000000000000a00      0x10c build/tsb0//home/karl/node-apps/zoo/FreeRTOS-Kernel/portable/GCC/ARM_CM4F/port.o
                0x0000000000000a00                xPortStartScheduler
 .text.vPortEnterCritical
                0x0000000000000b0c       0x50 build/tsb0//home/karl/node-apps/zoo/FreeRTOS-Kernel/portable/GCC/ARM_CM4F/port.o
                0x0000000000000b0c                vPortEnterCritical
 .text.vPortExitCritical
                0x0000000000000b5c       0x40 build/tsb0//home/karl/node-apps/zoo/FreeRTOS-Kernel/portable/GCC/ARM_CM4F/port.o
                0x0000000000000b5c                vPortExitCritical
 *fill*         0x0000000000000b9c        0x4 
 .text.PendSV_Handler
                0x0000000000000ba0       0x68 build/tsb0//home/karl/node-apps/zoo/FreeRTOS-Kernel/portable/GCC/ARM_CM4F/port.o
                0x0000000000000ba0                PendSV_Handler
 .text.xPortSysTickHandler
                0x0000000000000c08       0x44 build/tsb0//home/karl/node-apps/zoo/FreeRTOS-Kernel/portable/GCC/ARM_CM4F/port.o
                0x0000000000000c08                xPortSysTickHandler
 .text.vPortSetupTimerInterrupt
                0x0000000000000c4c       0x48 build/tsb0//home/karl/node-apps/zoo/FreeRTOS-Kernel/portable/GCC/ARM_CM4F/port.o
                0x0000000000000c4c                vPortSetupTimerInterrupt
 .text.vPortEnableVFP
                0x0000000000000c94       0x14 build/tsb0//home/karl/node-apps/zoo/FreeRTOS-Kernel/portable/GCC/ARM_CM4F/port.o
 .text.vPortValidateInterruptPriority
                0x0000000000000ca8       0x5c build/tsb0//home/karl/node-apps/zoo/FreeRTOS-Kernel/portable/GCC/ARM_CM4F/port.o
                0x0000000000000ca8                vPortValidateInterruptPriority
 .text.pvPortMalloc
                0x0000000000000d04      0x134 build/tsb0//home/karl/node-apps/zoo/FreeRTOS-Kernel/portable/MemMang/heap_5.o
                0x0000000000000d04                pvPortMalloc
 .text.vPortFree
                0x0000000000000e38       0xa0 build/tsb0//home/karl/node-apps/zoo/FreeRTOS-Kernel/portable/MemMang/heap_5.o
                0x0000000000000e38                vPortFree
 .text.prvInsertBlockIntoFreeList
                0x0000000000000ed8       0xb4 build/tsb0//home/karl/node-apps/zoo/FreeRTOS-Kernel/portable/MemMang/heap_5.o
 .text.vPortDefineHeapRegions
                0x0000000000000f8c      0x14c build/tsb0//home/karl/node-apps/zoo/FreeRTOS-Kernel/portable/MemMang/heap_5.o
                0x0000000000000f8c                vPortDefineHeapRegions
 .text.xQueueGenericReset
                0x00000000000010d8       0xc0 build/tsb0//home/karl/node-apps/zoo/FreeRTOS-Kernel/queue.o
                0x00000000000010d8                xQueueGenericReset
 .text.xQueueGenericCreateStatic
                0x0000000000001198       0x96 build/tsb0//home/karl/node-apps/zoo/FreeRTOS-Kernel/queue.o
                0x0000000000001198                xQueueGenericCreateStatic
 .text.xQueueGenericCreate
                0x000000000000122e       0x62 build/tsb0//home/karl/node-apps/zoo/FreeRTOS-Kernel/queue.o
                0x000000000000122e                xQueueGenericCreate
 .text.prvInitialiseNewQueue
                0x0000000000001290       0x46 build/tsb0//home/karl/node-apps/zoo/FreeRTOS-Kernel/queue.o
 .text.prvInitialiseMutex
                0x00000000000012d6       0x34 build/tsb0//home/karl/node-apps/zoo/FreeRTOS-Kernel/queue.o
 .text.xQueueCreateMutex
                0x000000000000130a       0x30 build/tsb0//home/karl/node-apps/zoo/FreeRTOS-Kernel/queue.o
                0x000000000000130a                xQueueCreateMutex
 .text.xQueueCreateMutexStatic
                0x000000000000133a       0x36 build/tsb0//home/karl/node-apps/zoo/FreeRTOS-Kernel/queue.o
                0x000000000000133a                xQueueCreateMutexStatic
 .text.xQueueGiveMutexRecursive
                0x0000000000001370       0x56 build/tsb0//home/karl/node-apps/zoo/FreeRTOS-Kernel/queue.o
                0x0000000000001370                xQueueGiveMutexRecursive
 .text.xQueueTakeMutexRecursive
                0x00000000000013c6       0x5a build/tsb0//home/karl/node-apps/zoo/FreeRTOS-Kernel/queue.o
                0x00000000000013c6                xQueueTakeMutexRecursive
 .text.xQueueGenericSend
                0x0000000000001420      0x1b4 build/tsb0//home/karl/node-apps/zoo/FreeRTOS-Kernel/queue.o
                0x0000000000001420                xQueueGenericSend
 .text.xQueueGenericSendFromISR
                0x00000000000015d4      0x100 build/tsb0//home/karl/node-apps/zoo/FreeRTOS-Kernel/queue.o
                0x00000000000015d4                xQueueGenericSendFromISR
 .text.xQueueReceive
                0x00000000000016d4      0x188 build/tsb0//home/karl/node-apps/zoo/FreeRTOS-Kernel/queue.o
                0x00000000000016d4                xQueueReceive
 .text.xQueueSemaphoreTake
                0x000000000000185c      0x1d0 build/tsb0//home/karl/node-apps/zoo/FreeRTOS-Kernel/queue.o
                0x000000000000185c                xQueueSemaphoreTake
 .text.prvGetDisinheritPriorityAfterTimeout
                0x0000000000001a2c       0x30 build/tsb0//home/karl/node-apps/zoo/FreeRTOS-Kernel/queue.o
 .text.prvCopyDataToQueue
                0x0000000000001a5c       0xd4 build/tsb0//home/karl/node-apps/zoo/FreeRTOS-Kernel/queue.o
 .text.prvCopyDataFromQueue
                0x0000000000001b30       0x4c build/tsb0//home/karl/node-apps/zoo/FreeRTOS-Kernel/queue.o
 .text.prvUnlockQueue
                0x0000000000001b7c       0xa4 build/tsb0//home/karl/node-apps/zoo/FreeRTOS-Kernel/queue.o
 .text.prvIsQueueEmpty
                0x0000000000001c20       0x2c build/tsb0//home/karl/node-apps/zoo/FreeRTOS-Kernel/queue.o
 .text.prvIsQueueFull
                0x0000000000001c4c       0x30 build/tsb0//home/karl/node-apps/zoo/FreeRTOS-Kernel/queue.o
 .text.vQueueWaitForMessageRestricted
                0x0000000000001c7c       0x68 build/tsb0//home/karl/node-apps/zoo/FreeRTOS-Kernel/queue.o
                0x0000000000001c7c                vQueueWaitForMessageRestricted
 .text.vListInitialise
                0x0000000000001ce4       0x40 build/tsb0//home/karl/node-apps/zoo/FreeRTOS-Kernel/list.o
                0x0000000000001ce4                vListInitialise
 .text.vListInitialiseItem
                0x0000000000001d24       0x1a build/tsb0//home/karl/node-apps/zoo/FreeRTOS-Kernel/list.o
                0x0000000000001d24                vListInitialiseItem
 .text.vListInsertEnd
                0x0000000000001d3e       0x48 build/tsb0//home/karl/node-apps/zoo/FreeRTOS-Kernel/list.o
                0x0000000000001d3e                vListInsertEnd
 .text.vListInsert
                0x0000000000001d86       0x72 build/tsb0//home/karl/node-apps/zoo/FreeRTOS-Kernel/list.o
                0x0000000000001d86                vListInsert
 .text.uxListRemove
                0x0000000000001df8       0x54 build/tsb0//home/karl/node-apps/zoo/FreeRTOS-Kernel/list.o
                0x0000000000001df8                uxListRemove
 .text.xTaskCreateStatic
                0x0000000000001e4c       0x84 build/tsb0//home/karl/node-apps/zoo/FreeRTOS-Kernel/tasks.o
                0x0000000000001e4c                xTaskCreateStatic
 .text.xTaskCreate
                0x0000000000001ed0       0x8a build/tsb0//home/karl/node-apps/zoo/FreeRTOS-Kernel/tasks.o
                0x0000000000001ed0                xTaskCreate
 .text.prvInitialiseNewTask
                0x0000000000001f5a      0x112 build/tsb0//home/karl/node-apps/zoo/FreeRTOS-Kernel/tasks.o
 .text.prvAddNewTaskToReadyList
                0x000000000000206c       0xe0 build/tsb0//home/karl/node-apps/zoo/FreeRTOS-Kernel/tasks.o
 .text.vTaskDelay
                0x000000000000214c       0x58 build/tsb0//home/karl/node-apps/zoo/FreeRTOS-Kernel/tasks.o
                0x000000000000214c                vTaskDelay
 .text.vTaskStartScheduler
                0x00000000000021a4       0xbc build/tsb0//home/karl/node-apps/zoo/FreeRTOS-Kernel/tasks.o
                0x00000000000021a4                vTaskStartScheduler
 .text.vTaskSuspendAll
                0x0000000000002260       0x1c build/tsb0//home/karl/node-apps/zoo/FreeRTOS-Kernel/tasks.o
                0x0000000000002260                vTaskSuspendAll
 .text.xTaskResumeAll
                0x000000000000227c      0x128 build/tsb0//home/karl/node-apps/zoo/FreeRTOS-Kernel/tasks.o
                0x000000000000227c                xTaskResumeAll
 .text.xTaskGetTickCount
                0x00000000000023a4       0x20 build/tsb0//home/karl/node-apps/zoo/FreeRTOS-Kernel/tasks.o
                0x00000000000023a4                xTaskGetTickCount
 .text.xTaskIncrementTick
                0x00000000000023c4      0x160 build/tsb0//home/karl/node-apps/zoo/FreeRTOS-Kernel/tasks.o
                0x00000000000023c4                xTaskIncrementTick
 .text.vTaskSwitchContext
                0x0000000000002524       0xf4 build/tsb0//home/karl/node-apps/zoo/FreeRTOS-Kernel/tasks.o
                0x0000000000002524                vTaskSwitchContext
 .text.vTaskPlaceOnEventList
                0x0000000000002618       0x38 build/tsb0//home/karl/node-apps/zoo/FreeRTOS-Kernel/tasks.o
                0x0000000000002618                vTaskPlaceOnEventList
 .text.vTaskPlaceOnEventListRestricted
                0x0000000000002650       0x44 build/tsb0//home/karl/node-apps/zoo/FreeRTOS-Kernel/tasks.o
                0x0000000000002650                vTaskPlaceOnEventListRestricted
 .text.xTaskRemoveFromEventList
                0x0000000000002694       0xb4 build/tsb0//home/karl/node-apps/zoo/FreeRTOS-Kernel/tasks.o
                0x0000000000002694                xTaskRemoveFromEventList
 .text.vTaskInternalSetTimeOutState
                0x0000000000002748       0x2c build/tsb0//home/karl/node-apps/zoo/FreeRTOS-Kernel/tasks.o
                0x0000000000002748                vTaskInternalSetTimeOutState
 .text.xTaskCheckForTimeOut
                0x0000000000002774       0xa0 build/tsb0//home/karl/node-apps/zoo/FreeRTOS-Kernel/tasks.o
                0x0000000000002774                xTaskCheckForTimeOut
 .text.vTaskMissedYield
                0x0000000000002814       0x18 build/tsb0//home/karl/node-apps/zoo/FreeRTOS-Kernel/tasks.o
                0x0000000000002814                vTaskMissedYield
 .text.prvIdleTask
                0x000000000000282c       0x30 build/tsb0//home/karl/node-apps/zoo/FreeRTOS-Kernel/tasks.o
 .text.prvInitialiseTaskLists
                0x000000000000285c       0x80 build/tsb0//home/karl/node-apps/zoo/FreeRTOS-Kernel/tasks.o
 .text.prvCheckTasksWaitingTermination
                0x00000000000028dc       0x5c build/tsb0//home/karl/node-apps/zoo/FreeRTOS-Kernel/tasks.o
 .text.prvDeleteTCB
                0x0000000000002938       0x4c build/tsb0//home/karl/node-apps/zoo/FreeRTOS-Kernel/tasks.o
 .text.prvResetNextTaskUnblockTime
                0x0000000000002984       0x40 build/tsb0//home/karl/node-apps/zoo/FreeRTOS-Kernel/tasks.o
 .text.xTaskGetCurrentTaskHandle
                0x00000000000029c4       0x20 build/tsb0//home/karl/node-apps/zoo/FreeRTOS-Kernel/tasks.o
                0x00000000000029c4                xTaskGetCurrentTaskHandle
 .text.xTaskGetSchedulerState
                0x00000000000029e4       0x3c build/tsb0//home/karl/node-apps/zoo/FreeRTOS-Kernel/tasks.o
                0x00000000000029e4                xTaskGetSchedulerState
 .text.xTaskPriorityInherit
                0x0000000000002a20       0xd0 build/tsb0//home/karl/node-apps/zoo/FreeRTOS-Kernel/tasks.o
                0x0000000000002a20                xTaskPriorityInherit
 .text.xTaskPriorityDisinherit
                0x0000000000002af0       0xb8 build/tsb0//home/karl/node-apps/zoo/FreeRTOS-Kernel/tasks.o
                0x0000000000002af0                xTaskPriorityDisinherit
 .text.vTaskPriorityDisinheritAfterTimeout
                0x0000000000002ba8       0xe0 build/tsb0//home/karl/node-apps/zoo/FreeRTOS-Kernel/tasks.o
                0x0000000000002ba8                vTaskPriorityDisinheritAfterTimeout
 .text.pvTaskIncrementMutexHeldCount
                0x0000000000002c88       0x28 build/tsb0//home/karl/node-apps/zoo/FreeRTOS-Kernel/tasks.o
                0x0000000000002c88                pvTaskIncrementMutexHeldCount
 .text.prvAddCurrentTaskToDelayedList
                0x0000000000002cb0       0xa8 build/tsb0//home/karl/node-apps/zoo/FreeRTOS-Kernel/tasks.o
 .text.xTimerCreateTimerTask
                0x0000000000002d58       0x7c build/tsb0//home/karl/node-apps/zoo/FreeRTOS-Kernel/timers.o
                0x0000000000002d58                xTimerCreateTimerTask
 .text.xTimerCreate
                0x0000000000002dd4       0x42 build/tsb0//home/karl/node-apps/zoo/FreeRTOS-Kernel/timers.o
                0x0000000000002dd4                xTimerCreate
 .text.xTimerCreateStatic
                0x0000000000002e16       0x58 build/tsb0//home/karl/node-apps/zoo/FreeRTOS-Kernel/timers.o
                0x0000000000002e16                xTimerCreateStatic
 .text.prvInitialiseNewTimer
                0x0000000000002e6e       0x64 build/tsb0//home/karl/node-apps/zoo/FreeRTOS-Kernel/timers.o
 *fill*         0x0000000000002ed2        0x2 
 .text.xTimerGenericCommand
                0x0000000000002ed4       0x88 build/tsb0//home/karl/node-apps/zoo/FreeRTOS-Kernel/timers.o
                0x0000000000002ed4                xTimerGenericCommand
 .text.prvProcessExpiredTimer
                0x0000000000002f5c       0x88 build/tsb0//home/karl/node-apps/zoo/FreeRTOS-Kernel/timers.o
 .text.prvTimerTask
                0x0000000000002fe4       0x24 build/tsb0//home/karl/node-apps/zoo/FreeRTOS-Kernel/timers.o
 .text.prvProcessTimerOrBlockTask
                0x0000000000003008       0x9c build/tsb0//home/karl/node-apps/zoo/FreeRTOS-Kernel/timers.o
 .text.prvGetNextExpireTime
                0x00000000000030a4       0x48 build/tsb0//home/karl/node-apps/zoo/FreeRTOS-Kernel/timers.o
 .text.prvSampleTimeNow
                0x00000000000030ec       0x40 build/tsb0//home/karl/node-apps/zoo/FreeRTOS-Kernel/timers.o
 .text.prvInsertTimerInActiveList
                0x000000000000312c       0x84 build/tsb0//home/karl/node-apps/zoo/FreeRTOS-Kernel/timers.o
 .text.prvProcessReceivedCommands
                0x00000000000031b0      0x190 build/tsb0//home/karl/node-apps/zoo/FreeRTOS-Kernel/timers.o
 .text.prvSwitchTimerLists
                0x0000000000003340       0xb8 build/tsb0//home/karl/node-apps/zoo/FreeRTOS-Kernel/timers.o
 .text.prvCheckForValidListAndQueue
                0x00000000000033f8       0x68 build/tsb0//home/karl/node-apps/zoo/FreeRTOS-Kernel/timers.o
 .text.pvTimerGetTimerID
                0x0000000000003460       0x2e build/tsb0//home/karl/node-apps/zoo/FreeRTOS-Kernel/timers.o
                0x0000000000003460                pvTimerGetTimerID
 *fill*         0x000000000000348e        0x2 
 .text.__NVIC_SetPriority
                0x0000000000003490       0x54 build/tsb0//home/karl/node-apps/zoo/thinnect.cmsis-freertos/CMSIS-FreeRTOS/CMSIS/RTOS2/FreeRTOS/Source/cmsis_os2.o
 .text.SysTick_Handler
                0x00000000000034e4       0x20 build/tsb0//home/karl/node-apps/zoo/thinnect.cmsis-freertos/CMSIS-FreeRTOS/CMSIS/RTOS2/FreeRTOS/Source/cmsis_os2.o
                0x00000000000034e4                SysTick_Handler
 .text.SVC_Setup
                0x0000000000003504       0x12 build/tsb0//home/karl/node-apps/zoo/thinnect.cmsis-freertos/CMSIS-FreeRTOS/CMSIS/RTOS2/FreeRTOS/Source/cmsis_os2.o
 *fill*         0x0000000000003516        0x2 
 .text.osKernelInitialize
                0x0000000000003518       0x6c build/tsb0//home/karl/node-apps/zoo/thinnect.cmsis-freertos/CMSIS-FreeRTOS/CMSIS/RTOS2/FreeRTOS/Source/cmsis_os2.o
                0x0000000000003518                osKernelInitialize
 .text.osKernelGetState
                0x0000000000003584       0x44 build/tsb0//home/karl/node-apps/zoo/thinnect.cmsis-freertos/CMSIS-FreeRTOS/CMSIS/RTOS2/FreeRTOS/Source/cmsis_os2.o
                0x0000000000003584                osKernelGetState
 .text.osKernelStart
                0x00000000000035c8       0x6c build/tsb0//home/karl/node-apps/zoo/thinnect.cmsis-freertos/CMSIS-FreeRTOS/CMSIS/RTOS2/FreeRTOS/Source/cmsis_os2.o
                0x00000000000035c8                osKernelStart
 .text.osThreadNew
                0x0000000000003634      0x14c build/tsb0//home/karl/node-apps/zoo/thinnect.cmsis-freertos/CMSIS-FreeRTOS/CMSIS/RTOS2/FreeRTOS/Source/cmsis_os2.o
                0x0000000000003634                osThreadNew
 .text.osDelay  0x0000000000003780       0x5c build/tsb0//home/karl/node-apps/zoo/thinnect.cmsis-freertos/CMSIS-FreeRTOS/CMSIS/RTOS2/FreeRTOS/Source/cmsis_os2.o
                0x0000000000003780                osDelay
 .text.TimerCallback
                0x00000000000037dc       0x2a build/tsb0//home/karl/node-apps/zoo/thinnect.cmsis-freertos/CMSIS-FreeRTOS/CMSIS/RTOS2/FreeRTOS/Source/cmsis_os2.o
 *fill*         0x0000000000003806        0x2 
 .text.osTimerNew
                0x0000000000003808      0x108 build/tsb0//home/karl/node-apps/zoo/thinnect.cmsis-freertos/CMSIS-FreeRTOS/CMSIS/RTOS2/FreeRTOS/Source/cmsis_os2.o
                0x0000000000003808                osTimerNew
 .text.osTimerStart
                0x0000000000003910       0x80 build/tsb0//home/karl/node-apps/zoo/thinnect.cmsis-freertos/CMSIS-FreeRTOS/CMSIS/RTOS2/FreeRTOS/Source/cmsis_os2.o
                0x0000000000003910                osTimerStart
 .text.osMutexNew
                0x0000000000003990      0x110 build/tsb0//home/karl/node-apps/zoo/thinnect.cmsis-freertos/CMSIS-FreeRTOS/CMSIS/RTOS2/FreeRTOS/Source/cmsis_os2.o
                0x0000000000003990                osMutexNew
 .text.osMutexAcquire
                0x0000000000003aa0       0xbc build/tsb0//home/karl/node-apps/zoo/thinnect.cmsis-freertos/CMSIS-FreeRTOS/CMSIS/RTOS2/FreeRTOS/Source/cmsis_os2.o
                0x0000000000003aa0                osMutexAcquire
 .text.osMutexRelease
                0x0000000000003b5c       0xa0 build/tsb0//home/karl/node-apps/zoo/thinnect.cmsis-freertos/CMSIS-FreeRTOS/CMSIS/RTOS2/FreeRTOS/Source/cmsis_os2.o
                0x0000000000003b5c                osMutexRelease
 .text.vApplicationStackOverflowHook
                0x0000000000003bfc        0xe build/tsb0//home/karl/node-apps/zoo/thinnect.cmsis-freertos/CMSIS-FreeRTOS/CMSIS/RTOS2/FreeRTOS/Source/cmsis_os2.o
                0x0000000000003bfc                vApplicationStackOverflowHook
 *fill*         0x0000000000003c0a        0x2 
 .text.vApplicationGetIdleTaskMemory
                0x0000000000003c0c       0x34 build/tsb0//home/karl/node-apps/zoo/thinnect.cmsis-freertos/CMSIS-FreeRTOS/CMSIS/RTOS2/FreeRTOS/Source/cmsis_os2.o
                0x0000000000003c0c                vApplicationGetIdleTaskMemory
 .text.vApplicationGetTimerTaskMemory
                0x0000000000003c40       0x34 build/tsb0//home/karl/node-apps/zoo/thinnect.cmsis-freertos/CMSIS-FreeRTOS/CMSIS/RTOS2/FreeRTOS/Source/cmsis_os2.o
                0x0000000000003c40                vApplicationGetTimerTaskMemory
 .text.__NVIC_EnableIRQ
                0x0000000000003c74       0x3c build/tsb0//home/karl/SimplicityStudio_v5/developer/sdks/gecko_sdk_suite/v3.2/hardware/kit/common/drivers/retargetserial.o
 .text.__NVIC_ClearPendingIRQ
                0x0000000000003cb0       0x3c build/tsb0//home/karl/SimplicityStudio_v5/developer/sdks/gecko_sdk_suite/v3.2/hardware/kit/common/drivers/retargetserial.o
 .text.USART_IntClear
                0x0000000000003cec       0x1c build/tsb0//home/karl/SimplicityStudio_v5/developer/sdks/gecko_sdk_suite/v3.2/hardware/kit/common/drivers/retargetserial.o
 .text.USART_IntDisable
                0x0000000000003d08       0x24 build/tsb0//home/karl/SimplicityStudio_v5/developer/sdks/gecko_sdk_suite/v3.2/hardware/kit/common/drivers/retargetserial.o
 .text.USART_IntEnable
                0x0000000000003d2c       0x22 build/tsb0//home/karl/SimplicityStudio_v5/developer/sdks/gecko_sdk_suite/v3.2/hardware/kit/common/drivers/retargetserial.o
 *fill*         0x0000000000003d4e        0x2 
 .text.disableRxInterrupt
                0x0000000000003d50       0x14 build/tsb0//home/karl/SimplicityStudio_v5/developer/sdks/gecko_sdk_suite/v3.2/hardware/kit/common/drivers/retargetserial.o
 .text.enableRxInterrupt
                0x0000000000003d64       0x14 build/tsb0//home/karl/SimplicityStudio_v5/developer/sdks/gecko_sdk_suite/v3.2/hardware/kit/common/drivers/retargetserial.o
 .text.USART0_RX_IRQHandler
                0x0000000000003d78       0x68 build/tsb0//home/karl/SimplicityStudio_v5/developer/sdks/gecko_sdk_suite/v3.2/hardware/kit/common/drivers/retargetserial.o
                0x0000000000003d78                USART0_RX_IRQHandler
 .text.RETARGET_SerialInit
                0x0000000000003de0       0xd8 build/tsb0//home/karl/SimplicityStudio_v5/developer/sdks/gecko_sdk_suite/v3.2/hardware/kit/common/drivers/retargetserial.o
                0x0000000000003de0                RETARGET_SerialInit
 .text.RETARGET_ReadChar
                0x0000000000003eb8       0x80 build/tsb0//home/karl/SimplicityStudio_v5/developer/sdks/gecko_sdk_suite/v3.2/hardware/kit/common/drivers/retargetserial.o
                0x0000000000003eb8                RETARGET_ReadChar
 .text.RETARGET_WriteChar
                0x0000000000003f38       0x54 build/tsb0//home/karl/SimplicityStudio_v5/developer/sdks/gecko_sdk_suite/v3.2/hardware/kit/common/drivers/retargetserial.o
                0x0000000000003f38                RETARGET_WriteChar
 .text._close   0x0000000000003f8c       0x16 build/tsb0//home/karl/SimplicityStudio_v5/developer/sdks/gecko_sdk_suite/v3.2/hardware/kit/common/drivers/retargetio.o
                0x0000000000003f8c                _close
 .text._exit    0x0000000000003fa2        0xa build/tsb0//home/karl/SimplicityStudio_v5/developer/sdks/gecko_sdk_suite/v3.2/hardware/kit/common/drivers/retargetio.o
                0x0000000000003fa2                _exit
 .text._fstat   0x0000000000003fac       0x20 build/tsb0//home/karl/SimplicityStudio_v5/developer/sdks/gecko_sdk_suite/v3.2/hardware/kit/common/drivers/retargetio.o
                0x0000000000003fac                _fstat
 .text._getpid  0x0000000000003fcc       0x10 build/tsb0//home/karl/SimplicityStudio_v5/developer/sdks/gecko_sdk_suite/v3.2/hardware/kit/common/drivers/retargetio.o
                0x0000000000003fcc                _getpid
 .text._isatty  0x0000000000003fdc       0x16 build/tsb0//home/karl/SimplicityStudio_v5/developer/sdks/gecko_sdk_suite/v3.2/hardware/kit/common/drivers/retargetio.o
                0x0000000000003fdc                _isatty
 .text._kill    0x0000000000003ff2       0x1a build/tsb0//home/karl/SimplicityStudio_v5/developer/sdks/gecko_sdk_suite/v3.2/hardware/kit/common/drivers/retargetio.o
                0x0000000000003ff2                _kill
 .text._lseek   0x000000000000400c       0x1a build/tsb0//home/karl/SimplicityStudio_v5/developer/sdks/gecko_sdk_suite/v3.2/hardware/kit/common/drivers/retargetio.o
                0x000000000000400c                _lseek
 .text._read    0x0000000000004026       0x56 build/tsb0//home/karl/SimplicityStudio_v5/developer/sdks/gecko_sdk_suite/v3.2/hardware/kit/common/drivers/retargetio.o
                0x0000000000004026                _read
 .text._write   0x000000000000407c       0x38 build/tsb0//home/karl/SimplicityStudio_v5/developer/sdks/gecko_sdk_suite/v3.2/hardware/kit/common/drivers/retargetio.o
                0x000000000000407c                _write
 .text.CORE_EnterAtomic
                0x00000000000040b4       0x22 build/tsb0//home/karl/SimplicityStudio_v5/developer/sdks/gecko_sdk_suite/v3.2/platform/emlib/src/em_core.o
                0x00000000000040b4                CORE_EnterAtomic
 .text.CORE_ExitAtomic
                0x00000000000040d6       0x1e build/tsb0//home/karl/SimplicityStudio_v5/developer/sdks/gecko_sdk_suite/v3.2/platform/emlib/src/em_core.o
                0x00000000000040d6                CORE_ExitAtomic
 .text.BUS_RegBitRead
                0x00000000000040f4       0x2e build/tsb0//home/karl/SimplicityStudio_v5/developer/sdks/gecko_sdk_suite/v3.2/platform/emlib/src/em_emu.o
 *fill*         0x0000000000004122        0x2 
 .text.EMU_LDOStatusGet
                0x0000000000004124       0x24 build/tsb0//home/karl/SimplicityStudio_v5/developer/sdks/gecko_sdk_suite/v3.2/platform/emlib/src/em_emu.o
 .text.EMU_VScaleWait
                0x0000000000004148       0x30 build/tsb0//home/karl/SimplicityStudio_v5/developer/sdks/gecko_sdk_suite/v3.2/platform/emlib/src/em_emu.o
 .text.EMU_VScaleGet
                0x0000000000004178       0x1c build/tsb0//home/karl/SimplicityStudio_v5/developer/sdks/gecko_sdk_suite/v3.2/platform/emlib/src/em_emu.o
 .text.vScaleEM01Cmd
                0x0000000000004194       0x22 build/tsb0//home/karl/SimplicityStudio_v5/developer/sdks/gecko_sdk_suite/v3.2/platform/emlib/src/em_emu.o
 *fill*         0x00000000000041b6        0x2 
 .text.EMU_VScaleEM01ByClock
                0x00000000000041b8       0x84 build/tsb0//home/karl/SimplicityStudio_v5/developer/sdks/gecko_sdk_suite/v3.2/platform/emlib/src/em_emu.o
                0x00000000000041b8                EMU_VScaleEM01ByClock
 .text.EMU_VScaleEM01
                0x000000000000423c       0x98 build/tsb0//home/karl/SimplicityStudio_v5/developer/sdks/gecko_sdk_suite/v3.2/platform/emlib/src/em_emu.o
                0x000000000000423c                EMU_VScaleEM01
 .text.SL_Log2ToDiv
                0x00000000000042d4       0x1c build/tsb0//home/karl/SimplicityStudio_v5/developer/sdks/gecko_sdk_suite/v3.2/platform/emlib/src/em_cmu.o
 .text.BUS_RegBitWrite
                0x00000000000042f0       0x32 build/tsb0//home/karl/SimplicityStudio_v5/developer/sdks/gecko_sdk_suite/v3.2/platform/emlib/src/em_cmu.o
 .text.BUS_RegBitRead
                0x0000000000004322       0x2e build/tsb0//home/karl/SimplicityStudio_v5/developer/sdks/gecko_sdk_suite/v3.2/platform/emlib/src/em_cmu.o
 .text.EMU_LDOStatusGet
                0x0000000000004350       0x24 build/tsb0//home/karl/SimplicityStudio_v5/developer/sdks/gecko_sdk_suite/v3.2/platform/emlib/src/em_cmu.o
 .text.EMU_VScaleWait
                0x0000000000004374       0x30 build/tsb0//home/karl/SimplicityStudio_v5/developer/sdks/gecko_sdk_suite/v3.2/platform/emlib/src/em_cmu.o
 .text.EMU_VScaleGet
                0x00000000000043a4       0x1c build/tsb0//home/karl/SimplicityStudio_v5/developer/sdks/gecko_sdk_suite/v3.2/platform/emlib/src/em_cmu.o
 .text.setHfLeConfig
                0x00000000000043c0       0x64 build/tsb0//home/karl/SimplicityStudio_v5/developer/sdks/gecko_sdk_suite/v3.2/platform/emlib/src/em_cmu.o
 .text.auxClkGet
                0x0000000000004424       0x20 build/tsb0//home/karl/SimplicityStudio_v5/developer/sdks/gecko_sdk_suite/v3.2/platform/emlib/src/em_cmu.o
 .text.hfSrcClkGet
                0x0000000000004444       0x2c build/tsb0//home/karl/SimplicityStudio_v5/developer/sdks/gecko_sdk_suite/v3.2/platform/emlib/src/em_cmu.o
 .text.dbgClkGet
                0x0000000000004470       0x40 build/tsb0//home/karl/SimplicityStudio_v5/developer/sdks/gecko_sdk_suite/v3.2/platform/emlib/src/em_cmu.o
 .text.adcAsyncClkGet
                0x00000000000044b0       0x80 build/tsb0//home/karl/SimplicityStudio_v5/developer/sdks/gecko_sdk_suite/v3.2/platform/emlib/src/em_cmu.o
 .text.flashWaitStateControl
                0x0000000000004530       0x8c build/tsb0//home/karl/SimplicityStudio_v5/developer/sdks/gecko_sdk_suite/v3.2/platform/emlib/src/em_cmu.o
 .text.flashWaitStateMax
                0x00000000000045bc       0x44 build/tsb0//home/karl/SimplicityStudio_v5/developer/sdks/gecko_sdk_suite/v3.2/platform/emlib/src/em_cmu.o
 .text.CMU_UpdateWaitStates
                0x0000000000004600       0x40 build/tsb0//home/karl/SimplicityStudio_v5/developer/sdks/gecko_sdk_suite/v3.2/platform/emlib/src/em_cmu.o
                0x0000000000004600                CMU_UpdateWaitStates
 .text.getRegIshUpperVal
                0x0000000000004640       0x36 build/tsb0//home/karl/SimplicityStudio_v5/developer/sdks/gecko_sdk_suite/v3.2/platform/emlib/src/em_cmu.o
 *fill*         0x0000000000004676        0x2 
 .text.getHfxoTuningMode
                0x0000000000004678       0x1c build/tsb0//home/karl/SimplicityStudio_v5/developer/sdks/gecko_sdk_suite/v3.2/platform/emlib/src/em_cmu.o
 .text.setHfxoTuningMode
                0x0000000000004694       0x2c build/tsb0//home/karl/SimplicityStudio_v5/developer/sdks/gecko_sdk_suite/v3.2/platform/emlib/src/em_cmu.o
 .text.lfClkGet
                0x00000000000046c0      0x110 build/tsb0//home/karl/SimplicityStudio_v5/developer/sdks/gecko_sdk_suite/v3.2/platform/emlib/src/em_cmu.o
 .text.syncReg  0x00000000000047d0       0x38 build/tsb0//home/karl/SimplicityStudio_v5/developer/sdks/gecko_sdk_suite/v3.2/platform/emlib/src/em_cmu.o
 .text.hfperClkSafePrescaler
                0x0000000000004808        0xe build/tsb0//home/karl/SimplicityStudio_v5/developer/sdks/gecko_sdk_suite/v3.2/platform/emlib/src/em_cmu.o
 .text.hfperClkOptimizedPrescaler
                0x0000000000004816        0xe build/tsb0//home/karl/SimplicityStudio_v5/developer/sdks/gecko_sdk_suite/v3.2/platform/emlib/src/em_cmu.o
 .text.CMU_ClockDivGet
                0x0000000000004824       0x1a build/tsb0//home/karl/SimplicityStudio_v5/developer/sdks/gecko_sdk_suite/v3.2/platform/emlib/src/em_cmu.o
                0x0000000000004824                CMU_ClockDivGet
 *fill*         0x000000000000483e        0x2 
 .text.CMU_ClockEnable
                0x0000000000004840       0xcc build/tsb0//home/karl/SimplicityStudio_v5/developer/sdks/gecko_sdk_suite/v3.2/platform/emlib/src/em_cmu.o
                0x0000000000004840                CMU_ClockEnable
 .text.CMU_ClockFreqGet
                0x000000000000490c      0x284 build/tsb0//home/karl/SimplicityStudio_v5/developer/sdks/gecko_sdk_suite/v3.2/platform/emlib/src/em_cmu.o
                0x000000000000490c                CMU_ClockFreqGet
 .text.CMU_ClockPrescGet
                0x0000000000004b90      0x198 build/tsb0//home/karl/SimplicityStudio_v5/developer/sdks/gecko_sdk_suite/v3.2/platform/emlib/src/em_cmu.o
                0x0000000000004b90                CMU_ClockPrescGet
 .text.CMU_ClockSelectGet
                0x0000000000004d28      0x1d0 build/tsb0//home/karl/SimplicityStudio_v5/developer/sdks/gecko_sdk_suite/v3.2/platform/emlib/src/em_cmu.o
                0x0000000000004d28                CMU_ClockSelectGet
 .text.CMU_ClockSelectSet
                0x0000000000004ef8      0x2ec build/tsb0//home/karl/SimplicityStudio_v5/developer/sdks/gecko_sdk_suite/v3.2/platform/emlib/src/em_cmu.o
                0x0000000000004ef8                CMU_ClockSelectSet
 .text.CMU_HFRCOBandGet
                0x00000000000051e4       0x18 build/tsb0//home/karl/SimplicityStudio_v5/developer/sdks/gecko_sdk_suite/v3.2/platform/emlib/src/em_cmu.o
                0x00000000000051e4                CMU_HFRCOBandGet
 .text.CMU_HFXOInit
                0x00000000000051fc       0xe4 build/tsb0//home/karl/SimplicityStudio_v5/developer/sdks/gecko_sdk_suite/v3.2/platform/emlib/src/em_cmu.o
                0x00000000000051fc                CMU_HFXOInit
 .text.CMU_OscillatorEnable
                0x00000000000052e0      0x1a0 build/tsb0//home/karl/SimplicityStudio_v5/developer/sdks/gecko_sdk_suite/v3.2/platform/emlib/src/em_cmu.o
                0x00000000000052e0                CMU_OscillatorEnable
 .text.CMU_OscillatorTuningGet
                0x0000000000005480       0x74 build/tsb0//home/karl/SimplicityStudio_v5/developer/sdks/gecko_sdk_suite/v3.2/platform/emlib/src/em_cmu.o
                0x0000000000005480                CMU_OscillatorTuningGet
 .text.CMU_OscillatorTuningSet
                0x00000000000054f4      0x100 build/tsb0//home/karl/SimplicityStudio_v5/developer/sdks/gecko_sdk_suite/v3.2/platform/emlib/src/em_cmu.o
                0x00000000000054f4                CMU_OscillatorTuningSet
 .text.CMU_OscillatorTuningWait
                0x00000000000055f4       0x98 build/tsb0//home/karl/SimplicityStudio_v5/developer/sdks/gecko_sdk_suite/v3.2/platform/emlib/src/em_cmu.o
                0x00000000000055f4                CMU_OscillatorTuningWait
 .text.CMU_OscillatorTuningOptimize
                0x000000000000568c       0x58 build/tsb0//home/karl/SimplicityStudio_v5/developer/sdks/gecko_sdk_suite/v3.2/platform/emlib/src/em_cmu.o
                0x000000000000568c                CMU_OscillatorTuningOptimize
 .text.RMU_ResetCauseClear
                0x00000000000056e4       0x18 build/tsb0//home/karl/SimplicityStudio_v5/developer/sdks/gecko_sdk_suite/v3.2/platform/emlib/src/em_rmu.o
                0x00000000000056e4                RMU_ResetCauseClear
 .text.RMU_ResetCauseGet
                0x00000000000056fc       0xb8 build/tsb0//home/karl/SimplicityStudio_v5/developer/sdks/gecko_sdk_suite/v3.2/platform/emlib/src/em_rmu.o
                0x00000000000056fc                RMU_ResetCauseGet
 .text.BUS_RegMaskedSet
                0x00000000000057b4       0x24 build/tsb0//home/karl/SimplicityStudio_v5/developer/sdks/gecko_sdk_suite/v3.2/platform/emlib/src/em_gpio.o
 .text.BUS_RegMaskedClear
                0x00000000000057d8       0x24 build/tsb0//home/karl/SimplicityStudio_v5/developer/sdks/gecko_sdk_suite/v3.2/platform/emlib/src/em_gpio.o
 .text.GPIO_PinOutClear
                0x00000000000057fc       0x78 build/tsb0//home/karl/SimplicityStudio_v5/developer/sdks/gecko_sdk_suite/v3.2/platform/emlib/src/em_gpio.o
 .text.GPIO_PinOutSet
                0x0000000000005874       0x78 build/tsb0//home/karl/SimplicityStudio_v5/developer/sdks/gecko_sdk_suite/v3.2/platform/emlib/src/em_gpio.o
 .text.GPIO_PinModeSet
                0x00000000000058ec      0x130 build/tsb0//home/karl/SimplicityStudio_v5/developer/sdks/gecko_sdk_suite/v3.2/platform/emlib/src/em_gpio.o
                0x00000000000058ec                GPIO_PinModeSet
 .text.prsRxInput
                0x0000000000005a1c       0x26 build/tsb0//home/karl/SimplicityStudio_v5/developer/sdks/gecko_sdk_suite/v3.2/platform/emlib/src/em_usart.o
 *fill*         0x0000000000005a42        0x2 
 .text.USART_BaudrateAsyncSet
                0x0000000000005a44       0xc0 build/tsb0//home/karl/SimplicityStudio_v5/developer/sdks/gecko_sdk_suite/v3.2/platform/emlib/src/em_usart.o
                0x0000000000005a44                USART_BaudrateAsyncSet
 .text.USART_Enable
                0x0000000000005b04       0x64 build/tsb0//home/karl/SimplicityStudio_v5/developer/sdks/gecko_sdk_suite/v3.2/platform/emlib/src/em_usart.o
                0x0000000000005b04                USART_Enable
 .text.USART_InitAsync
                0x0000000000005b68       0xec build/tsb0//home/karl/SimplicityStudio_v5/developer/sdks/gecko_sdk_suite/v3.2/platform/emlib/src/em_usart.o
                0x0000000000005b68                USART_InitAsync
 .text.USART_Reset
                0x0000000000005c54       0xd0 build/tsb0//home/karl/SimplicityStudio_v5/developer/sdks/gecko_sdk_suite/v3.2/platform/emlib/src/em_usart.o
                0x0000000000005c54                USART_Reset
 .text.USART_Rx
                0x0000000000005d24       0x28 build/tsb0//home/karl/SimplicityStudio_v5/developer/sdks/gecko_sdk_suite/v3.2/platform/emlib/src/em_usart.o
                0x0000000000005d24                USART_Rx
 .text.USART_Tx
                0x0000000000005d4c       0x2c build/tsb0//home/karl/SimplicityStudio_v5/developer/sdks/gecko_sdk_suite/v3.2/platform/emlib/src/em_usart.o
                0x0000000000005d4c                USART_Tx
 .text.MSC_Init
                0x0000000000005d78       0x34 build/tsb0//home/karl/SimplicityStudio_v5/developer/sdks/gecko_sdk_suite/v3.2/platform/emlib/src/em_msc.o
                0x0000000000005d78                MSC_Init
 .text.TIMER_Valid
                0x0000000000005dac       0x50 build/tsb0//home/karl/SimplicityStudio_v5/developer/sdks/gecko_sdk_suite/v3.2/platform/emlib/src/em_timer.o
 .text.TIMER_Init
                0x0000000000005dfc       0xe8 build/tsb0//home/karl/SimplicityStudio_v5/developer/sdks/gecko_sdk_suite/v3.2/platform/emlib/src/em_timer.o
                0x0000000000005dfc                TIMER_Init
 .text.TIMER_InitCC
                0x0000000000005ee4       0xa6 build/tsb0//home/karl/SimplicityStudio_v5/developer/sdks/gecko_sdk_suite/v3.2/platform/emlib/src/em_timer.o
                0x0000000000005ee4                TIMER_InitCC
 *fill*         0x0000000000005f8a        0x2 
 .text.logger_fwrite_init
                0x0000000000005f8c       0x1c build/tsb0//home/karl/node-apps/zoo/thinnect.node-platform/silabs/logger_fwrite.o
                0x0000000000005f8c                logger_fwrite_init
 .text.logger_fwrite
                0x0000000000005fa8       0x60 build/tsb0//home/karl/node-apps/zoo/thinnect.node-platform/silabs/logger_fwrite.o
                0x0000000000005fa8                logger_fwrite
 .text.log_init
                0x0000000000006008       0x64 build/tsb0//home/karl/node-apps/zoo/thinnect.lll/logging/loggers_ext.o
                0x0000000000006008                log_init
 .text.__logger
                0x000000000000606c      0x14c build/tsb0//home/karl/node-apps/zoo/thinnect.lll/logging/loggers_ext.o
                0x000000000000606c                __logger
 .text.log_severity_char
                0x00000000000061b8       0xf6 build/tsb0//home/karl/node-apps/zoo/thinnect.lll/logging/loggers_ext.o
 *fill*         0x00000000000062ae        0x2 
 .text.Reset_Handler
                0x00000000000062b0       0x78 build/tsb0//home/karl/SimplicityStudio_v5/developer/sdks/gecko_sdk_suite/v3.2/platform/Device/SiliconLabs/EFR32MG12P/Source/GCC/startup_efr32mg12p.o
                0x00000000000062b0                Reset_Handler
 .text.Default_Handler
                0x0000000000006328        0x6 build/tsb0//home/karl/SimplicityStudio_v5/developer/sdks/gecko_sdk_suite/v3.2/platform/Device/SiliconLabs/EFR32MG12P/Source/GCC/startup_efr32mg12p.o
                0x0000000000006328                DebugMon_Handler
                0x0000000000006328                USART0_TX_IRQHandler
                0x0000000000006328                I2C0_IRQHandler
                0x0000000000006328                HardFault_Handler
                0x0000000000006328                USART1_RX_IRQHandler
                0x0000000000006328                NMI_Handler
                0x0000000000006328                SYNTH_IRQHandler
                0x0000000000006328                I2C1_IRQHandler
                0x0000000000006328                WTIMER0_IRQHandler
                0x0000000000006328                CRYPTO0_IRQHandler
                0x0000000000006328                WDOG0_IRQHandler
                0x0000000000006328                USART1_TX_IRQHandler
                0x0000000000006328                SMU_IRQHandler
                0x0000000000006328                MSC_IRQHandler
                0x0000000000006328                ADC0_IRQHandler
                0x0000000000006328                UsageFault_Handler
                0x0000000000006328                WDOG1_IRQHandler
                0x0000000000006328                LEUART0_IRQHandler
                0x0000000000006328                FPUEH_IRQHandler
                0x0000000000006328                WTIMER1_IRQHandler
                0x0000000000006328                GPIO_EVEN_IRQHandler
                0x0000000000006328                VDAC0_IRQHandler
                0x0000000000006328                LDMA_IRQHandler
                0x0000000000006328                CSEN_IRQHandler
                0x0000000000006328                CRYPTO1_IRQHandler
                0x0000000000006328                TIMER0_IRQHandler
                0x0000000000006328                PCNT2_IRQHandler
                0x0000000000006328                LETIMER0_IRQHandler
                0x0000000000006328                TIMER1_IRQHandler
                0x0000000000006328                TRNG0_IRQHandler
                0x0000000000006328                RFSENSE_IRQHandler
                0x0000000000006328                BUFC_IRQHandler
                0x0000000000006328                MODEM_IRQHandler
                0x0000000000006328                USART2_RX_IRQHandler
                0x0000000000006328                Default_Handler
                0x0000000000006328                RAC_SEQ_IRQHandler
                0x0000000000006328                FRC_PRI_IRQHandler
                0x0000000000006328                EMU_IRQHandler
                0x0000000000006328                FRC_IRQHandler
                0x0000000000006328                CRYOTIMER_IRQHandler
                0x0000000000006328                PCNT0_IRQHandler
                0x0000000000006328                AGC_IRQHandler
                0x0000000000006328                sl_app_properties
                0x0000000000006328                PCNT1_IRQHandler
                0x0000000000006328                ACMP0_IRQHandler
                0x0000000000006328                MemManage_Handler
                0x0000000000006328                USART3_RX_IRQHandler
                0x0000000000006328                RTCC_IRQHandler
                0x0000000000006328                CMU_IRQHandler
                0x0000000000006328                RAC_RSM_IRQHandler
                0x0000000000006328                LESENSE_IRQHandler
                0x0000000000006328                GPIO_ODD_IRQHandler
                0x0000000000006328                USART3_TX_IRQHandler
                0x0000000000006328                PROTIMER_IRQHandler
                0x0000000000006328                BusFault_Handler
                0x0000000000006328                USART2_TX_IRQHandler
                0x0000000000006328                IDAC0_IRQHandler
 *fill*         0x000000000000632e        0x2 
 .text.SystemCoreClockGet
                0x0000000000006330       0x40 build/tsb0//home/karl/SimplicityStudio_v5/developer/sdks/gecko_sdk_suite/v3.2/platform/Device/SiliconLabs/EFR32MG12P/Source/system_efr32mg12p.o
                0x0000000000006330                SystemCoreClockGet
 .text.SystemMaxCoreClockGet
                0x0000000000006370       0x14 build/tsb0//home/karl/SimplicityStudio_v5/developer/sdks/gecko_sdk_suite/v3.2/platform/Device/SiliconLabs/EFR32MG12P/Source/system_efr32mg12p.o
                0x0000000000006370                SystemMaxCoreClockGet
 .text.SystemHFClockGet
                0x0000000000006384       0x88 build/tsb0//home/karl/SimplicityStudio_v5/developer/sdks/gecko_sdk_suite/v3.2/platform/Device/SiliconLabs/EFR32MG12P/Source/system_efr32mg12p.o
                0x0000000000006384                SystemHFClockGet
 .text.SystemHFXOClockGet
                0x000000000000640c       0x18 build/tsb0//home/karl/SimplicityStudio_v5/developer/sdks/gecko_sdk_suite/v3.2/platform/Device/SiliconLabs/EFR32MG12P/Source/system_efr32mg12p.o
                0x000000000000640c                SystemHFXOClockGet
 .text.SystemInit
                0x0000000000006424       0x2c build/tsb0//home/karl/SimplicityStudio_v5/developer/sdks/gecko_sdk_suite/v3.2/platform/Device/SiliconLabs/EFR32MG12P/Source/system_efr32mg12p.o
                0x0000000000006424                SystemInit
 .text.SystemLFRCOClockGet
                0x0000000000006450       0x12 build/tsb0//home/karl/SimplicityStudio_v5/developer/sdks/gecko_sdk_suite/v3.2/platform/Device/SiliconLabs/EFR32MG12P/Source/system_efr32mg12p.o
                0x0000000000006450                SystemLFRCOClockGet
 .text.SystemULFRCOClockGet
                0x0000000000006462       0x12 build/tsb0//home/karl/SimplicityStudio_v5/developer/sdks/gecko_sdk_suite/v3.2/platform/Device/SiliconLabs/EFR32MG12P/Source/system_efr32mg12p.o
                0x0000000000006462                SystemULFRCOClockGet
 .text.SystemLFXOClockGet
                0x0000000000006474       0x18 build/tsb0//home/karl/SimplicityStudio_v5/developer/sdks/gecko_sdk_suite/v3.2/platform/Device/SiliconLabs/EFR32MG12P/Source/system_efr32mg12p.o
                0x0000000000006474                SystemLFXOClockGet
 .text.SystemCoreClockUpdate
                0x000000000000648c        0xc build/tsb0//home/karl/node-apps/zoo/thinnect.dev-platforms/make/boards/../../src/boards/tsb0/platform.o
 .text.SYSTEM_GetProdRev
                0x0000000000006498       0x1c build/tsb0//home/karl/node-apps/zoo/thinnect.dev-platforms/make/boards/../../src/boards/tsb0/platform.o
 .text.CHIP_Init
                0x00000000000064b4       0x90 build/tsb0//home/karl/node-apps/zoo/thinnect.dev-platforms/make/boards/../../src/boards/tsb0/platform.o
 .text.PLATFORM_Init
                0x0000000000006544       0x9c build/tsb0//home/karl/node-apps/zoo/thinnect.dev-platforms/make/boards/../../src/boards/tsb0/platform.o
                0x0000000000006544                PLATFORM_Init
 .text.BUS_RegBitRead
                0x00000000000065e0       0x2e build/tsb0//home/karl/node-apps/zoo/thinnect.node-platform/silabs/platform_io.o
 .text.GPIO_PinInGet
                0x000000000000660e       0x72 build/tsb0//home/karl/node-apps/zoo/thinnect.node-platform/silabs/platform_io.o
 .text.PLATFORM_LedsInit
                0x0000000000006680       0x38 build/tsb0//home/karl/node-apps/zoo/thinnect.node-platform/silabs/platform_io.o
                0x0000000000006680                PLATFORM_LedsInit
 .text.PLATFORM_ButtonPinInit
                0x00000000000066b8       0x20 build/tsb0//home/karl/node-apps/zoo/thinnect.node-platform/silabs/platform_io.o
                0x00000000000066b8                PLATFORM_ButtonPinInit
 .text.PLATFORM_ButtonGet
                0x00000000000066d8       0x1c build/tsb0//home/karl/node-apps/zoo/thinnect.node-platform/silabs/platform_io.o
                0x00000000000066d8                PLATFORM_ButtonGet
 .text          0x00000000000066f4       0x30 /usr/lib/gcc/arm-none-eabi/9.2.1/thumb/v7e-m+fp/softfp/libgcc.a(_aeabi_uldivmod.o)
                0x00000000000066f4                __aeabi_uldivmod
 .text          0x0000000000006724      0x2c4 /usr/lib/gcc/arm-none-eabi/9.2.1/thumb/v7e-m+fp/softfp/libgcc.a(_udivmoddi4.o)
                0x0000000000006724                __udivmoddi4
 .text          0x00000000000069e8        0x4 /usr/lib/gcc/arm-none-eabi/9.2.1/thumb/v7e-m+fp/softfp/libgcc.a(_dvmd_tls.o)
                0x00000000000069e8                __aeabi_ldiv0
                0x00000000000069e8                __aeabi_idiv0
 .text          0x00000000000069ec      0x1a4 /usr/lib/gcc/arm-none-eabi/9.2.1/../../../arm-none-eabi/lib/thumb/v7e-m+fp/softfp/libg.a(lib_a-fflush.o)
                0x00000000000069ec                __sflush_r
                0x0000000000006b38                _fflush_r
                0x0000000000006b6c                fflush
 .text          0x0000000000006b90      0x1f4 /usr/lib/gcc/arm-none-eabi/9.2.1/../../../arm-none-eabi/lib/thumb/v7e-m+fp/softfp/libg.a(lib_a-findfp.o)
                0x0000000000006b94                _cleanup_r
                0x0000000000006c78                __sfmoreglue
                0x0000000000006ca8                __sfp
                0x0000000000006d30                _cleanup
                0x0000000000006d44                __sinit
                0x0000000000006d4c                __sfp_lock_acquire
                0x0000000000006d50                __sfp_lock_release
                0x0000000000006d54                __sinit_lock_acquire
                0x0000000000006d58                __sinit_lock_release
                0x0000000000006d5c                __fp_lock_all
                0x0000000000006d70                __fp_unlock_all
 .text          0x0000000000006d84      0x294 /usr/lib/gcc/arm-none-eabi/9.2.1/../../../arm-none-eabi/lib/thumb/v7e-m+fp/softfp/libg.a(lib_a-freer.o)
                0x0000000000006d84                _malloc_trim_r
                0x0000000000006e24                _free_r
 .text          0x0000000000007018       0xa0 /usr/lib/gcc/arm-none-eabi/9.2.1/../../../arm-none-eabi/lib/thumb/v7e-m+fp/softfp/libg.a(lib_a-fwalk.o)
                0x0000000000007018                _fwalk
                0x0000000000007064                _fwalk_reent
 .text          0x00000000000070b8       0x80 /usr/lib/gcc/arm-none-eabi/9.2.1/../../../arm-none-eabi/lib/thumb/v7e-m+fp/softfp/libg.a(lib_a-fwrite.o)
                0x00000000000070b8                _fwrite_r
                0x000000000000711c                fwrite
 .text          0x0000000000007138      0x564 /usr/lib/gcc/arm-none-eabi/9.2.1/../../../arm-none-eabi/lib/thumb/v7e-m+fp/softfp/libg.a(lib_a-mallocr.o)
                0x0000000000007138                _malloc_r
 .text          0x000000000000769c      0x134 /usr/lib/gcc/arm-none-eabi/9.2.1/../../../arm-none-eabi/lib/thumb/v7e-m+fp/softfp/libg.a(lib_a-memcpy.o)
                0x000000000000769c                memcpy
 .text          0x00000000000077d0       0xa0 /usr/lib/gcc/arm-none-eabi/9.2.1/../../../arm-none-eabi/lib/thumb/v7e-m+fp/softfp/libg.a(lib_a-memset.o)
                0x00000000000077d0                memset
 .text          0x0000000000007870        0x8 /usr/lib/gcc/arm-none-eabi/9.2.1/../../../arm-none-eabi/lib/thumb/v7e-m+fp/softfp/libg.a(lib_a-mlock.o)
                0x0000000000007870                __malloc_lock
                0x0000000000007874                __malloc_unlock
 .text          0x0000000000007878       0x24 /usr/lib/gcc/arm-none-eabi/9.2.1/../../../arm-none-eabi/lib/thumb/v7e-m+fp/softfp/libg.a(lib_a-sbrkr.o)
                0x0000000000007878                _sbrk_r
 .text          0x000000000000789c      0x154 /usr/lib/gcc/arm-none-eabi/9.2.1/../../../arm-none-eabi/lib/thumb/v7e-m+fp/softfp/libg.a(lib_a-setvbuf.o)
                0x000000000000789c                setvbuf
 .text          0x00000000000079f0      0x110 /usr/lib/gcc/arm-none-eabi/9.2.1/../../../arm-none-eabi/lib/thumb/v7e-m+fp/softfp/libg.a(lib_a-snprintf.o)
                0x00000000000079f0                _snprintf_r
                0x0000000000007a74                snprintf
 .text          0x0000000000007b00       0x90 /usr/lib/gcc/arm-none-eabi/9.2.1/../../../arm-none-eabi/lib/thumb/v7e-m+fp/softfp/libg.a(lib_a-stdio.o)
                0x0000000000007b00                __sread
                0x0000000000007b24                __seofread
                0x0000000000007b28                __swrite
                0x0000000000007b68                __sseek
                0x0000000000007b88                __sclose
 .text          0x0000000000007b90     0x14a4 /usr/lib/gcc/arm-none-eabi/9.2.1/../../../arm-none-eabi/lib/thumb/v7e-m+fp/softfp/libg.a(lib_a-svfprintf.o)
                0x0000000000007b90                _svfprintf_r
 .text          0x0000000000009034       0x88 /usr/lib/gcc/arm-none-eabi/9.2.1/../../../arm-none-eabi/lib/thumb/v7e-m+fp/softfp/libg.a(lib_a-vsnprintf.o)
                0x0000000000009034                _vsnprintf_r
                0x00000000000090a0                vsnprintf
 .text          0x00000000000090bc       0x2c /usr/lib/gcc/arm-none-eabi/9.2.1/../../../arm-none-eabi/lib/thumb/v7e-m+fp/softfp/libg.a(lib_a-writer.o)
                0x00000000000090bc                _write_r
 .text          0x00000000000090e8       0x24 /usr/lib/gcc/arm-none-eabi/9.2.1/../../../arm-none-eabi/lib/thumb/v7e-m+fp/softfp/libg.a(lib_a-closer.o)
                0x00000000000090e8                _close_r
 *fill*         0x000000000000910c        0x4 
 .text          0x0000000000009110      0xfdc /usr/lib/gcc/arm-none-eabi/9.2.1/../../../arm-none-eabi/lib/thumb/v7e-m+fp/softfp/libg.a(lib_a-dtoa.o)
                0x0000000000009234                _dtoa_r
 .text          0x000000000000a0ec       0x98 /usr/lib/gcc/arm-none-eabi/9.2.1/../../../arm-none-eabi/lib/thumb/v7e-m+fp/softfp/libg.a(lib_a-fclose.o)
                0x000000000000a0ec                _fclose_r
                0x000000000000a174                fclose
 .text          0x000000000000a184      0x308 /usr/lib/gcc/arm-none-eabi/9.2.1/../../../arm-none-eabi/lib/thumb/v7e-m+fp/softfp/libg.a(lib_a-fvwrite.o)
                0x000000000000a184                __sfvwrite_r
 .text          0x000000000000a48c       0x14 /usr/lib/gcc/arm-none-eabi/9.2.1/../../../arm-none-eabi/lib/thumb/v7e-m+fp/softfp/libg.a(lib_a-localeconv.o)
                0x000000000000a48c                __localeconv_l
                0x000000000000a490                _localeconv_r
                0x000000000000a498                localeconv
 .text          0x000000000000a4a0       0x2c /usr/lib/gcc/arm-none-eabi/9.2.1/../../../arm-none-eabi/lib/thumb/v7e-m+fp/softfp/libg.a(lib_a-lseekr.o)
                0x000000000000a4a0                _lseek_r
 .text          0x000000000000a4cc       0xf0 /usr/lib/gcc/arm-none-eabi/9.2.1/../../../arm-none-eabi/lib/thumb/v7e-m+fp/softfp/libg.a(lib_a-makebuf.o)
                0x000000000000a4cc                __swhatbuf_r
                0x000000000000a528                __smakebuf_r
 .text          0x000000000000a5bc       0x20 /usr/lib/gcc/arm-none-eabi/9.2.1/../../../arm-none-eabi/lib/thumb/v7e-m+fp/softfp/libg.a(lib_a-malloc.o)
                0x000000000000a5bc                malloc
                0x000000000000a5cc                free
 *fill*         0x000000000000a5dc        0x4 
 .text          0x000000000000a5e0       0xa0 /usr/lib/gcc/arm-none-eabi/9.2.1/../../../arm-none-eabi/lib/thumb/v7e-m+fp/softfp/libg.a(lib_a-memchr.o)
                0x000000000000a5e0                memchr
 .text          0x000000000000a680       0xd0 /usr/lib/gcc/arm-none-eabi/9.2.1/../../../arm-none-eabi/lib/thumb/v7e-m+fp/softfp/libg.a(lib_a-memmove.o)
                0x000000000000a680                memmove
 .text          0x000000000000a750      0x978 /usr/lib/gcc/arm-none-eabi/9.2.1/../../../arm-none-eabi/lib/thumb/v7e-m+fp/softfp/libg.a(lib_a-mprec.o)
                0x000000000000a750                _Balloc
                0x000000000000a79c                _Bfree
                0x000000000000a7b0                __multadd
                0x000000000000a854                __s2b
                0x000000000000a900                __hi0bits
                0x000000000000a940                __lo0bits
                0x000000000000a9a0                __i2b
                0x000000000000a9cc                __multiply
                0x000000000000ab18                __pow5mult
                0x000000000000abb0                __lshift
                0x000000000000ac7c                __mcmp
                0x000000000000acb4                __mdiff
                0x000000000000addc                __ulp
                0x000000000000ae1c                __b2d
                0x000000000000aed4                __d2b
                0x000000000000af94                __ratio
                0x000000000000aff0                _mprec_log10
                0x000000000000b028                __copybits
                0x000000000000b070                __any_on
 .text          0x000000000000b0c8       0x2c /usr/lib/gcc/arm-none-eabi/9.2.1/../../../arm-none-eabi/lib/thumb/v7e-m+fp/softfp/libg.a(lib_a-readr.o)
                0x000000000000b0c8                _read_r
 .text          0x000000000000b0f4      0x36c /usr/lib/gcc/arm-none-eabi/9.2.1/../../../arm-none-eabi/lib/thumb/v7e-m+fp/softfp/libg.a(lib_a-reallocr.o)
                0x000000000000b0f4                _realloc_r
 *fill*         0x000000000000b460       0x20 
 .text          0x000000000000b480       0xdc /usr/lib/gcc/arm-none-eabi/9.2.1/../../../arm-none-eabi/lib/thumb/v7e-m+fp/softfp/libg.a(lib_a-strlen.o)
                0x000000000000b480                strlen
 .text          0x000000000000b55c      0xb64 /usr/lib/gcc/arm-none-eabi/9.2.1/../../../arm-none-eabi/lib/thumb/v7e-m+fp/softfp/libg.a(lib_a-svfiprintf.o)
                0x000000000000b55c                __ssprint_r
                0x000000000000b654                _svfiprintf_r
 .text          0x000000000000c0c0       0xd0 /usr/lib/gcc/arm-none-eabi/9.2.1/../../../arm-none-eabi/lib/thumb/v7e-m+fp/softfp/libg.a(lib_a-wsetup.o)
                0x000000000000c0c0                __swsetup_r
 .text          0x000000000000c190       0x48 /usr/lib/gcc/arm-none-eabi/9.2.1/../../../arm-none-eabi/lib/thumb/v7e-m+fp/softfp/libg.a(lib_a-assert.o)
                0x000000000000c190                __assert_func
                0x000000000000c1cc                __assert
 .text          0x000000000000c1d8       0x60 /usr/lib/gcc/arm-none-eabi/9.2.1/../../../arm-none-eabi/lib/thumb/v7e-m+fp/softfp/libg.a(lib_a-callocr.o)
                0x000000000000c1d8                _calloc_r
 .text          0x000000000000c238       0x44 /usr/lib/gcc/arm-none-eabi/9.2.1/../../../arm-none-eabi/lib/thumb/v7e-m+fp/softfp/libg.a(lib_a-fiprintf.o)
                0x000000000000c238                _fiprintf_r
                0x000000000000c254                fiprintf
 .text          0x000000000000c27c       0x28 /usr/lib/gcc/arm-none-eabi/9.2.1/../../../arm-none-eabi/lib/thumb/v7e-m+fp/softfp/libg.a(lib_a-fstatr.o)
                0x000000000000c27c                _fstat_r
 .text          0x000000000000c2a4       0x24 /usr/lib/gcc/arm-none-eabi/9.2.1/../../../arm-none-eabi/lib/thumb/v7e-m+fp/softfp/libg.a(lib_a-isattyr.o)
                0x000000000000c2a4                _isatty_r
 .text          0x000000000000c2c8       0x5c /usr/lib/gcc/arm-none-eabi/9.2.1/../../../arm-none-eabi/lib/thumb/v7e-m+fp/softfp/libg.a(lib_a-locale.o)
                0x000000000000c2c8                _setlocale_r
                0x000000000000c308                __locale_mb_cur_max
                0x000000000000c314                setlocale
 .text          0x000000000000c324       0x40 /usr/lib/gcc/arm-none-eabi/9.2.1/../../../arm-none-eabi/lib/thumb/v7e-m+fp/softfp/libg.a(lib_a-mbtowc_r.o)
                0x000000000000c324                _mbtowc_r
                0x000000000000c338                __ascii_mbtowc
 *fill*         0x000000000000c364       0x1c 
 .text          0x000000000000c380      0x2dc /usr/lib/gcc/arm-none-eabi/9.2.1/../../../arm-none-eabi/lib/thumb/v7e-m+fp/softfp/libg.a(lib_a-strcmp.o)
                0x000000000000c388                strcmp
 .text          0x000000000000c65c      0xd00 /usr/lib/gcc/arm-none-eabi/9.2.1/../../../arm-none-eabi/lib/thumb/v7e-m+fp/softfp/libg.a(lib_a-vfiprintf.o)
                0x000000000000c6d4                __sprint_r
                0x000000000000c6e8                _vfiprintf_r
                0x000000000000d2d8                vfiprintf
 .text          0x000000000000d35c       0x30 /usr/lib/gcc/arm-none-eabi/9.2.1/../../../arm-none-eabi/lib/thumb/v7e-m+fp/softfp/libg.a(lib_a-wctomb_r.o)
                0x000000000000d35c                _wctomb_r
                0x000000000000d370                __ascii_wctomb
 .text          0x000000000000d38c       0x10 /usr/lib/gcc/arm-none-eabi/9.2.1/../../../arm-none-eabi/lib/thumb/v7e-m+fp/softfp/libg.a(lib_a-abort.o)
                0x000000000000d38c                abort
 .text          0x000000000000d39c      0x110 /usr/lib/gcc/arm-none-eabi/9.2.1/../../../arm-none-eabi/lib/thumb/v7e-m+fp/softfp/libg.a(lib_a-fputwc.o)
                0x000000000000d39c                __fputwc
                0x000000000000d444                _fputwc_r
                0x000000000000d46c                fputwc
 .text          0x000000000000d4ac      0x15c /usr/lib/gcc/arm-none-eabi/9.2.1/../../../arm-none-eabi/lib/thumb/v7e-m+fp/softfp/libg.a(lib_a-signal.o)
                0x000000000000d4d4                _init_signal_r
                0x000000000000d4e0                _signal_r
                0x000000000000d518                _raise_r
                0x000000000000d570                __sigtramp_r
                0x000000000000d5c4                raise
                0x000000000000d5d4                signal
                0x000000000000d5e4                _init_signal
                0x000000000000d5f8                __sigtramp
 .text          0x000000000000d608       0x2c /usr/lib/gcc/arm-none-eabi/9.2.1/../../../arm-none-eabi/lib/thumb/v7e-m+fp/softfp/libg.a(lib_a-signalr.o)
                0x000000000000d608                _kill_r
                0x000000000000d630                _getpid_r
 .text          0x000000000000d634       0xc0 /usr/lib/gcc/arm-none-eabi/9.2.1/../../../arm-none-eabi/lib/thumb/v7e-m+fp/softfp/libg.a(lib_a-wbuf.o)
                0x000000000000d634                __swbuf_r
                0x000000000000d6e4                __swbuf
 .text          0x000000000000d6f4       0x7c /usr/lib/gcc/arm-none-eabi/9.2.1/../../../arm-none-eabi/lib/thumb/v7e-m+fp/softfp/libg.a(lib_a-wcrtomb.o)
                0x000000000000d6f4                _wcrtomb_r
                0x000000000000d728                wcrtomb
 .text          0x000000000000d770      0x378 /usr/lib/gcc/arm-none-eabi/9.2.1/thumb/v7e-m+fp/softfp/libgcc.a(_arm_addsubdf3.o)
                0x000000000000d770                __aeabi_drsub
                0x000000000000d778                __aeabi_dsub
                0x000000000000d778                __subdf3
                0x000000000000d77c                __adddf3
                0x000000000000d77c                __aeabi_dadd
                0x000000000000d9f4                __aeabi_ui2d
                0x000000000000d9f4                __floatunsidf
                0x000000000000da14                __floatsidf
                0x000000000000da14                __aeabi_i2d
                0x000000000000da38                __extendsfdf2
                0x000000000000da38                __aeabi_f2d
                0x000000000000da7c                __aeabi_ul2d
                0x000000000000da7c                __floatundidf
                0x000000000000da8c                __floatdidf
                0x000000000000da8c                __aeabi_l2d
 .text          0x000000000000dae8      0x424 /usr/lib/gcc/arm-none-eabi/9.2.1/thumb/v7e-m+fp/softfp/libgcc.a(_arm_muldivdf3.o)
                0x000000000000dae8                __aeabi_dmul
                0x000000000000dae8                __muldf3
                0x000000000000dd3c                __aeabi_ddiv
                0x000000000000dd3c                __divdf3
 .text          0x000000000000df0c      0x110 /usr/lib/gcc/arm-none-eabi/9.2.1/thumb/v7e-m+fp/softfp/libgcc.a(_arm_cmpdf2.o)
                0x000000000000df0c                __gtdf2
                0x000000000000df0c                __gedf2
                0x000000000000df14                __ltdf2
                0x000000000000df14                __ledf2
                0x000000000000df1c                __cmpdf2
                0x000000000000df1c                __eqdf2
                0x000000000000df1c                __nedf2
                0x000000000000df98                __aeabi_cdrcmple
                0x000000000000dfa8                __aeabi_cdcmple
                0x000000000000dfa8                __aeabi_cdcmpeq
                0x000000000000dfb8                __aeabi_dcmpeq
                0x000000000000dfcc                __aeabi_dcmplt
                0x000000000000dfe0                __aeabi_dcmple
                0x000000000000dff4                __aeabi_dcmpge
                0x000000000000e008                __aeabi_dcmpgt
 .text          0x000000000000e01c       0x2c /usr/lib/gcc/arm-none-eabi/9.2.1/thumb/v7e-m+fp/softfp/libgcc.a(_arm_unorddf2.o)
                0x000000000000e01c                __aeabi_dcmpun
                0x000000000000e01c                __unorddf2
 .text          0x000000000000e048       0x50 /usr/lib/gcc/arm-none-eabi/9.2.1/thumb/v7e-m+fp/softfp/libgcc.a(_arm_fixdfsi.o)
                0x000000000000e048                __fixdfsi
                0x000000000000e048                __aeabi_d2iz
 .text          0x000000000000e098       0x1c /usr/lib/gcc/arm-none-eabi/9.2.1/../../../arm-none-eabi/lib/thumb/v7e-m+fp/softfp/libnosys.a(sbrk.o)
                0x000000000000e098                _sbrk
 *(.init)
 *(.fini)
 *crtbegin.o(.ctors)
 *crtbegin?.o(.ctors)
 *(EXCLUDE_FILE(*crtend.o *crtend?.o) .ctors)
 *(SORT_BY_NAME(.ctors.*))
 *(.ctors)
 *crtbegin.o(.dtors)
 *crtbegin?.o(.dtors)
 *(EXCLUDE_FILE(*crtend.o *crtend?.o) .dtors)
 *(SORT_BY_NAME(.dtors.*))
 *(.dtors)
 *(.rodata*)
 .rodata        0x000000000000e0b4       0x9f build/tsb0/blink_pwm_main.o
                0x000000000000e0b4                gHeaderData
                0x000000000000e142                gHeaderEnd
                0x000000000000e144                gHeaderSize
 *fill*         0x000000000000e153        0x1 
 .rodata.moduulROM.6527
                0x000000000000e154        0x5 build/tsb0/blink_pwm_main.o
 *fill*         0x000000000000e159        0x3 
 .rodata.strROM.6528
                0x000000000000e15c        0xb build/tsb0/blink_pwm_main.o
 *fill*         0x000000000000e167        0x1 
 .rodata.moduulROM.6532
                0x000000000000e168        0x5 build/tsb0/blink_pwm_main.o
 *fill*         0x000000000000e16d        0x3 
 .rodata.strROM.6533
                0x000000000000e170        0xb build/tsb0/blink_pwm_main.o
 *fill*         0x000000000000e17b        0x1 
 .rodata.moduulROM.6537
                0x000000000000e17c        0x5 build/tsb0/blink_pwm_main.o
 *fill*         0x000000000000e181        0x3 
 .rodata.strROM.6538
                0x000000000000e184        0xb build/tsb0/blink_pwm_main.o
 *fill*         0x000000000000e18f        0x1 
 .rodata.moduulROM.6544
                0x000000000000e190        0x5 build/tsb0/blink_pwm_main.o
 *fill*         0x000000000000e195        0x3 
 .rodata.strROM.6545
                0x000000000000e198       0x12 build/tsb0/blink_pwm_main.o
 *fill*         0x000000000000e1aa        0x2 
 .rodata.moduulROM.6546
                0x000000000000e1ac        0x5 build/tsb0/blink_pwm_main.o
 *fill*         0x000000000000e1b1        0x3 
 .rodata.strROM.6547
                0x000000000000e1b4        0x8 build/tsb0/blink_pwm_main.o
 .rodata.moduulROM.6548
                0x000000000000e1bc        0x5 build/tsb0/blink_pwm_main.o
 *fill*         0x000000000000e1c1        0x3 
 .rodata.strROM.6549
                0x000000000000e1c4        0x7 build/tsb0/blink_pwm_main.o
 *fill*         0x000000000000e1cb        0x1 
 .rodata.moduulROM.6559
                0x000000000000e1cc        0x5 build/tsb0/blink_pwm_main.o
 *fill*         0x000000000000e1d1        0x3 
 .rodata.strROM.6560
                0x000000000000e1d4       0x1f build/tsb0/blink_pwm_main.o
 *fill*         0x000000000000e1f3        0x1 
 .rodata.moduulROM.6563
                0x000000000000e1f4        0x5 build/tsb0/blink_pwm_main.o
 *fill*         0x000000000000e1f9        0x3 
 .rodata.strROM.6564
                0x000000000000e1fc        0xf build/tsb0/blink_pwm_main.o
 *fill*         0x000000000000e20b        0x1 
 .rodata        0x000000000000e20c        0x5 build/tsb0//home/karl/node-apps/zoo/FreeRTOS-Kernel/tasks.o
 *fill*         0x000000000000e211        0x3 
 .rodata        0x000000000000e214        0x8 build/tsb0//home/karl/node-apps/zoo/FreeRTOS-Kernel/timers.o
 .rodata        0x000000000000e21c       0x1c build/tsb0//home/karl/SimplicityStudio_v5/developer/sdks/gecko_sdk_suite/v3.2/hardware/kit/common/drivers/retargetserial.o
 .rodata.flashWsTable
                0x000000000000e238       0x28 build/tsb0//home/karl/SimplicityStudio_v5/developer/sdks/gecko_sdk_suite/v3.2/platform/emlib/src/em_cmu.o
 .rodata.resetCauseMasks
                0x000000000000e260       0x48 build/tsb0//home/karl/SimplicityStudio_v5/developer/sdks/gecko_sdk_suite/v3.2/platform/emlib/src/em_rmu.o
 .rodata        0x000000000000e2a8       0x3d build/tsb0//home/karl/node-apps/zoo/thinnect.lll/logging/loggers_ext.o
 *fill*         0x000000000000e2e5        0x3 
 .rodata        0x000000000000e2e8       0x12 build/tsb0//home/karl/node-apps/zoo/thinnect.dev-platforms/make/boards/../../src/boards/tsb0/platform.o
 *fill*         0x000000000000e2fa        0x2 
 .rodata        0x000000000000e2fc        0x4 /usr/lib/gcc/arm-none-eabi/9.2.1/../../../arm-none-eabi/lib/thumb/v7e-m+fp/softfp/libg.a(lib_a-impure.o)
                0x000000000000e2fc                _global_impure_ptr
 .rodata        0x000000000000e300       0x20 /usr/lib/gcc/arm-none-eabi/9.2.1/../../../arm-none-eabi/lib/thumb/v7e-m+fp/softfp/libg.a(lib_a-svfprintf.o)
 .rodata.str1.4
                0x000000000000e320       0x42 /usr/lib/gcc/arm-none-eabi/9.2.1/../../../arm-none-eabi/lib/thumb/v7e-m+fp/softfp/libg.a(lib_a-svfprintf.o)
 *fill*         0x000000000000e362        0x2 
 .rodata.str1.4
                0x000000000000e364       0x56 /usr/lib/gcc/arm-none-eabi/9.2.1/../../../arm-none-eabi/lib/thumb/v7e-m+fp/softfp/libg.a(lib_a-dtoa.o)
                                         0x5a (size before relaxing)
 *fill*         0x000000000000e3ba        0x6 
 .rodata        0x000000000000e3c0      0x128 /usr/lib/gcc/arm-none-eabi/9.2.1/../../../arm-none-eabi/lib/thumb/v7e-m+fp/softfp/libg.a(lib_a-mprec.o)
                0x000000000000e3d0                __mprec_tens
                0x000000000000e498                __mprec_tinytens
                0x000000000000e4c0                __mprec_bigtens
 .rodata.str1.4
                0x000000000000e4e8       0x33 /usr/lib/gcc/arm-none-eabi/9.2.1/../../../arm-none-eabi/lib/thumb/v7e-m+fp/softfp/libg.a(lib_a-mprec.o)
                                         0x47 (size before relaxing)
 *fill*         0x000000000000e51b        0x1 
 .rodata        0x000000000000e51c       0x20 /usr/lib/gcc/arm-none-eabi/9.2.1/../../../arm-none-eabi/lib/thumb/v7e-m+fp/softfp/libg.a(lib_a-svfiprintf.o)
 .rodata.str1.4
                0x000000000000e53c       0x2f /usr/lib/gcc/arm-none-eabi/9.2.1/../../../arm-none-eabi/lib/thumb/v7e-m+fp/softfp/libg.a(lib_a-svfiprintf.o)
 .rodata.str1.4
                0x000000000000e53c       0x3f /usr/lib/gcc/arm-none-eabi/9.2.1/../../../arm-none-eabi/lib/thumb/v7e-m+fp/softfp/libg.a(lib_a-assert.o)
                                         0x43 (size before relaxing)
 *fill*         0x000000000000e57b        0x1 
 .rodata.str1.4
                0x000000000000e57c        0xe /usr/lib/gcc/arm-none-eabi/9.2.1/../../../arm-none-eabi/lib/thumb/v7e-m+fp/softfp/libg.a(lib_a-locale.o)
                                         0x12 (size before relaxing)
 *fill*         0x000000000000e58a        0x2 
 .rodata        0x000000000000e58c       0x20 /usr/lib/gcc/arm-none-eabi/9.2.1/../../../arm-none-eabi/lib/thumb/v7e-m+fp/softfp/libg.a(lib_a-vfiprintf.o)
 .rodata.str1.4
                0x000000000000e5ac       0x2f /usr/lib/gcc/arm-none-eabi/9.2.1/../../../arm-none-eabi/lib/thumb/v7e-m+fp/softfp/libg.a(lib_a-vfiprintf.o)
 .rodata        0x000000000000e5ac      0x101 /usr/lib/gcc/arm-none-eabi/9.2.1/../../../arm-none-eabi/lib/thumb/v7e-m+fp/softfp/libg.a(lib_a-ctype_.o)
                0x000000000000e5ac                _ctype_
 *(.eh_frame*)

.glue_7         0x000000000000e6b0        0x0
 .glue_7        0x000000000000e6b0        0x0 linker stubs

.glue_7t        0x000000000000e6b0        0x0
 .glue_7t       0x000000000000e6b0        0x0 linker stubs

.vfp11_veneer   0x000000000000e6b0        0x0
 .vfp11_veneer  0x000000000000e6b0        0x0 linker stubs

.v4_bx          0x000000000000e6b0        0x0
 .v4_bx         0x000000000000e6b0        0x0 linker stubs

.iplt           0x000000000000e6b0        0x0
 .iplt          0x000000000000e6b0        0x0 build/tsb0/blink_pwm_main.o

.ARM.extab
 *(.ARM.extab* .gnu.linkonce.armextab.*)
                0x000000000000e6ad                __exidx_start = .

.ARM.exidx      0x000000000000e6b0        0x8
 *(.ARM.exidx* .gnu.linkonce.armexidx.*)
 .ARM.exidx     0x000000000000e6b0        0x8 /usr/lib/gcc/arm-none-eabi/9.2.1/thumb/v7e-m+fp/softfp/libgcc.a(_udivmoddi4.o)
                0x000000000000e6b8                __exidx_end = .
                0x000000000000e6b8                __etext = .

.rel.dyn        0x000000000000e6b8        0x0
 .rel.iplt      0x000000000000e6b8        0x0 build/tsb0/blink_pwm_main.o

.data           0x0000000020000000      0x9d4 load address 0x000000000000e6b8
                0x0000000020000000                __data_start__ = .
 *(vtable)
 *(.data*)
 .data.uxCriticalNesting
                0x0000000020000000        0x4 build/tsb0//home/karl/node-apps/zoo/FreeRTOS-Kernel/portable/GCC/ARM_CM4F/port.o
 .data.xHeapRegions
                0x0000000020000004       0x10 build/tsb0//home/karl/node-apps/zoo/thinnect.cmsis-freertos/CMSIS-FreeRTOS/CMSIS/RTOS2/FreeRTOS/Source/cmsis_os2.o
 .data.auxHfrcoFreq
                0x0000000020000014        0x4 build/tsb0//home/karl/SimplicityStudio_v5/developer/sdks/gecko_sdk_suite/v3.2/platform/emlib/src/em_cmu.o
 .data.SystemHFXOClock
                0x0000000020000018        0x4 build/tsb0//home/karl/SimplicityStudio_v5/developer/sdks/gecko_sdk_suite/v3.2/platform/Device/SiliconLabs/EFR32MG12P/Source/system_efr32mg12p.o
 .data.SystemLFXOClock
                0x000000002000001c        0x4 build/tsb0//home/karl/SimplicityStudio_v5/developer/sdks/gecko_sdk_suite/v3.2/platform/Device/SiliconLabs/EFR32MG12P/Source/system_efr32mg12p.o
 .data.SystemCoreClock
                0x0000000020000020        0x4 build/tsb0//home/karl/SimplicityStudio_v5/developer/sdks/gecko_sdk_suite/v3.2/platform/Device/SiliconLabs/EFR32MG12P/Source/system_efr32mg12p.o
                0x0000000020000020                SystemCoreClock
 .data.SystemHfrcoFreq
                0x0000000020000024        0x4 build/tsb0//home/karl/SimplicityStudio_v5/developer/sdks/gecko_sdk_suite/v3.2/platform/Device/SiliconLabs/EFR32MG12P/Source/system_efr32mg12p.o
                0x0000000020000024                SystemHfrcoFreq
 .data          0x0000000020000028      0x430 /usr/lib/gcc/arm-none-eabi/9.2.1/../../../arm-none-eabi/lib/thumb/v7e-m+fp/softfp/libg.a(lib_a-impure.o)
                0x0000000020000028                _impure_ptr
 .data          0x0000000020000458      0x410 /usr/lib/gcc/arm-none-eabi/9.2.1/../../../arm-none-eabi/lib/thumb/v7e-m+fp/softfp/libg.a(lib_a-mallocr.o)
                0x0000000020000458                __malloc_av_
                0x0000000020000860                __malloc_sbrk_base
                0x0000000020000864                __malloc_trim_threshold
 .data          0x0000000020000868      0x16c /usr/lib/gcc/arm-none-eabi/9.2.1/../../../arm-none-eabi/lib/thumb/v7e-m+fp/softfp/libg.a(lib_a-locale.o)
                0x0000000020000868                __global_locale
                0x00000000200009d4                . = ALIGN (0x4)
                [!provide]                        PROVIDE (__ram_func_section_start = .)
 *(.ram)
                [!provide]                        PROVIDE (__ram_func_section_end = .)
                0x00000000200009d4                . = ALIGN (0x4)
                [!provide]                        PROVIDE (__preinit_array_start = .)
 *(.preinit_array)
                [!provide]                        PROVIDE (__preinit_array_end = .)
                0x00000000200009d4                . = ALIGN (0x4)
                [!provide]                        PROVIDE (__init_array_start = .)
 *(SORT_BY_NAME(.init_array.*))
 *(.init_array)
                [!provide]                        PROVIDE (__init_array_end = .)
                0x00000000200009d4                . = ALIGN (0x4)
                [!provide]                        PROVIDE (__fini_array_start = .)
 *(SORT_BY_NAME(.fini_array.*))
 *(.fini_array)
                [!provide]                        PROVIDE (__fini_array_end = .)
 *(.jcr*)
                0x00000000200009d4                . = ALIGN (0x4)
                0x00000000200009d4                __data_end__ = .

.igot.plt       0x00000000200009d4        0x0 load address 0x000000000000f08c
 .igot.plt      0x00000000200009d4        0x0 build/tsb0/blink_pwm_main.o

.bss            0x00000000200009d4     0xbbfc load address 0x000000000000f08c
                0x00000000200009d4                . = ALIGN (0x4)
                0x00000000200009d4                __bss_start__ = .
 *(.bss*)
 .bss.m_led_mutex
                0x00000000200009d4        0x4 build/tsb0/blink_pwm_main.o
 .bss.m_led_state
                0x00000000200009d8        0x1 build/tsb0/timer_handler.o
 *fill*         0x00000000200009d9        0x3 
 .bss.m_led0_cnt
                0x00000000200009dc        0x4 build/tsb0/timer_handler.o
 .bss.m_led1_cnt
                0x00000000200009e0        0x4 build/tsb0/timer_handler.o
 .bss.m_led2_cnt
                0x00000000200009e4        0x4 build/tsb0/timer_handler.o
 .bss.m_led0_sd
                0x00000000200009e8        0x4 build/tsb0/timer_handler.o
 .bss.m_led2_sd
                0x00000000200009ec        0x4 build/tsb0/timer_handler.o
 .bss.m_led0_toggle
                0x00000000200009f0        0x1 build/tsb0/timer_handler.o
 .bss.m_led1_toggle
                0x00000000200009f1        0x1 build/tsb0/timer_handler.o
 .bss.m_led2_toggle
                0x00000000200009f2        0x1 build/tsb0/timer_handler.o
 .bss.ucMaxSysCallPriority
                0x00000000200009f3        0x1 build/tsb0//home/karl/node-apps/zoo/FreeRTOS-Kernel/portable/GCC/ARM_CM4F/port.o
 .bss.ulMaxPRIGROUPValue
                0x00000000200009f4        0x4 build/tsb0//home/karl/node-apps/zoo/FreeRTOS-Kernel/portable/GCC/ARM_CM4F/port.o
 .bss.xStart    0x00000000200009f8        0x8 build/tsb0//home/karl/node-apps/zoo/FreeRTOS-Kernel/portable/MemMang/heap_5.o
 .bss.pxEnd     0x0000000020000a00        0x4 build/tsb0//home/karl/node-apps/zoo/FreeRTOS-Kernel/portable/MemMang/heap_5.o
 .bss.xFreeBytesRemaining
                0x0000000020000a04        0x4 build/tsb0//home/karl/node-apps/zoo/FreeRTOS-Kernel/portable/MemMang/heap_5.o
 .bss.xMinimumEverFreeBytesRemaining
                0x0000000020000a08        0x4 build/tsb0//home/karl/node-apps/zoo/FreeRTOS-Kernel/portable/MemMang/heap_5.o
 .bss.xNumberOfSuccessfulAllocations
                0x0000000020000a0c        0x4 build/tsb0//home/karl/node-apps/zoo/FreeRTOS-Kernel/portable/MemMang/heap_5.o
 .bss.xNumberOfSuccessfulFrees
                0x0000000020000a10        0x4 build/tsb0//home/karl/node-apps/zoo/FreeRTOS-Kernel/portable/MemMang/heap_5.o
 .bss.xBlockAllocatedBit
                0x0000000020000a14        0x4 build/tsb0//home/karl/node-apps/zoo/FreeRTOS-Kernel/portable/MemMang/heap_5.o
 .bss.pxCurrentTCB
                0x0000000020000a18        0x4 build/tsb0//home/karl/node-apps/zoo/FreeRTOS-Kernel/tasks.o
                0x0000000020000a18                pxCurrentTCB
 .bss.pxReadyTasksLists
                0x0000000020000a1c      0x460 build/tsb0//home/karl/node-apps/zoo/FreeRTOS-Kernel/tasks.o
 .bss.xDelayedTaskList1
                0x0000000020000e7c       0x14 build/tsb0//home/karl/node-apps/zoo/FreeRTOS-Kernel/tasks.o
 .bss.xDelayedTaskList2
                0x0000000020000e90       0x14 build/tsb0//home/karl/node-apps/zoo/FreeRTOS-Kernel/tasks.o
 .bss.pxDelayedTaskList
                0x0000000020000ea4        0x4 build/tsb0//home/karl/node-apps/zoo/FreeRTOS-Kernel/tasks.o
 .bss.pxOverflowDelayedTaskList
                0x0000000020000ea8        0x4 build/tsb0//home/karl/node-apps/zoo/FreeRTOS-Kernel/tasks.o
 .bss.xPendingReadyList
                0x0000000020000eac       0x14 build/tsb0//home/karl/node-apps/zoo/FreeRTOS-Kernel/tasks.o
 .bss.xTasksWaitingTermination
                0x0000000020000ec0       0x14 build/tsb0//home/karl/node-apps/zoo/FreeRTOS-Kernel/tasks.o
 .bss.uxDeletedTasksWaitingCleanUp
                0x0000000020000ed4        0x4 build/tsb0//home/karl/node-apps/zoo/FreeRTOS-Kernel/tasks.o
 .bss.xSuspendedTaskList
                0x0000000020000ed8       0x14 build/tsb0//home/karl/node-apps/zoo/FreeRTOS-Kernel/tasks.o
 .bss.uxCurrentNumberOfTasks
                0x0000000020000eec        0x4 build/tsb0//home/karl/node-apps/zoo/FreeRTOS-Kernel/tasks.o
 .bss.xTickCount
                0x0000000020000ef0        0x4 build/tsb0//home/karl/node-apps/zoo/FreeRTOS-Kernel/tasks.o
 .bss.uxTopReadyPriority
                0x0000000020000ef4        0x4 build/tsb0//home/karl/node-apps/zoo/FreeRTOS-Kernel/tasks.o
 .bss.xSchedulerRunning
                0x0000000020000ef8        0x4 build/tsb0//home/karl/node-apps/zoo/FreeRTOS-Kernel/tasks.o
 .bss.xPendedTicks
                0x0000000020000efc        0x4 build/tsb0//home/karl/node-apps/zoo/FreeRTOS-Kernel/tasks.o
 .bss.xYieldPending
                0x0000000020000f00        0x4 build/tsb0//home/karl/node-apps/zoo/FreeRTOS-Kernel/tasks.o
 .bss.xNumOfOverflows
                0x0000000020000f04        0x4 build/tsb0//home/karl/node-apps/zoo/FreeRTOS-Kernel/tasks.o
 .bss.uxTaskNumber
                0x0000000020000f08        0x4 build/tsb0//home/karl/node-apps/zoo/FreeRTOS-Kernel/tasks.o
 .bss.xNextTaskUnblockTime
                0x0000000020000f0c        0x4 build/tsb0//home/karl/node-apps/zoo/FreeRTOS-Kernel/tasks.o
 .bss.xIdleTaskHandle
                0x0000000020000f10        0x4 build/tsb0//home/karl/node-apps/zoo/FreeRTOS-Kernel/tasks.o
 .bss.uxSchedulerSuspended
                0x0000000020000f14        0x4 build/tsb0//home/karl/node-apps/zoo/FreeRTOS-Kernel/tasks.o
 .bss.xActiveTimerList1
                0x0000000020000f18       0x14 build/tsb0//home/karl/node-apps/zoo/FreeRTOS-Kernel/timers.o
 .bss.xActiveTimerList2
                0x0000000020000f2c       0x14 build/tsb0//home/karl/node-apps/zoo/FreeRTOS-Kernel/timers.o
 .bss.pxCurrentTimerList
                0x0000000020000f40        0x4 build/tsb0//home/karl/node-apps/zoo/FreeRTOS-Kernel/timers.o
 .bss.pxOverflowTimerList
                0x0000000020000f44        0x4 build/tsb0//home/karl/node-apps/zoo/FreeRTOS-Kernel/timers.o
 .bss.xTimerQueue
                0x0000000020000f48        0x4 build/tsb0//home/karl/node-apps/zoo/FreeRTOS-Kernel/timers.o
 .bss.xTimerTaskHandle
                0x0000000020000f4c        0x4 build/tsb0//home/karl/node-apps/zoo/FreeRTOS-Kernel/timers.o
 .bss.xLastTime.8171
                0x0000000020000f50        0x4 build/tsb0//home/karl/node-apps/zoo/FreeRTOS-Kernel/timers.o
 .bss.ucStaticTimerQueueStorage.8222
                0x0000000020000f54      0x500 build/tsb0//home/karl/node-apps/zoo/FreeRTOS-Kernel/timers.o
 .bss.xStaticTimerQueue.8221
                0x0000000020001454       0x50 build/tsb0//home/karl/node-apps/zoo/FreeRTOS-Kernel/timers.o
 .bss.KernelState
                0x00000000200014a4        0x4 build/tsb0//home/karl/node-apps/zoo/thinnect.cmsis-freertos/CMSIS-FreeRTOS/CMSIS/RTOS2/FreeRTOS/Source/cmsis_os2.o
 .bss.ucHeap    0x00000000200014a8     0xa000 build/tsb0//home/karl/node-apps/zoo/thinnect.cmsis-freertos/CMSIS-FreeRTOS/CMSIS/RTOS2/FreeRTOS/Source/cmsis_os2.o
 .bss.Idle_TCB.8756
                0x000000002000b4a8       0x60 build/tsb0//home/karl/node-apps/zoo/thinnect.cmsis-freertos/CMSIS-FreeRTOS/CMSIS/RTOS2/FreeRTOS/Source/cmsis_os2.o
 .bss.Idle_Stack.8757
                0x000000002000b508      0x800 build/tsb0//home/karl/node-apps/zoo/thinnect.cmsis-freertos/CMSIS-FreeRTOS/CMSIS/RTOS2/FreeRTOS/Source/cmsis_os2.o
 .bss.Timer_TCB.8763
                0x000000002000bd08       0x60 build/tsb0//home/karl/node-apps/zoo/thinnect.cmsis-freertos/CMSIS-FreeRTOS/CMSIS/RTOS2/FreeRTOS/Source/cmsis_os2.o
 .bss.Timer_Stack.8764
                0x000000002000bd68      0x800 build/tsb0//home/karl/node-apps/zoo/thinnect.cmsis-freertos/CMSIS-FreeRTOS/CMSIS/RTOS2/FreeRTOS/Source/cmsis_os2.o
 .bss.rxReadIndex
                0x000000002000c568        0x4 build/tsb0//home/karl/SimplicityStudio_v5/developer/sdks/gecko_sdk_suite/v3.2/hardware/kit/common/drivers/retargetserial.o
 .bss.rxWriteIndex
                0x000000002000c56c        0x4 build/tsb0//home/karl/SimplicityStudio_v5/developer/sdks/gecko_sdk_suite/v3.2/hardware/kit/common/drivers/retargetserial.o
 .bss.rxCount   0x000000002000c570        0x4 build/tsb0//home/karl/SimplicityStudio_v5/developer/sdks/gecko_sdk_suite/v3.2/hardware/kit/common/drivers/retargetserial.o
 .bss.rxBuffer  0x000000002000c574        0x8 build/tsb0//home/karl/SimplicityStudio_v5/developer/sdks/gecko_sdk_suite/v3.2/hardware/kit/common/drivers/retargetserial.o
 .bss.LFtoCRLF  0x000000002000c57c        0x1 build/tsb0//home/karl/SimplicityStudio_v5/developer/sdks/gecko_sdk_suite/v3.2/hardware/kit/common/drivers/retargetserial.o
 .bss.initialized
                0x000000002000c57d        0x1 build/tsb0//home/karl/SimplicityStudio_v5/developer/sdks/gecko_sdk_suite/v3.2/hardware/kit/common/drivers/retargetserial.o
 *fill*         0x000000002000c57e        0x2 
 .bss.vScaleEM01Config
                0x000000002000c580        0x1 build/tsb0//home/karl/SimplicityStudio_v5/developer/sdks/gecko_sdk_suite/v3.2/platform/emlib/src/em_emu.o
 *fill*         0x000000002000c581        0x3 
 .bss.log_mutex
                0x000000002000c584        0x4 build/tsb0//home/karl/node-apps/zoo/thinnect.node-platform/silabs/logger_fwrite.o
 .bss.log_put_func
                0x000000002000c588        0x4 build/tsb0//home/karl/node-apps/zoo/thinnect.lll/logging/loggers_ext.o
 .bss.log_time_func
                0x000000002000c58c        0x4 build/tsb0//home/karl/node-apps/zoo/thinnect.lll/logging/loggers_ext.o
 .bss.log_level
                0x000000002000c590        0x2 build/tsb0//home/karl/node-apps/zoo/thinnect.lll/logging/loggers_ext.o
 *fill*         0x000000002000c592        0x2 
 .bss           0x000000002000c594       0x34 /usr/lib/gcc/arm-none-eabi/9.2.1/../../../arm-none-eabi/lib/thumb/v7e-m+fp/softfp/libg.a(lib_a-mallocr.o)
                0x000000002000c594                __malloc_top_pad
                0x000000002000c598                __malloc_current_mallinfo
                0x000000002000c5c0                __malloc_max_sbrked_mem
                0x000000002000c5c4                __malloc_max_total_mem
 .bss           0x000000002000c5c8        0x4 /usr/lib/gcc/arm-none-eabi/9.2.1/../../../arm-none-eabi/lib/thumb/v7e-m+fp/softfp/libnosys.a(sbrk.o)
 *(COMMON)
 COMMON         0x000000002000c5cc        0x4 /usr/lib/gcc/arm-none-eabi/9.2.1/../../../arm-none-eabi/lib/thumb/v7e-m+fp/softfp/libg.a(lib_a-reent.o)
                0x000000002000c5cc                errno
                0x000000002000c5d0                . = ALIGN (0x4)
                0x000000002000c5d0                __bss_end__ = .

.heap           0x000000002000c5d0      0xc00
                0x000000002000c5d0                __HeapBase = .
                0x000000002000c5d0                __end__ = .
                0x000000002000c5d0                end = __end__
                0x000000002000c5d0                _end = __end__
 *(.heap*)
 .heap          0x000000002000c5d0      0xc00 build/tsb0//home/karl/SimplicityStudio_v5/developer/sdks/gecko_sdk_suite/v3.2/platform/Device/SiliconLabs/EFR32MG12P/Source/GCC/startup_efr32mg12p.o
                0x000000002000d1d0                __HeapLimit = .

.stack_dummy    0x000000002000d1d0      0x400
 *(.stack*)
 .stack         0x000000002000d1d0      0x400 build/tsb0//home/karl/SimplicityStudio_v5/developer/sdks/gecko_sdk_suite/v3.2/platform/Device/SiliconLabs/EFR32MG12P/Source/GCC/startup_efr32mg12p.o
                0x0000000020040000                __StackTop = (ORIGIN (RAM) + LENGTH (RAM))
                0x000000002003fc00                __StackLimit = (__StackTop - SIZEOF (.stack_dummy))
                [!provide]                        PROVIDE (__stack = __StackTop)
                0x0000000000000001                ASSERT ((__StackLimit >= __HeapLimit), region RAM overflowed with stack)
                0x0000000000000001                ASSERT ((LENGTH (FLASH) >= (__etext + SIZEOF (.data))), FLASH memory overflowed !)
START GROUP
LOAD /usr/lib/gcc/arm-none-eabi/9.2.1/thumb/v7e-m+fp/softfp/libgcc.a
LOAD /usr/lib/gcc/arm-none-eabi/9.2.1/../../../arm-none-eabi/lib/thumb/v7e-m+fp/softfp/libg.a
LOAD /usr/lib/gcc/arm-none-eabi/9.2.1/../../../arm-none-eabi/lib/thumb/v7e-m+fp/softfp/libc.a
END GROUP
START GROUP
LOAD /usr/lib/gcc/arm-none-eabi/9.2.1/thumb/v7e-m+fp/softfp/libgcc.a
LOAD /usr/lib/gcc/arm-none-eabi/9.2.1/../../../arm-none-eabi/lib/thumb/v7e-m+fp/softfp/libc.a
LOAD /usr/lib/gcc/arm-none-eabi/9.2.1/../../../arm-none-eabi/lib/thumb/v7e-m+fp/softfp/libnosys.a
END GROUP
OUTPUT(build/tsb0/blink-pwm.elf elf32-littlearm)
LOAD linker stubs

.debug_info     0x0000000000000000    0x49c41
 .debug_info    0x0000000000000000      0xf25 build/tsb0/blink_pwm_main.o
 .debug_info    0x0000000000000f25      0xb63 build/tsb0/timer_handler.o
 .debug_info    0x0000000000001a88      0x443 build/tsb0//home/karl/node-apps/zoo/FreeRTOS-Kernel/portable/GCC/ARM_CM4F/port.o
 .debug_info    0x0000000000001ecb      0xd8d build/tsb0//home/karl/node-apps/zoo/FreeRTOS-Kernel/portable/MemMang/heap_5.o
 .debug_info    0x0000000000002c58     0x1d96 build/tsb0//home/karl/node-apps/zoo/FreeRTOS-Kernel/queue.o
 .debug_info    0x00000000000049ee      0xbcd build/tsb0//home/karl/node-apps/zoo/FreeRTOS-Kernel/list.o
 .debug_info    0x00000000000055bb     0x267e build/tsb0//home/karl/node-apps/zoo/FreeRTOS-Kernel/tasks.o
 .debug_info    0x0000000000007c39     0x1a10 build/tsb0//home/karl/node-apps/zoo/FreeRTOS-Kernel/timers.o
 .debug_info    0x0000000000009649     0x4ac7 build/tsb0//home/karl/node-apps/zoo/thinnect.cmsis-freertos/CMSIS-FreeRTOS/CMSIS/RTOS2/FreeRTOS/Source/cmsis_os2.o
 .debug_info    0x000000000000e110     0x15cb build/tsb0//home/karl/SimplicityStudio_v5/developer/sdks/gecko_sdk_suite/v3.2/hardware/kit/common/drivers/retargetserial.o
 .debug_info    0x000000000000f6db      0xdaa build/tsb0//home/karl/SimplicityStudio_v5/developer/sdks/gecko_sdk_suite/v3.2/hardware/kit/common/drivers/retargetio.o
 .debug_info    0x0000000000010485      0xd41 build/tsb0//home/karl/SimplicityStudio_v5/developer/sdks/gecko_sdk_suite/v3.2/platform/emlib/src/em_core.o
 .debug_info    0x00000000000111c6     0x2519 build/tsb0//home/karl/SimplicityStudio_v5/developer/sdks/gecko_sdk_suite/v3.2/platform/emlib/src/em_emu.o
 .debug_info    0x00000000000136df     0x23d3 build/tsb0//home/karl/SimplicityStudio_v5/developer/sdks/gecko_sdk_suite/v3.2/platform/emlib/src/em_cmu.o
 .debug_info    0x0000000000015ab2      0x378 build/tsb0//home/karl/SimplicityStudio_v5/developer/sdks/gecko_sdk_suite/v3.2/platform/emlib/src/em_rmu.o
 .debug_info    0x0000000000015e2a      0xa7c build/tsb0//home/karl/SimplicityStudio_v5/developer/sdks/gecko_sdk_suite/v3.2/platform/emlib/src/em_gpio.o
 .debug_info    0x00000000000168a6     0x1002 build/tsb0//home/karl/SimplicityStudio_v5/developer/sdks/gecko_sdk_suite/v3.2/platform/emlib/src/em_usart.o
 .debug_info    0x00000000000178a8      0xbd3 build/tsb0//home/karl/SimplicityStudio_v5/developer/sdks/gecko_sdk_suite/v3.2/platform/emlib/src/em_msc.o
 .debug_info    0x000000000001847b      0x9cc build/tsb0//home/karl/SimplicityStudio_v5/developer/sdks/gecko_sdk_suite/v3.2/platform/emlib/src/em_timer.o
 .debug_info    0x0000000000018e47      0x9b2 build/tsb0//home/karl/node-apps/zoo/thinnect.node-platform/silabs/logger_fwrite.o
 .debug_info    0x00000000000197f9      0xbb9 build/tsb0//home/karl/node-apps/zoo/thinnect.lll/logging/loggers_ext.o
 .debug_info    0x000000000001a3b2      0x26a build/tsb0//home/karl/SimplicityStudio_v5/developer/sdks/gecko_sdk_suite/v3.2/platform/Device/SiliconLabs/EFR32MG12P/Source/GCC/startup_efr32mg12p.o
 .debug_info    0x000000000001a61c      0x887 build/tsb0//home/karl/SimplicityStudio_v5/developer/sdks/gecko_sdk_suite/v3.2/platform/Device/SiliconLabs/EFR32MG12P/Source/system_efr32mg12p.o
 .debug_info    0x000000000001aea3     0x1cc0 build/tsb0//home/karl/node-apps/zoo/thinnect.dev-platforms/make/boards/../../src/boards/tsb0/platform.o
 .debug_info    0x000000000001cb63     0x1233 build/tsb0//home/karl/node-apps/zoo/thinnect.node-platform/silabs/platform_io.o
 .debug_info    0x000000000001dd96       0x26 /usr/lib/gcc/arm-none-eabi/9.2.1/thumb/v7e-m+fp/softfp/libgcc.a(_aeabi_uldivmod.o)
 .debug_info    0x000000000001ddbc      0xd7c /usr/lib/gcc/arm-none-eabi/9.2.1/thumb/v7e-m+fp/softfp/libgcc.a(_udivmoddi4.o)
 .debug_info    0x000000000001eb38       0x26 /usr/lib/gcc/arm-none-eabi/9.2.1/thumb/v7e-m+fp/softfp/libgcc.a(_dvmd_tls.o)
 .debug_info    0x000000000001eb5e      0xd73 /usr/lib/gcc/arm-none-eabi/9.2.1/../../../arm-none-eabi/lib/thumb/v7e-m+fp/softfp/libg.a(lib_a-fflush.o)
 .debug_info    0x000000000001f8d1     0x1143 /usr/lib/gcc/arm-none-eabi/9.2.1/../../../arm-none-eabi/lib/thumb/v7e-m+fp/softfp/libg.a(lib_a-findfp.o)
 .debug_info    0x0000000000020a14      0xdc4 /usr/lib/gcc/arm-none-eabi/9.2.1/../../../arm-none-eabi/lib/thumb/v7e-m+fp/softfp/libg.a(lib_a-freer.o)
 .debug_info    0x00000000000217d8      0xca4 /usr/lib/gcc/arm-none-eabi/9.2.1/../../../arm-none-eabi/lib/thumb/v7e-m+fp/softfp/libg.a(lib_a-fwalk.o)
 .debug_info    0x000000000002247c      0xd23 /usr/lib/gcc/arm-none-eabi/9.2.1/../../../arm-none-eabi/lib/thumb/v7e-m+fp/softfp/libg.a(lib_a-fwrite.o)
 .debug_info    0x000000000002319f      0x92a /usr/lib/gcc/arm-none-eabi/9.2.1/../../../arm-none-eabi/lib/thumb/v7e-m+fp/softfp/libg.a(lib_a-impure.o)
 .debug_info    0x0000000000023ac9      0xf41 /usr/lib/gcc/arm-none-eabi/9.2.1/../../../arm-none-eabi/lib/thumb/v7e-m+fp/softfp/libg.a(lib_a-mallocr.o)
 .debug_info    0x0000000000024a0a       0x26 /usr/lib/gcc/arm-none-eabi/9.2.1/../../../arm-none-eabi/lib/thumb/v7e-m+fp/softfp/libg.a(lib_a-memcpy.o)
 .debug_info    0x0000000000024a30      0xf21 /usr/lib/gcc/arm-none-eabi/9.2.1/../../../arm-none-eabi/lib/thumb/v7e-m+fp/softfp/libg.a(lib_a-memset.o)
 .debug_info    0x0000000000025951      0x961 /usr/lib/gcc/arm-none-eabi/9.2.1/../../../arm-none-eabi/lib/thumb/v7e-m+fp/softfp/libg.a(lib_a-mlock.o)
 .debug_info    0x00000000000262b2      0x9fb /usr/lib/gcc/arm-none-eabi/9.2.1/../../../arm-none-eabi/lib/thumb/v7e-m+fp/softfp/libg.a(lib_a-sbrkr.o)
 .debug_info    0x0000000000026cad      0xce2 /usr/lib/gcc/arm-none-eabi/9.2.1/../../../arm-none-eabi/lib/thumb/v7e-m+fp/softfp/libg.a(lib_a-setvbuf.o)
 .debug_info    0x000000000002798f      0xd4a /usr/lib/gcc/arm-none-eabi/9.2.1/../../../arm-none-eabi/lib/thumb/v7e-m+fp/softfp/libg.a(lib_a-snprintf.o)
 .debug_info    0x00000000000286d9      0xe67 /usr/lib/gcc/arm-none-eabi/9.2.1/../../../arm-none-eabi/lib/thumb/v7e-m+fp/softfp/libg.a(lib_a-stdio.o)
 .debug_info    0x0000000000029540     0x1ec0 /usr/lib/gcc/arm-none-eabi/9.2.1/../../../arm-none-eabi/lib/thumb/v7e-m+fp/softfp/libg.a(lib_a-svfprintf.o)
 .debug_info    0x000000000002b400      0xceb /usr/lib/gcc/arm-none-eabi/9.2.1/../../../arm-none-eabi/lib/thumb/v7e-m+fp/softfp/libg.a(lib_a-vsnprintf.o)
 .debug_info    0x000000000002c0eb      0xa2c /usr/lib/gcc/arm-none-eabi/9.2.1/../../../arm-none-eabi/lib/thumb/v7e-m+fp/softfp/libg.a(lib_a-writer.o)
 .debug_info    0x000000000002cb17      0x9d8 /usr/lib/gcc/arm-none-eabi/9.2.1/../../../arm-none-eabi/lib/thumb/v7e-m+fp/softfp/libg.a(lib_a-closer.o)
 .debug_info    0x000000000002d4ef     0x1ab5 /usr/lib/gcc/arm-none-eabi/9.2.1/../../../arm-none-eabi/lib/thumb/v7e-m+fp/softfp/libg.a(lib_a-dtoa.o)
 .debug_info    0x000000000002efa4      0xcd5 /usr/lib/gcc/arm-none-eabi/9.2.1/../../../arm-none-eabi/lib/thumb/v7e-m+fp/softfp/libg.a(lib_a-fclose.o)
 .debug_info    0x000000000002fc79      0xeed /usr/lib/gcc/arm-none-eabi/9.2.1/../../../arm-none-eabi/lib/thumb/v7e-m+fp/softfp/libg.a(lib_a-fvwrite.o)
 .debug_info    0x0000000000030b66      0xf49 /usr/lib/gcc/arm-none-eabi/9.2.1/../../../arm-none-eabi/lib/thumb/v7e-m+fp/softfp/libg.a(lib_a-localeconv.o)
 .debug_info    0x0000000000031aaf      0xa0d /usr/lib/gcc/arm-none-eabi/9.2.1/../../../arm-none-eabi/lib/thumb/v7e-m+fp/softfp/libg.a(lib_a-lseekr.o)
 .debug_info    0x00000000000324bc      0xf69 /usr/lib/gcc/arm-none-eabi/9.2.1/../../../arm-none-eabi/lib/thumb/v7e-m+fp/softfp/libg.a(lib_a-makebuf.o)
 .debug_info    0x0000000000033425      0x9b6 /usr/lib/gcc/arm-none-eabi/9.2.1/../../../arm-none-eabi/lib/thumb/v7e-m+fp/softfp/libg.a(lib_a-malloc.o)
 .debug_info    0x0000000000033ddb       0x26 /usr/lib/gcc/arm-none-eabi/9.2.1/../../../arm-none-eabi/lib/thumb/v7e-m+fp/softfp/libg.a(lib_a-memchr.o)
 .debug_info    0x0000000000033e01      0xf2b /usr/lib/gcc/arm-none-eabi/9.2.1/../../../arm-none-eabi/lib/thumb/v7e-m+fp/softfp/libg.a(lib_a-memmove.o)
 .debug_info    0x0000000000034d2c     0x2285 /usr/lib/gcc/arm-none-eabi/9.2.1/../../../arm-none-eabi/lib/thumb/v7e-m+fp/softfp/libg.a(lib_a-mprec.o)
 .debug_info    0x0000000000036fb1      0xa25 /usr/lib/gcc/arm-none-eabi/9.2.1/../../../arm-none-eabi/lib/thumb/v7e-m+fp/softfp/libg.a(lib_a-readr.o)
 .debug_info    0x00000000000379d6      0xefd /usr/lib/gcc/arm-none-eabi/9.2.1/../../../arm-none-eabi/lib/thumb/v7e-m+fp/softfp/libg.a(lib_a-reallocr.o)
 .debug_info    0x00000000000388d3      0xac5 /usr/lib/gcc/arm-none-eabi/9.2.1/../../../arm-none-eabi/lib/thumb/v7e-m+fp/softfp/libg.a(lib_a-reent.o)
 .debug_info    0x0000000000039398       0x26 /usr/lib/gcc/arm-none-eabi/9.2.1/../../../arm-none-eabi/lib/thumb/v7e-m+fp/softfp/libg.a(lib_a-strlen.o)
 .debug_info    0x00000000000393be     0x18fe /usr/lib/gcc/arm-none-eabi/9.2.1/../../../arm-none-eabi/lib/thumb/v7e-m+fp/softfp/libg.a(lib_a-svfiprintf.o)
 .debug_info    0x000000000003acbc      0xbf3 /usr/lib/gcc/arm-none-eabi/9.2.1/../../../arm-none-eabi/lib/thumb/v7e-m+fp/softfp/libg.a(lib_a-wsetup.o)
 .debug_info    0x000000000003b8af      0xa41 /usr/lib/gcc/arm-none-eabi/9.2.1/../../../arm-none-eabi/lib/thumb/v7e-m+fp/softfp/libg.a(lib_a-assert.o)
 .debug_info    0x000000000003c2f0      0xc2f /usr/lib/gcc/arm-none-eabi/9.2.1/../../../arm-none-eabi/lib/thumb/v7e-m+fp/softfp/libg.a(lib_a-callocr.o)
 .debug_info    0x000000000003cf1f      0xa71 /usr/lib/gcc/arm-none-eabi/9.2.1/../../../arm-none-eabi/lib/thumb/v7e-m+fp/softfp/libg.a(lib_a-fiprintf.o)
 .debug_info    0x000000000003d990      0xc24 /usr/lib/gcc/arm-none-eabi/9.2.1/../../../arm-none-eabi/lib/thumb/v7e-m+fp/softfp/libg.a(lib_a-fstatr.o)
 .debug_info    0x000000000003e5b4      0x9d8 /usr/lib/gcc/arm-none-eabi/9.2.1/../../../arm-none-eabi/lib/thumb/v7e-m+fp/softfp/libg.a(lib_a-isattyr.o)
 .debug_info    0x000000000003ef8c     0x10ca /usr/lib/gcc/arm-none-eabi/9.2.1/../../../arm-none-eabi/lib/thumb/v7e-m+fp/softfp/libg.a(lib_a-locale.o)
 .debug_info    0x0000000000040056     0x1044 /usr/lib/gcc/arm-none-eabi/9.2.1/../../../arm-none-eabi/lib/thumb/v7e-m+fp/softfp/libg.a(lib_a-mbtowc_r.o)
 .debug_info    0x000000000004109a       0x26 /usr/lib/gcc/arm-none-eabi/9.2.1/../../../arm-none-eabi/lib/thumb/v7e-m+fp/softfp/libg.a(lib_a-strcmp.o)
 .debug_info    0x00000000000410c0     0x1eb6 /usr/lib/gcc/arm-none-eabi/9.2.1/../../../arm-none-eabi/lib/thumb/v7e-m+fp/softfp/libg.a(lib_a-vfiprintf.o)
 .debug_info    0x0000000000042f76      0xffd /usr/lib/gcc/arm-none-eabi/9.2.1/../../../arm-none-eabi/lib/thumb/v7e-m+fp/softfp/libg.a(lib_a-wctomb_r.o)
 .debug_info    0x0000000000043f73      0x9b5 /usr/lib/gcc/arm-none-eabi/9.2.1/../../../arm-none-eabi/lib/thumb/v7e-m+fp/softfp/libg.a(lib_a-abort.o)
 .debug_info    0x0000000000044928      0xe91 /usr/lib/gcc/arm-none-eabi/9.2.1/../../../arm-none-eabi/lib/thumb/v7e-m+fp/softfp/libg.a(lib_a-ctype_.o)
 .debug_info    0x00000000000457b9      0xe4a /usr/lib/gcc/arm-none-eabi/9.2.1/../../../arm-none-eabi/lib/thumb/v7e-m+fp/softfp/libg.a(lib_a-fputwc.o)
 .debug_info    0x0000000000046603      0xd5c /usr/lib/gcc/arm-none-eabi/9.2.1/../../../arm-none-eabi/lib/thumb/v7e-m+fp/softfp/libg.a(lib_a-signal.o)
 .debug_info    0x000000000004735f      0xa44 /usr/lib/gcc/arm-none-eabi/9.2.1/../../../arm-none-eabi/lib/thumb/v7e-m+fp/softfp/libg.a(lib_a-signalr.o)
 .debug_info    0x0000000000047da3      0xc90 /usr/lib/gcc/arm-none-eabi/9.2.1/../../../arm-none-eabi/lib/thumb/v7e-m+fp/softfp/libg.a(lib_a-wbuf.o)
 .debug_info    0x0000000000048a33     0x10b3 /usr/lib/gcc/arm-none-eabi/9.2.1/../../../arm-none-eabi/lib/thumb/v7e-m+fp/softfp/libg.a(lib_a-wcrtomb.o)
 .debug_info    0x0000000000049ae6       0x26 /usr/lib/gcc/arm-none-eabi/9.2.1/thumb/v7e-m+fp/softfp/libgcc.a(_arm_addsubdf3.o)
 .debug_info    0x0000000000049b0c       0x26 /usr/lib/gcc/arm-none-eabi/9.2.1/thumb/v7e-m+fp/softfp/libgcc.a(_arm_muldivdf3.o)
 .debug_info    0x0000000000049b32       0x26 /usr/lib/gcc/arm-none-eabi/9.2.1/thumb/v7e-m+fp/softfp/libgcc.a(_arm_cmpdf2.o)
 .debug_info    0x0000000000049b58       0x26 /usr/lib/gcc/arm-none-eabi/9.2.1/thumb/v7e-m+fp/softfp/libgcc.a(_arm_unorddf2.o)
 .debug_info    0x0000000000049b7e       0x26 /usr/lib/gcc/arm-none-eabi/9.2.1/thumb/v7e-m+fp/softfp/libgcc.a(_arm_fixdfsi.o)
 .debug_info    0x0000000000049ba4       0x9d /usr/lib/gcc/arm-none-eabi/9.2.1/../../../arm-none-eabi/lib/thumb/v7e-m+fp/softfp/libnosys.a(sbrk.o)

.debug_abbrev   0x0000000000000000     0xc889
 .debug_abbrev  0x0000000000000000      0x2e3 build/tsb0/blink_pwm_main.o
 .debug_abbrev  0x00000000000002e3      0x299 build/tsb0/timer_handler.o
 .debug_abbrev  0x000000000000057c      0x25f build/tsb0//home/karl/node-apps/zoo/FreeRTOS-Kernel/portable/GCC/ARM_CM4F/port.o
 .debug_abbrev  0x00000000000007db      0x2b1 build/tsb0//home/karl/node-apps/zoo/FreeRTOS-Kernel/portable/MemMang/heap_5.o
 .debug_abbrev  0x0000000000000a8c      0x37c build/tsb0//home/karl/node-apps/zoo/FreeRTOS-Kernel/queue.o
 .debug_abbrev  0x0000000000000e08      0x237 build/tsb0//home/karl/node-apps/zoo/FreeRTOS-Kernel/list.o
 .debug_abbrev  0x000000000000103f      0x3da build/tsb0//home/karl/node-apps/zoo/FreeRTOS-Kernel/tasks.o
 .debug_abbrev  0x0000000000001419      0x317 build/tsb0//home/karl/node-apps/zoo/FreeRTOS-Kernel/timers.o
 .debug_abbrev  0x0000000000001730      0x4c0 build/tsb0//home/karl/node-apps/zoo/thinnect.cmsis-freertos/CMSIS-FreeRTOS/CMSIS/RTOS2/FreeRTOS/Source/cmsis_os2.o
 .debug_abbrev  0x0000000000001bf0      0x3b9 build/tsb0//home/karl/SimplicityStudio_v5/developer/sdks/gecko_sdk_suite/v3.2/hardware/kit/common/drivers/retargetserial.o
 .debug_abbrev  0x0000000000001fa9      0x295 build/tsb0//home/karl/SimplicityStudio_v5/developer/sdks/gecko_sdk_suite/v3.2/hardware/kit/common/drivers/retargetio.o
 .debug_abbrev  0x000000000000223e      0x2c6 build/tsb0//home/karl/SimplicityStudio_v5/developer/sdks/gecko_sdk_suite/v3.2/platform/emlib/src/em_core.o
 .debug_abbrev  0x0000000000002504      0x3b1 build/tsb0//home/karl/SimplicityStudio_v5/developer/sdks/gecko_sdk_suite/v3.2/platform/emlib/src/em_emu.o
 .debug_abbrev  0x00000000000028b5      0x3c6 build/tsb0//home/karl/SimplicityStudio_v5/developer/sdks/gecko_sdk_suite/v3.2/platform/emlib/src/em_cmu.o
 .debug_abbrev  0x0000000000002c7b      0x228 build/tsb0//home/karl/SimplicityStudio_v5/developer/sdks/gecko_sdk_suite/v3.2/platform/emlib/src/em_rmu.o
 .debug_abbrev  0x0000000000002ea3      0x29e build/tsb0//home/karl/SimplicityStudio_v5/developer/sdks/gecko_sdk_suite/v3.2/platform/emlib/src/em_gpio.o
 .debug_abbrev  0x0000000000003141      0x280 build/tsb0//home/karl/SimplicityStudio_v5/developer/sdks/gecko_sdk_suite/v3.2/platform/emlib/src/em_usart.o
 .debug_abbrev  0x00000000000033c1      0x20d build/tsb0//home/karl/SimplicityStudio_v5/developer/sdks/gecko_sdk_suite/v3.2/platform/emlib/src/em_msc.o
 .debug_abbrev  0x00000000000035ce      0x263 build/tsb0//home/karl/SimplicityStudio_v5/developer/sdks/gecko_sdk_suite/v3.2/platform/emlib/src/em_timer.o
 .debug_abbrev  0x0000000000003831      0x22a build/tsb0//home/karl/node-apps/zoo/thinnect.node-platform/silabs/logger_fwrite.o
 .debug_abbrev  0x0000000000003a5b      0x25d build/tsb0//home/karl/node-apps/zoo/thinnect.lll/logging/loggers_ext.o
 .debug_abbrev  0x0000000000003cb8      0x141 build/tsb0//home/karl/SimplicityStudio_v5/developer/sdks/gecko_sdk_suite/v3.2/platform/Device/SiliconLabs/EFR32MG12P/Source/GCC/startup_efr32mg12p.o
 .debug_abbrev  0x0000000000003df9      0x225 build/tsb0//home/karl/SimplicityStudio_v5/developer/sdks/gecko_sdk_suite/v3.2/platform/Device/SiliconLabs/EFR32MG12P/Source/system_efr32mg12p.o
 .debug_abbrev  0x000000000000401e      0x2b1 build/tsb0//home/karl/node-apps/zoo/thinnect.dev-platforms/make/boards/../../src/boards/tsb0/platform.o
 .debug_abbrev  0x00000000000042cf      0x3ed build/tsb0//home/karl/node-apps/zoo/thinnect.node-platform/silabs/platform_io.o
 .debug_abbrev  0x00000000000046bc       0x14 /usr/lib/gcc/arm-none-eabi/9.2.1/thumb/v7e-m+fp/softfp/libgcc.a(_aeabi_uldivmod.o)
 .debug_abbrev  0x00000000000046d0      0x1c2 /usr/lib/gcc/arm-none-eabi/9.2.1/thumb/v7e-m+fp/softfp/libgcc.a(_udivmoddi4.o)
 .debug_abbrev  0x0000000000004892       0x14 /usr/lib/gcc/arm-none-eabi/9.2.1/thumb/v7e-m+fp/softfp/libgcc.a(_dvmd_tls.o)
 .debug_abbrev  0x00000000000048a6      0x322 /usr/lib/gcc/arm-none-eabi/9.2.1/../../../arm-none-eabi/lib/thumb/v7e-m+fp/softfp/libg.a(lib_a-fflush.o)
 .debug_abbrev  0x0000000000004bc8      0x425 /usr/lib/gcc/arm-none-eabi/9.2.1/../../../arm-none-eabi/lib/thumb/v7e-m+fp/softfp/libg.a(lib_a-findfp.o)
 .debug_abbrev  0x0000000000004fed      0x2c9 /usr/lib/gcc/arm-none-eabi/9.2.1/../../../arm-none-eabi/lib/thumb/v7e-m+fp/softfp/libg.a(lib_a-freer.o)
 .debug_abbrev  0x00000000000052b6      0x24e /usr/lib/gcc/arm-none-eabi/9.2.1/../../../arm-none-eabi/lib/thumb/v7e-m+fp/softfp/libg.a(lib_a-fwalk.o)
 .debug_abbrev  0x0000000000005504      0x2ad /usr/lib/gcc/arm-none-eabi/9.2.1/../../../arm-none-eabi/lib/thumb/v7e-m+fp/softfp/libg.a(lib_a-fwrite.o)
 .debug_abbrev  0x00000000000057b1      0x1b8 /usr/lib/gcc/arm-none-eabi/9.2.1/../../../arm-none-eabi/lib/thumb/v7e-m+fp/softfp/libg.a(lib_a-impure.o)
 .debug_abbrev  0x0000000000005969      0x321 /usr/lib/gcc/arm-none-eabi/9.2.1/../../../arm-none-eabi/lib/thumb/v7e-m+fp/softfp/libg.a(lib_a-mallocr.o)
 .debug_abbrev  0x0000000000005c8a       0x14 /usr/lib/gcc/arm-none-eabi/9.2.1/../../../arm-none-eabi/lib/thumb/v7e-m+fp/softfp/libg.a(lib_a-memcpy.o)
 .debug_abbrev  0x0000000000005c9e      0x217 /usr/lib/gcc/arm-none-eabi/9.2.1/../../../arm-none-eabi/lib/thumb/v7e-m+fp/softfp/libg.a(lib_a-memset.o)
 .debug_abbrev  0x0000000000005eb5      0x203 /usr/lib/gcc/arm-none-eabi/9.2.1/../../../arm-none-eabi/lib/thumb/v7e-m+fp/softfp/libg.a(lib_a-mlock.o)
 .debug_abbrev  0x00000000000060b8      0x250 /usr/lib/gcc/arm-none-eabi/9.2.1/../../../arm-none-eabi/lib/thumb/v7e-m+fp/softfp/libg.a(lib_a-sbrkr.o)
 .debug_abbrev  0x0000000000006308      0x2bb /usr/lib/gcc/arm-none-eabi/9.2.1/../../../arm-none-eabi/lib/thumb/v7e-m+fp/softfp/libg.a(lib_a-setvbuf.o)
 .debug_abbrev  0x00000000000065c3      0x2ba /usr/lib/gcc/arm-none-eabi/9.2.1/../../../arm-none-eabi/lib/thumb/v7e-m+fp/softfp/libg.a(lib_a-snprintf.o)
 .debug_abbrev  0x000000000000687d      0x2ad /usr/lib/gcc/arm-none-eabi/9.2.1/../../../arm-none-eabi/lib/thumb/v7e-m+fp/softfp/libg.a(lib_a-stdio.o)
 .debug_abbrev  0x0000000000006b2a      0x415 /usr/lib/gcc/arm-none-eabi/9.2.1/../../../arm-none-eabi/lib/thumb/v7e-m+fp/softfp/libg.a(lib_a-svfprintf.o)
 .debug_abbrev  0x0000000000006f3f      0x2b5 /usr/lib/gcc/arm-none-eabi/9.2.1/../../../arm-none-eabi/lib/thumb/v7e-m+fp/softfp/libg.a(lib_a-vsnprintf.o)
 .debug_abbrev  0x00000000000071f4      0x22a /usr/lib/gcc/arm-none-eabi/9.2.1/../../../arm-none-eabi/lib/thumb/v7e-m+fp/softfp/libg.a(lib_a-writer.o)
 .debug_abbrev  0x000000000000741e      0x225 /usr/lib/gcc/arm-none-eabi/9.2.1/../../../arm-none-eabi/lib/thumb/v7e-m+fp/softfp/libg.a(lib_a-closer.o)
 .debug_abbrev  0x0000000000007643      0x343 /usr/lib/gcc/arm-none-eabi/9.2.1/../../../arm-none-eabi/lib/thumb/v7e-m+fp/softfp/libg.a(lib_a-dtoa.o)
 .debug_abbrev  0x0000000000007986      0x327 /usr/lib/gcc/arm-none-eabi/9.2.1/../../../arm-none-eabi/lib/thumb/v7e-m+fp/softfp/libg.a(lib_a-fclose.o)
 .debug_abbrev  0x0000000000007cad      0x2ae /usr/lib/gcc/arm-none-eabi/9.2.1/../../../arm-none-eabi/lib/thumb/v7e-m+fp/softfp/libg.a(lib_a-fvwrite.o)
 .debug_abbrev  0x0000000000007f5b      0x27d /usr/lib/gcc/arm-none-eabi/9.2.1/../../../arm-none-eabi/lib/thumb/v7e-m+fp/softfp/libg.a(lib_a-localeconv.o)
 .debug_abbrev  0x00000000000081d8      0x239 /usr/lib/gcc/arm-none-eabi/9.2.1/../../../arm-none-eabi/lib/thumb/v7e-m+fp/softfp/libg.a(lib_a-lseekr.o)
 .debug_abbrev  0x0000000000008411      0x334 /usr/lib/gcc/arm-none-eabi/9.2.1/../../../arm-none-eabi/lib/thumb/v7e-m+fp/softfp/libg.a(lib_a-makebuf.o)
 .debug_abbrev  0x0000000000008745      0x230 /usr/lib/gcc/arm-none-eabi/9.2.1/../../../arm-none-eabi/lib/thumb/v7e-m+fp/softfp/libg.a(lib_a-malloc.o)
 .debug_abbrev  0x0000000000008975       0x14 /usr/lib/gcc/arm-none-eabi/9.2.1/../../../arm-none-eabi/lib/thumb/v7e-m+fp/softfp/libg.a(lib_a-memchr.o)
 .debug_abbrev  0x0000000000008989      0x21c /usr/lib/gcc/arm-none-eabi/9.2.1/../../../arm-none-eabi/lib/thumb/v7e-m+fp/softfp/libg.a(lib_a-memmove.o)
 .debug_abbrev  0x0000000000008ba5      0x4b7 /usr/lib/gcc/arm-none-eabi/9.2.1/../../../arm-none-eabi/lib/thumb/v7e-m+fp/softfp/libg.a(lib_a-mprec.o)
 .debug_abbrev  0x000000000000905c      0x225 /usr/lib/gcc/arm-none-eabi/9.2.1/../../../arm-none-eabi/lib/thumb/v7e-m+fp/softfp/libg.a(lib_a-readr.o)
 .debug_abbrev  0x0000000000009281      0x2a8 /usr/lib/gcc/arm-none-eabi/9.2.1/../../../arm-none-eabi/lib/thumb/v7e-m+fp/softfp/libg.a(lib_a-reallocr.o)
 .debug_abbrev  0x0000000000009529      0x2ba /usr/lib/gcc/arm-none-eabi/9.2.1/../../../arm-none-eabi/lib/thumb/v7e-m+fp/softfp/libg.a(lib_a-reent.o)
 .debug_abbrev  0x00000000000097e3       0x14 /usr/lib/gcc/arm-none-eabi/9.2.1/../../../arm-none-eabi/lib/thumb/v7e-m+fp/softfp/libg.a(lib_a-strlen.o)
 .debug_abbrev  0x00000000000097f7      0x352 /usr/lib/gcc/arm-none-eabi/9.2.1/../../../arm-none-eabi/lib/thumb/v7e-m+fp/softfp/libg.a(lib_a-svfiprintf.o)
 .debug_abbrev  0x0000000000009b49      0x283 /usr/lib/gcc/arm-none-eabi/9.2.1/../../../arm-none-eabi/lib/thumb/v7e-m+fp/softfp/libg.a(lib_a-wsetup.o)
 .debug_abbrev  0x0000000000009dcc      0x23d /usr/lib/gcc/arm-none-eabi/9.2.1/../../../arm-none-eabi/lib/thumb/v7e-m+fp/softfp/libg.a(lib_a-assert.o)
 .debug_abbrev  0x000000000000a009      0x275 /usr/lib/gcc/arm-none-eabi/9.2.1/../../../arm-none-eabi/lib/thumb/v7e-m+fp/softfp/libg.a(lib_a-callocr.o)
 .debug_abbrev  0x000000000000a27e      0x255 /usr/lib/gcc/arm-none-eabi/9.2.1/../../../arm-none-eabi/lib/thumb/v7e-m+fp/softfp/libg.a(lib_a-fiprintf.o)
 .debug_abbrev  0x000000000000a4d3      0x239 /usr/lib/gcc/arm-none-eabi/9.2.1/../../../arm-none-eabi/lib/thumb/v7e-m+fp/softfp/libg.a(lib_a-fstatr.o)
 .debug_abbrev  0x000000000000a70c      0x225 /usr/lib/gcc/arm-none-eabi/9.2.1/../../../arm-none-eabi/lib/thumb/v7e-m+fp/softfp/libg.a(lib_a-isattyr.o)
 .debug_abbrev  0x000000000000a931      0x2e8 /usr/lib/gcc/arm-none-eabi/9.2.1/../../../arm-none-eabi/lib/thumb/v7e-m+fp/softfp/libg.a(lib_a-locale.o)
 .debug_abbrev  0x000000000000ac19      0x25f /usr/lib/gcc/arm-none-eabi/9.2.1/../../../arm-none-eabi/lib/thumb/v7e-m+fp/softfp/libg.a(lib_a-mbtowc_r.o)
 .debug_abbrev  0x000000000000ae78       0x14 /usr/lib/gcc/arm-none-eabi/9.2.1/../../../arm-none-eabi/lib/thumb/v7e-m+fp/softfp/libg.a(lib_a-strcmp.o)
 .debug_abbrev  0x000000000000ae8c      0x468 /usr/lib/gcc/arm-none-eabi/9.2.1/../../../arm-none-eabi/lib/thumb/v7e-m+fp/softfp/libg.a(lib_a-vfiprintf.o)
 .debug_abbrev  0x000000000000b2f4      0x269 /usr/lib/gcc/arm-none-eabi/9.2.1/../../../arm-none-eabi/lib/thumb/v7e-m+fp/softfp/libg.a(lib_a-wctomb_r.o)
 .debug_abbrev  0x000000000000b55d      0x20b /usr/lib/gcc/arm-none-eabi/9.2.1/../../../arm-none-eabi/lib/thumb/v7e-m+fp/softfp/libg.a(lib_a-abort.o)
 .debug_abbrev  0x000000000000b768      0x1b6 /usr/lib/gcc/arm-none-eabi/9.2.1/../../../arm-none-eabi/lib/thumb/v7e-m+fp/softfp/libg.a(lib_a-ctype_.o)
 .debug_abbrev  0x000000000000b91e      0x38c /usr/lib/gcc/arm-none-eabi/9.2.1/../../../arm-none-eabi/lib/thumb/v7e-m+fp/softfp/libg.a(lib_a-fputwc.o)
 .debug_abbrev  0x000000000000bcaa      0x36b /usr/lib/gcc/arm-none-eabi/9.2.1/../../../arm-none-eabi/lib/thumb/v7e-m+fp/softfp/libg.a(lib_a-signal.o)
 .debug_abbrev  0x000000000000c015      0x255 /usr/lib/gcc/arm-none-eabi/9.2.1/../../../arm-none-eabi/lib/thumb/v7e-m+fp/softfp/libg.a(lib_a-signalr.o)
 .debug_abbrev  0x000000000000c26a      0x2c3 /usr/lib/gcc/arm-none-eabi/9.2.1/../../../arm-none-eabi/lib/thumb/v7e-m+fp/softfp/libg.a(lib_a-wbuf.o)
 .debug_abbrev  0x000000000000c52d      0x256 /usr/lib/gcc/arm-none-eabi/9.2.1/../../../arm-none-eabi/lib/thumb/v7e-m+fp/softfp/libg.a(lib_a-wcrtomb.o)
 .debug_abbrev  0x000000000000c783       0x14 /usr/lib/gcc/arm-none-eabi/9.2.1/thumb/v7e-m+fp/softfp/libgcc.a(_arm_addsubdf3.o)
 .debug_abbrev  0x000000000000c797       0x14 /usr/lib/gcc/arm-none-eabi/9.2.1/thumb/v7e-m+fp/softfp/libgcc.a(_arm_muldivdf3.o)
 .debug_abbrev  0x000000000000c7ab       0x14 /usr/lib/gcc/arm-none-eabi/9.2.1/thumb/v7e-m+fp/softfp/libgcc.a(_arm_cmpdf2.o)
 .debug_abbrev  0x000000000000c7bf       0x14 /usr/lib/gcc/arm-none-eabi/9.2.1/thumb/v7e-m+fp/softfp/libgcc.a(_arm_unorddf2.o)
 .debug_abbrev  0x000000000000c7d3       0x14 /usr/lib/gcc/arm-none-eabi/9.2.1/thumb/v7e-m+fp/softfp/libgcc.a(_arm_fixdfsi.o)
 .debug_abbrev  0x000000000000c7e7       0xa2 /usr/lib/gcc/arm-none-eabi/9.2.1/../../../arm-none-eabi/lib/thumb/v7e-m+fp/softfp/libnosys.a(sbrk.o)

.debug_aranges  0x0000000000000000     0x1a40
 .debug_aranges
                0x0000000000000000       0x50 build/tsb0/blink_pwm_main.o
 .debug_aranges
                0x0000000000000050       0x88 build/tsb0/timer_handler.o
 .debug_aranges
                0x00000000000000d8       0x80 build/tsb0//home/karl/node-apps/zoo/FreeRTOS-Kernel/portable/GCC/ARM_CM4F/port.o
 .debug_aranges
                0x0000000000000158       0x50 build/tsb0//home/karl/node-apps/zoo/FreeRTOS-Kernel/portable/MemMang/heap_5.o
 .debug_aranges
                0x00000000000001a8      0x140 build/tsb0//home/karl/node-apps/zoo/FreeRTOS-Kernel/queue.o
 .debug_aranges
                0x00000000000002e8       0x40 build/tsb0//home/karl/node-apps/zoo/FreeRTOS-Kernel/list.o
 .debug_aranges
                0x0000000000000328      0x208 build/tsb0//home/karl/node-apps/zoo/FreeRTOS-Kernel/tasks.o
 .debug_aranges
                0x0000000000000530       0xf0 build/tsb0//home/karl/node-apps/zoo/FreeRTOS-Kernel/timers.o
 .debug_aranges
                0x0000000000000620      0x2a0 build/tsb0//home/karl/node-apps/zoo/thinnect.cmsis-freertos/CMSIS-FreeRTOS/CMSIS/RTOS2/FreeRTOS/Source/cmsis_os2.o
 .debug_aranges
                0x00000000000008c0       0x90 build/tsb0//home/karl/SimplicityStudio_v5/developer/sdks/gecko_sdk_suite/v3.2/hardware/kit/common/drivers/retargetserial.o
 .debug_aranges
                0x0000000000000950       0x60 build/tsb0//home/karl/SimplicityStudio_v5/developer/sdks/gecko_sdk_suite/v3.2/hardware/kit/common/drivers/retargetio.o
 .debug_aranges
                0x00000000000009b0       0xe8 build/tsb0//home/karl/SimplicityStudio_v5/developer/sdks/gecko_sdk_suite/v3.2/platform/emlib/src/em_core.o
 .debug_aranges
                0x0000000000000a98      0x208 build/tsb0//home/karl/SimplicityStudio_v5/developer/sdks/gecko_sdk_suite/v3.2/platform/emlib/src/em_emu.o
 .debug_aranges
                0x0000000000000ca0      0x1d8 build/tsb0//home/karl/SimplicityStudio_v5/developer/sdks/gecko_sdk_suite/v3.2/platform/emlib/src/em_cmu.o
 .debug_aranges
                0x0000000000000e78       0x38 build/tsb0//home/karl/SimplicityStudio_v5/developer/sdks/gecko_sdk_suite/v3.2/platform/emlib/src/em_rmu.o
 .debug_aranges
                0x0000000000000eb0       0x88 build/tsb0//home/karl/SimplicityStudio_v5/developer/sdks/gecko_sdk_suite/v3.2/platform/emlib/src/em_gpio.o
 .debug_aranges
                0x0000000000000f38       0xd0 build/tsb0//home/karl/SimplicityStudio_v5/developer/sdks/gecko_sdk_suite/v3.2/platform/emlib/src/em_usart.o
 .debug_aranges
                0x0000000000001008       0x78 build/tsb0//home/karl/SimplicityStudio_v5/developer/sdks/gecko_sdk_suite/v3.2/platform/emlib/src/em_msc.o
 .debug_aranges
                0x0000000000001080       0x60 build/tsb0//home/karl/SimplicityStudio_v5/developer/sdks/gecko_sdk_suite/v3.2/platform/emlib/src/em_timer.o
 .debug_aranges
                0x00000000000010e0       0x28 build/tsb0//home/karl/node-apps/zoo/thinnect.node-platform/silabs/logger_fwrite.o
 .debug_aranges
                0x0000000000001108       0x38 build/tsb0//home/karl/node-apps/zoo/thinnect.lll/logging/loggers_ext.o
 .debug_aranges
                0x0000000000001140       0x28 build/tsb0//home/karl/SimplicityStudio_v5/developer/sdks/gecko_sdk_suite/v3.2/platform/Device/SiliconLabs/EFR32MG12P/Source/GCC/startup_efr32mg12p.o
 .debug_aranges
                0x0000000000001168       0x68 build/tsb0//home/karl/SimplicityStudio_v5/developer/sdks/gecko_sdk_suite/v3.2/platform/Device/SiliconLabs/EFR32MG12P/Source/system_efr32mg12p.o
 .debug_aranges
                0x00000000000011d0       0x40 build/tsb0//home/karl/node-apps/zoo/thinnect.dev-platforms/make/boards/../../src/boards/tsb0/platform.o
 .debug_aranges
                0x0000000000001210       0xc0 build/tsb0//home/karl/node-apps/zoo/thinnect.node-platform/silabs/platform_io.o
 .debug_aranges
                0x00000000000012d0       0x20 /usr/lib/gcc/arm-none-eabi/9.2.1/thumb/v7e-m+fp/softfp/libgcc.a(_aeabi_uldivmod.o)
 .debug_aranges
                0x00000000000012f0       0x20 /usr/lib/gcc/arm-none-eabi/9.2.1/thumb/v7e-m+fp/softfp/libgcc.a(_udivmoddi4.o)
 .debug_aranges
                0x0000000000001310       0x20 /usr/lib/gcc/arm-none-eabi/9.2.1/thumb/v7e-m+fp/softfp/libgcc.a(_dvmd_tls.o)
 .debug_aranges
                0x0000000000001330       0x20 /usr/lib/gcc/arm-none-eabi/9.2.1/../../../arm-none-eabi/lib/thumb/v7e-m+fp/softfp/libg.a(lib_a-fflush.o)
 .debug_aranges
                0x0000000000001350       0x20 /usr/lib/gcc/arm-none-eabi/9.2.1/../../../arm-none-eabi/lib/thumb/v7e-m+fp/softfp/libg.a(lib_a-findfp.o)
 .debug_aranges
                0x0000000000001370       0x20 /usr/lib/gcc/arm-none-eabi/9.2.1/../../../arm-none-eabi/lib/thumb/v7e-m+fp/softfp/libg.a(lib_a-freer.o)
 .debug_aranges
                0x0000000000001390       0x20 /usr/lib/gcc/arm-none-eabi/9.2.1/../../../arm-none-eabi/lib/thumb/v7e-m+fp/softfp/libg.a(lib_a-fwalk.o)
 .debug_aranges
                0x00000000000013b0       0x20 /usr/lib/gcc/arm-none-eabi/9.2.1/../../../arm-none-eabi/lib/thumb/v7e-m+fp/softfp/libg.a(lib_a-fwrite.o)
 .debug_aranges
                0x00000000000013d0       0x18 /usr/lib/gcc/arm-none-eabi/9.2.1/../../../arm-none-eabi/lib/thumb/v7e-m+fp/softfp/libg.a(lib_a-impure.o)
 .debug_aranges
                0x00000000000013e8       0x20 /usr/lib/gcc/arm-none-eabi/9.2.1/../../../arm-none-eabi/lib/thumb/v7e-m+fp/softfp/libg.a(lib_a-mallocr.o)
 .debug_aranges
                0x0000000000001408       0x20 /usr/lib/gcc/arm-none-eabi/9.2.1/../../../arm-none-eabi/lib/thumb/v7e-m+fp/softfp/libg.a(lib_a-memcpy.o)
 .debug_aranges
                0x0000000000001428       0x20 /usr/lib/gcc/arm-none-eabi/9.2.1/../../../arm-none-eabi/lib/thumb/v7e-m+fp/softfp/libg.a(lib_a-memset.o)
 .debug_aranges
                0x0000000000001448       0x20 /usr/lib/gcc/arm-none-eabi/9.2.1/../../../arm-none-eabi/lib/thumb/v7e-m+fp/softfp/libg.a(lib_a-mlock.o)
 .debug_aranges
                0x0000000000001468       0x20 /usr/lib/gcc/arm-none-eabi/9.2.1/../../../arm-none-eabi/lib/thumb/v7e-m+fp/softfp/libg.a(lib_a-sbrkr.o)
 .debug_aranges
                0x0000000000001488       0x20 /usr/lib/gcc/arm-none-eabi/9.2.1/../../../arm-none-eabi/lib/thumb/v7e-m+fp/softfp/libg.a(lib_a-setvbuf.o)
 .debug_aranges
                0x00000000000014a8       0x20 /usr/lib/gcc/arm-none-eabi/9.2.1/../../../arm-none-eabi/lib/thumb/v7e-m+fp/softfp/libg.a(lib_a-snprintf.o)
 .debug_aranges
                0x00000000000014c8       0x20 /usr/lib/gcc/arm-none-eabi/9.2.1/../../../arm-none-eabi/lib/thumb/v7e-m+fp/softfp/libg.a(lib_a-stdio.o)
 .debug_aranges
                0x00000000000014e8       0x20 /usr/lib/gcc/arm-none-eabi/9.2.1/../../../arm-none-eabi/lib/thumb/v7e-m+fp/softfp/libg.a(lib_a-svfprintf.o)
 .debug_aranges
                0x0000000000001508       0x20 /usr/lib/gcc/arm-none-eabi/9.2.1/../../../arm-none-eabi/lib/thumb/v7e-m+fp/softfp/libg.a(lib_a-vsnprintf.o)
 .debug_aranges
                0x0000000000001528       0x20 /usr/lib/gcc/arm-none-eabi/9.2.1/../../../arm-none-eabi/lib/thumb/v7e-m+fp/softfp/libg.a(lib_a-writer.o)
 .debug_aranges
                0x0000000000001548       0x20 /usr/lib/gcc/arm-none-eabi/9.2.1/../../../arm-none-eabi/lib/thumb/v7e-m+fp/softfp/libg.a(lib_a-closer.o)
 .debug_aranges
                0x0000000000001568       0x20 /usr/lib/gcc/arm-none-eabi/9.2.1/../../../arm-none-eabi/lib/thumb/v7e-m+fp/softfp/libg.a(lib_a-dtoa.o)
 .debug_aranges
                0x0000000000001588       0x20 /usr/lib/gcc/arm-none-eabi/9.2.1/../../../arm-none-eabi/lib/thumb/v7e-m+fp/softfp/libg.a(lib_a-fclose.o)
 .debug_aranges
                0x00000000000015a8       0x20 /usr/lib/gcc/arm-none-eabi/9.2.1/../../../arm-none-eabi/lib/thumb/v7e-m+fp/softfp/libg.a(lib_a-fvwrite.o)
 .debug_aranges
                0x00000000000015c8       0x20 /usr/lib/gcc/arm-none-eabi/9.2.1/../../../arm-none-eabi/lib/thumb/v7e-m+fp/softfp/libg.a(lib_a-localeconv.o)
 .debug_aranges
                0x00000000000015e8       0x20 /usr/lib/gcc/arm-none-eabi/9.2.1/../../../arm-none-eabi/lib/thumb/v7e-m+fp/softfp/libg.a(lib_a-lseekr.o)
 .debug_aranges
                0x0000000000001608       0x20 /usr/lib/gcc/arm-none-eabi/9.2.1/../../../arm-none-eabi/lib/thumb/v7e-m+fp/softfp/libg.a(lib_a-makebuf.o)
 .debug_aranges
                0x0000000000001628       0x20 /usr/lib/gcc/arm-none-eabi/9.2.1/../../../arm-none-eabi/lib/thumb/v7e-m+fp/softfp/libg.a(lib_a-malloc.o)
 .debug_aranges
                0x0000000000001648       0x20 /usr/lib/gcc/arm-none-eabi/9.2.1/../../../arm-none-eabi/lib/thumb/v7e-m+fp/softfp/libg.a(lib_a-memchr.o)
 .debug_aranges
                0x0000000000001668       0x20 /usr/lib/gcc/arm-none-eabi/9.2.1/../../../arm-none-eabi/lib/thumb/v7e-m+fp/softfp/libg.a(lib_a-memmove.o)
 .debug_aranges
                0x0000000000001688       0x20 /usr/lib/gcc/arm-none-eabi/9.2.1/../../../arm-none-eabi/lib/thumb/v7e-m+fp/softfp/libg.a(lib_a-mprec.o)
 .debug_aranges
                0x00000000000016a8       0x20 /usr/lib/gcc/arm-none-eabi/9.2.1/../../../arm-none-eabi/lib/thumb/v7e-m+fp/softfp/libg.a(lib_a-readr.o)
 .debug_aranges
                0x00000000000016c8       0x20 /usr/lib/gcc/arm-none-eabi/9.2.1/../../../arm-none-eabi/lib/thumb/v7e-m+fp/softfp/libg.a(lib_a-reallocr.o)
 .debug_aranges
                0x00000000000016e8       0x20 /usr/lib/gcc/arm-none-eabi/9.2.1/../../../arm-none-eabi/lib/thumb/v7e-m+fp/softfp/libg.a(lib_a-reent.o)
 .debug_aranges
                0x0000000000001708       0x20 /usr/lib/gcc/arm-none-eabi/9.2.1/../../../arm-none-eabi/lib/thumb/v7e-m+fp/softfp/libg.a(lib_a-strlen.o)
 .debug_aranges
                0x0000000000001728       0x20 /usr/lib/gcc/arm-none-eabi/9.2.1/../../../arm-none-eabi/lib/thumb/v7e-m+fp/softfp/libg.a(lib_a-svfiprintf.o)
 .debug_aranges
                0x0000000000001748       0x20 /usr/lib/gcc/arm-none-eabi/9.2.1/../../../arm-none-eabi/lib/thumb/v7e-m+fp/softfp/libg.a(lib_a-wsetup.o)
 .debug_aranges
                0x0000000000001768       0x20 /usr/lib/gcc/arm-none-eabi/9.2.1/../../../arm-none-eabi/lib/thumb/v7e-m+fp/softfp/libg.a(lib_a-assert.o)
 .debug_aranges
                0x0000000000001788       0x20 /usr/lib/gcc/arm-none-eabi/9.2.1/../../../arm-none-eabi/lib/thumb/v7e-m+fp/softfp/libg.a(lib_a-callocr.o)
 .debug_aranges
                0x00000000000017a8       0x20 /usr/lib/gcc/arm-none-eabi/9.2.1/../../../arm-none-eabi/lib/thumb/v7e-m+fp/softfp/libg.a(lib_a-fiprintf.o)
 .debug_aranges
                0x00000000000017c8       0x20 /usr/lib/gcc/arm-none-eabi/9.2.1/../../../arm-none-eabi/lib/thumb/v7e-m+fp/softfp/libg.a(lib_a-fstatr.o)
 .debug_aranges
                0x00000000000017e8       0x20 /usr/lib/gcc/arm-none-eabi/9.2.1/../../../arm-none-eabi/lib/thumb/v7e-m+fp/softfp/libg.a(lib_a-isattyr.o)
 .debug_aranges
                0x0000000000001808       0x20 /usr/lib/gcc/arm-none-eabi/9.2.1/../../../arm-none-eabi/lib/thumb/v7e-m+fp/softfp/libg.a(lib_a-locale.o)
 .debug_aranges
                0x0000000000001828       0x20 /usr/lib/gcc/arm-none-eabi/9.2.1/../../../arm-none-eabi/lib/thumb/v7e-m+fp/softfp/libg.a(lib_a-mbtowc_r.o)
 .debug_aranges
                0x0000000000001848       0x20 /usr/lib/gcc/arm-none-eabi/9.2.1/../../../arm-none-eabi/lib/thumb/v7e-m+fp/softfp/libg.a(lib_a-strcmp.o)
 .debug_aranges
                0x0000000000001868       0x20 /usr/lib/gcc/arm-none-eabi/9.2.1/../../../arm-none-eabi/lib/thumb/v7e-m+fp/softfp/libg.a(lib_a-vfiprintf.o)
 .debug_aranges
                0x0000000000001888       0x20 /usr/lib/gcc/arm-none-eabi/9.2.1/../../../arm-none-eabi/lib/thumb/v7e-m+fp/softfp/libg.a(lib_a-wctomb_r.o)
 .debug_aranges
                0x00000000000018a8       0x20 /usr/lib/gcc/arm-none-eabi/9.2.1/../../../arm-none-eabi/lib/thumb/v7e-m+fp/softfp/libg.a(lib_a-abort.o)
 .debug_aranges
                0x00000000000018c8       0x18 /usr/lib/gcc/arm-none-eabi/9.2.1/../../../arm-none-eabi/lib/thumb/v7e-m+fp/softfp/libg.a(lib_a-ctype_.o)
 .debug_aranges
                0x00000000000018e0       0x20 /usr/lib/gcc/arm-none-eabi/9.2.1/../../../arm-none-eabi/lib/thumb/v7e-m+fp/softfp/libg.a(lib_a-fputwc.o)
 .debug_aranges
                0x0000000000001900       0x20 /usr/lib/gcc/arm-none-eabi/9.2.1/../../../arm-none-eabi/lib/thumb/v7e-m+fp/softfp/libg.a(lib_a-signal.o)
 .debug_aranges
                0x0000000000001920       0x20 /usr/lib/gcc/arm-none-eabi/9.2.1/../../../arm-none-eabi/lib/thumb/v7e-m+fp/softfp/libg.a(lib_a-signalr.o)
 .debug_aranges
                0x0000000000001940       0x20 /usr/lib/gcc/arm-none-eabi/9.2.1/../../../arm-none-eabi/lib/thumb/v7e-m+fp/softfp/libg.a(lib_a-wbuf.o)
 .debug_aranges
                0x0000000000001960       0x20 /usr/lib/gcc/arm-none-eabi/9.2.1/../../../arm-none-eabi/lib/thumb/v7e-m+fp/softfp/libg.a(lib_a-wcrtomb.o)
 .debug_aranges
                0x0000000000001980       0x20 /usr/lib/gcc/arm-none-eabi/9.2.1/thumb/v7e-m+fp/softfp/libgcc.a(_arm_addsubdf3.o)
 .debug_aranges
                0x00000000000019a0       0x20 /usr/lib/gcc/arm-none-eabi/9.2.1/thumb/v7e-m+fp/softfp/libgcc.a(_arm_muldivdf3.o)
 .debug_aranges
                0x00000000000019c0       0x20 /usr/lib/gcc/arm-none-eabi/9.2.1/thumb/v7e-m+fp/softfp/libgcc.a(_arm_cmpdf2.o)
 .debug_aranges
                0x00000000000019e0       0x20 /usr/lib/gcc/arm-none-eabi/9.2.1/thumb/v7e-m+fp/softfp/libgcc.a(_arm_unorddf2.o)
 .debug_aranges
                0x0000000000001a00       0x20 /usr/lib/gcc/arm-none-eabi/9.2.1/thumb/v7e-m+fp/softfp/libgcc.a(_arm_fixdfsi.o)
 .debug_aranges
                0x0000000000001a20       0x20 /usr/lib/gcc/arm-none-eabi/9.2.1/../../../arm-none-eabi/lib/thumb/v7e-m+fp/softfp/libnosys.a(sbrk.o)

.debug_ranges   0x0000000000000000     0x1b70
 .debug_ranges  0x0000000000000000       0x40 build/tsb0/blink_pwm_main.o
 .debug_ranges  0x0000000000000040       0x78 build/tsb0/timer_handler.o
 .debug_ranges  0x00000000000000b8       0x70 build/tsb0//home/karl/node-apps/zoo/FreeRTOS-Kernel/portable/GCC/ARM_CM4F/port.o
 .debug_ranges  0x0000000000000128       0x40 build/tsb0//home/karl/node-apps/zoo/FreeRTOS-Kernel/portable/MemMang/heap_5.o
 .debug_ranges  0x0000000000000168      0x130 build/tsb0//home/karl/node-apps/zoo/FreeRTOS-Kernel/queue.o
 .debug_ranges  0x0000000000000298       0x30 build/tsb0//home/karl/node-apps/zoo/FreeRTOS-Kernel/list.o
 .debug_ranges  0x00000000000002c8      0x1f8 build/tsb0//home/karl/node-apps/zoo/FreeRTOS-Kernel/tasks.o
 .debug_ranges  0x00000000000004c0       0xe0 build/tsb0//home/karl/node-apps/zoo/FreeRTOS-Kernel/timers.o
 .debug_ranges  0x00000000000005a0      0x290 build/tsb0//home/karl/node-apps/zoo/thinnect.cmsis-freertos/CMSIS-FreeRTOS/CMSIS/RTOS2/FreeRTOS/Source/cmsis_os2.o
 .debug_ranges  0x0000000000000830       0x80 build/tsb0//home/karl/SimplicityStudio_v5/developer/sdks/gecko_sdk_suite/v3.2/hardware/kit/common/drivers/retargetserial.o
 .debug_ranges  0x00000000000008b0       0x50 build/tsb0//home/karl/SimplicityStudio_v5/developer/sdks/gecko_sdk_suite/v3.2/hardware/kit/common/drivers/retargetio.o
 .debug_ranges  0x0000000000000900       0xd8 build/tsb0//home/karl/SimplicityStudio_v5/developer/sdks/gecko_sdk_suite/v3.2/platform/emlib/src/em_core.o
 .debug_ranges  0x00000000000009d8      0x1f8 build/tsb0//home/karl/SimplicityStudio_v5/developer/sdks/gecko_sdk_suite/v3.2/platform/emlib/src/em_emu.o
 .debug_ranges  0x0000000000000bd0      0x1c8 build/tsb0//home/karl/SimplicityStudio_v5/developer/sdks/gecko_sdk_suite/v3.2/platform/emlib/src/em_cmu.o
 .debug_ranges  0x0000000000000d98       0x28 build/tsb0//home/karl/SimplicityStudio_v5/developer/sdks/gecko_sdk_suite/v3.2/platform/emlib/src/em_rmu.o
 .debug_ranges  0x0000000000000dc0       0x78 build/tsb0//home/karl/SimplicityStudio_v5/developer/sdks/gecko_sdk_suite/v3.2/platform/emlib/src/em_gpio.o
 .debug_ranges  0x0000000000000e38       0xc0 build/tsb0//home/karl/SimplicityStudio_v5/developer/sdks/gecko_sdk_suite/v3.2/platform/emlib/src/em_usart.o
 .debug_ranges  0x0000000000000ef8       0x68 build/tsb0//home/karl/SimplicityStudio_v5/developer/sdks/gecko_sdk_suite/v3.2/platform/emlib/src/em_msc.o
 .debug_ranges  0x0000000000000f60       0x50 build/tsb0//home/karl/SimplicityStudio_v5/developer/sdks/gecko_sdk_suite/v3.2/platform/emlib/src/em_timer.o
 .debug_ranges  0x0000000000000fb0       0x18 build/tsb0//home/karl/node-apps/zoo/thinnect.node-platform/silabs/logger_fwrite.o
 .debug_ranges  0x0000000000000fc8       0x28 build/tsb0//home/karl/node-apps/zoo/thinnect.lll/logging/loggers_ext.o
 .debug_ranges  0x0000000000000ff0       0x18 build/tsb0//home/karl/SimplicityStudio_v5/developer/sdks/gecko_sdk_suite/v3.2/platform/Device/SiliconLabs/EFR32MG12P/Source/GCC/startup_efr32mg12p.o
 .debug_ranges  0x0000000000001008       0x58 build/tsb0//home/karl/SimplicityStudio_v5/developer/sdks/gecko_sdk_suite/v3.2/platform/Device/SiliconLabs/EFR32MG12P/Source/system_efr32mg12p.o
 .debug_ranges  0x0000000000001060       0x30 build/tsb0//home/karl/node-apps/zoo/thinnect.dev-platforms/make/boards/../../src/boards/tsb0/platform.o
 .debug_ranges  0x0000000000001090       0xb0 build/tsb0//home/karl/node-apps/zoo/thinnect.node-platform/silabs/platform_io.o
 .debug_ranges  0x0000000000001140       0xc8 /usr/lib/gcc/arm-none-eabi/9.2.1/thumb/v7e-m+fp/softfp/libgcc.a(_udivmoddi4.o)
 .debug_ranges  0x0000000000001208       0x70 /usr/lib/gcc/arm-none-eabi/9.2.1/../../../arm-none-eabi/lib/thumb/v7e-m+fp/softfp/libg.a(lib_a-fflush.o)
 .debug_ranges  0x0000000000001278      0x118 /usr/lib/gcc/arm-none-eabi/9.2.1/../../../arm-none-eabi/lib/thumb/v7e-m+fp/softfp/libg.a(lib_a-findfp.o)
 .debug_ranges  0x0000000000001390       0x20 /usr/lib/gcc/arm-none-eabi/9.2.1/../../../arm-none-eabi/lib/thumb/v7e-m+fp/softfp/libg.a(lib_a-fwrite.o)
 .debug_ranges  0x00000000000013b0       0x38 /usr/lib/gcc/arm-none-eabi/9.2.1/../../../arm-none-eabi/lib/thumb/v7e-m+fp/softfp/libg.a(lib_a-mallocr.o)
 .debug_ranges  0x00000000000013e8       0x20 /usr/lib/gcc/arm-none-eabi/9.2.1/../../../arm-none-eabi/lib/thumb/v7e-m+fp/softfp/libg.a(lib_a-setvbuf.o)
 .debug_ranges  0x0000000000001408      0x178 /usr/lib/gcc/arm-none-eabi/9.2.1/../../../arm-none-eabi/lib/thumb/v7e-m+fp/softfp/libg.a(lib_a-svfprintf.o)
 .debug_ranges  0x0000000000001580       0x38 /usr/lib/gcc/arm-none-eabi/9.2.1/../../../arm-none-eabi/lib/thumb/v7e-m+fp/softfp/libg.a(lib_a-dtoa.o)
 .debug_ranges  0x00000000000015b8       0x30 /usr/lib/gcc/arm-none-eabi/9.2.1/../../../arm-none-eabi/lib/thumb/v7e-m+fp/softfp/libg.a(lib_a-fclose.o)
 .debug_ranges  0x00000000000015e8       0x18 /usr/lib/gcc/arm-none-eabi/9.2.1/../../../arm-none-eabi/lib/thumb/v7e-m+fp/softfp/libg.a(lib_a-fvwrite.o)
 .debug_ranges  0x0000000000001600       0x18 /usr/lib/gcc/arm-none-eabi/9.2.1/../../../arm-none-eabi/lib/thumb/v7e-m+fp/softfp/libg.a(lib_a-makebuf.o)
 .debug_ranges  0x0000000000001618      0x138 /usr/lib/gcc/arm-none-eabi/9.2.1/../../../arm-none-eabi/lib/thumb/v7e-m+fp/softfp/libg.a(lib_a-mprec.o)
 .debug_ranges  0x0000000000001750      0x100 /usr/lib/gcc/arm-none-eabi/9.2.1/../../../arm-none-eabi/lib/thumb/v7e-m+fp/softfp/libg.a(lib_a-reallocr.o)
 .debug_ranges  0x0000000000001850       0x40 /usr/lib/gcc/arm-none-eabi/9.2.1/../../../arm-none-eabi/lib/thumb/v7e-m+fp/softfp/libg.a(lib_a-svfiprintf.o)
 .debug_ranges  0x0000000000001890       0x28 /usr/lib/gcc/arm-none-eabi/9.2.1/../../../arm-none-eabi/lib/thumb/v7e-m+fp/softfp/libg.a(lib_a-wsetup.o)
 .debug_ranges  0x00000000000018b8       0x48 /usr/lib/gcc/arm-none-eabi/9.2.1/../../../arm-none-eabi/lib/thumb/v7e-m+fp/softfp/libg.a(lib_a-callocr.o)
 .debug_ranges  0x0000000000001900      0x1c0 /usr/lib/gcc/arm-none-eabi/9.2.1/../../../arm-none-eabi/lib/thumb/v7e-m+fp/softfp/libg.a(lib_a-vfiprintf.o)
 .debug_ranges  0x0000000000001ac0       0x50 /usr/lib/gcc/arm-none-eabi/9.2.1/../../../arm-none-eabi/lib/thumb/v7e-m+fp/softfp/libg.a(lib_a-fputwc.o)
 .debug_ranges  0x0000000000001b10       0x30 /usr/lib/gcc/arm-none-eabi/9.2.1/../../../arm-none-eabi/lib/thumb/v7e-m+fp/softfp/libg.a(lib_a-signal.o)
 .debug_ranges  0x0000000000001b40       0x20 /usr/lib/gcc/arm-none-eabi/9.2.1/../../../arm-none-eabi/lib/thumb/v7e-m+fp/softfp/libg.a(lib_a-wbuf.o)
 .debug_ranges  0x0000000000001b60       0x10 /usr/lib/gcc/arm-none-eabi/9.2.1/../../../arm-none-eabi/lib/thumb/v7e-m+fp/softfp/libg.a(lib_a-wcrtomb.o)

.debug_line     0x0000000000000000    0x1bf5c
 .debug_line    0x0000000000000000      0x257 build/tsb0/blink_pwm_main.o
 .debug_line    0x0000000000000257      0x4bf build/tsb0/timer_handler.o
 .debug_line    0x0000000000000716      0x49a build/tsb0//home/karl/node-apps/zoo/FreeRTOS-Kernel/portable/GCC/ARM_CM4F/port.o
 .debug_line    0x0000000000000bb0      0x57a build/tsb0//home/karl/node-apps/zoo/FreeRTOS-Kernel/portable/MemMang/heap_5.o
 .debug_line    0x000000000000112a     0x1006 build/tsb0//home/karl/node-apps/zoo/FreeRTOS-Kernel/queue.o
 .debug_line    0x0000000000002130      0x35b build/tsb0//home/karl/node-apps/zoo/FreeRTOS-Kernel/list.o
 .debug_line    0x000000000000248b     0x1767 build/tsb0//home/karl/node-apps/zoo/FreeRTOS-Kernel/tasks.o
 .debug_line    0x0000000000003bf2      0x8b0 build/tsb0//home/karl/node-apps/zoo/FreeRTOS-Kernel/timers.o
 .debug_line    0x00000000000044a2     0x28b1 build/tsb0//home/karl/node-apps/zoo/thinnect.cmsis-freertos/CMSIS-FreeRTOS/CMSIS/RTOS2/FreeRTOS/Source/cmsis_os2.o
 .debug_line    0x0000000000006d53      0x566 build/tsb0//home/karl/SimplicityStudio_v5/developer/sdks/gecko_sdk_suite/v3.2/hardware/kit/common/drivers/retargetserial.o
 .debug_line    0x00000000000072b9      0x36c build/tsb0//home/karl/SimplicityStudio_v5/developer/sdks/gecko_sdk_suite/v3.2/hardware/kit/common/drivers/retargetio.o
 .debug_line    0x0000000000007625      0x7c1 build/tsb0//home/karl/SimplicityStudio_v5/developer/sdks/gecko_sdk_suite/v3.2/platform/emlib/src/em_core.o
 .debug_line    0x0000000000007de6     0x1749 build/tsb0//home/karl/SimplicityStudio_v5/developer/sdks/gecko_sdk_suite/v3.2/platform/emlib/src/em_emu.o
 .debug_line    0x000000000000952f     0x16e9 build/tsb0//home/karl/SimplicityStudio_v5/developer/sdks/gecko_sdk_suite/v3.2/platform/emlib/src/em_cmu.o
 .debug_line    0x000000000000ac18      0x325 build/tsb0//home/karl/SimplicityStudio_v5/developer/sdks/gecko_sdk_suite/v3.2/platform/emlib/src/em_rmu.o
 .debug_line    0x000000000000af3d      0x6a1 build/tsb0//home/karl/SimplicityStudio_v5/developer/sdks/gecko_sdk_suite/v3.2/platform/emlib/src/em_gpio.o
 .debug_line    0x000000000000b5de      0x8f4 build/tsb0//home/karl/SimplicityStudio_v5/developer/sdks/gecko_sdk_suite/v3.2/platform/emlib/src/em_usart.o
 .debug_line    0x000000000000bed2      0x779 build/tsb0//home/karl/SimplicityStudio_v5/developer/sdks/gecko_sdk_suite/v3.2/platform/emlib/src/em_msc.o
 .debug_line    0x000000000000c64b      0x74a build/tsb0//home/karl/SimplicityStudio_v5/developer/sdks/gecko_sdk_suite/v3.2/platform/emlib/src/em_timer.o
 .debug_line    0x000000000000cd95      0x190 build/tsb0//home/karl/node-apps/zoo/thinnect.node-platform/silabs/logger_fwrite.o
 .debug_line    0x000000000000cf25      0x329 build/tsb0//home/karl/node-apps/zoo/thinnect.lll/logging/loggers_ext.o
 .debug_line    0x000000000000d24e      0x25a build/tsb0//home/karl/SimplicityStudio_v5/developer/sdks/gecko_sdk_suite/v3.2/platform/Device/SiliconLabs/EFR32MG12P/Source/GCC/startup_efr32mg12p.o
 .debug_line    0x000000000000d4a8      0x335 build/tsb0//home/karl/SimplicityStudio_v5/developer/sdks/gecko_sdk_suite/v3.2/platform/Device/SiliconLabs/EFR32MG12P/Source/system_efr32mg12p.o
 .debug_line    0x000000000000d7dd      0x3bb build/tsb0//home/karl/node-apps/zoo/thinnect.dev-platforms/make/boards/../../src/boards/tsb0/platform.o
 .debug_line    0x000000000000db98      0x6c0 build/tsb0//home/karl/node-apps/zoo/thinnect.node-platform/silabs/platform_io.o
 .debug_line    0x000000000000e258       0x60 /usr/lib/gcc/arm-none-eabi/9.2.1/thumb/v7e-m+fp/softfp/libgcc.a(_aeabi_uldivmod.o)
 .debug_line    0x000000000000e2b8      0x61a /usr/lib/gcc/arm-none-eabi/9.2.1/thumb/v7e-m+fp/softfp/libgcc.a(_udivmoddi4.o)
 .debug_line    0x000000000000e8d2       0x60 /usr/lib/gcc/arm-none-eabi/9.2.1/thumb/v7e-m+fp/softfp/libgcc.a(_dvmd_tls.o)
 .debug_line    0x000000000000e932      0x430 /usr/lib/gcc/arm-none-eabi/9.2.1/../../../arm-none-eabi/lib/thumb/v7e-m+fp/softfp/libg.a(lib_a-fflush.o)
 .debug_line    0x000000000000ed62      0x526 /usr/lib/gcc/arm-none-eabi/9.2.1/../../../arm-none-eabi/lib/thumb/v7e-m+fp/softfp/libg.a(lib_a-findfp.o)
 .debug_line    0x000000000000f288      0x51c /usr/lib/gcc/arm-none-eabi/9.2.1/../../../arm-none-eabi/lib/thumb/v7e-m+fp/softfp/libg.a(lib_a-freer.o)
 .debug_line    0x000000000000f7a4      0x289 /usr/lib/gcc/arm-none-eabi/9.2.1/../../../arm-none-eabi/lib/thumb/v7e-m+fp/softfp/libg.a(lib_a-fwalk.o)
 .debug_line    0x000000000000fa2d      0x221 /usr/lib/gcc/arm-none-eabi/9.2.1/../../../arm-none-eabi/lib/thumb/v7e-m+fp/softfp/libg.a(lib_a-fwrite.o)
 .debug_line    0x000000000000fc4e       0xe3 /usr/lib/gcc/arm-none-eabi/9.2.1/../../../arm-none-eabi/lib/thumb/v7e-m+fp/softfp/libg.a(lib_a-impure.o)
 .debug_line    0x000000000000fd31      0x89e /usr/lib/gcc/arm-none-eabi/9.2.1/../../../arm-none-eabi/lib/thumb/v7e-m+fp/softfp/libg.a(lib_a-mallocr.o)
 .debug_line    0x00000000000105cf       0xbe /usr/lib/gcc/arm-none-eabi/9.2.1/../../../arm-none-eabi/lib/thumb/v7e-m+fp/softfp/libg.a(lib_a-memcpy.o)
 .debug_line    0x000000000001068d      0x26b /usr/lib/gcc/arm-none-eabi/9.2.1/../../../arm-none-eabi/lib/thumb/v7e-m+fp/softfp/libg.a(lib_a-memset.o)
 .debug_line    0x00000000000108f8      0x13d /usr/lib/gcc/arm-none-eabi/9.2.1/../../../arm-none-eabi/lib/thumb/v7e-m+fp/softfp/libg.a(lib_a-mlock.o)
 .debug_line    0x0000000000010a35      0x182 /usr/lib/gcc/arm-none-eabi/9.2.1/../../../arm-none-eabi/lib/thumb/v7e-m+fp/softfp/libg.a(lib_a-sbrkr.o)
 .debug_line    0x0000000000010bb7      0x364 /usr/lib/gcc/arm-none-eabi/9.2.1/../../../arm-none-eabi/lib/thumb/v7e-m+fp/softfp/libg.a(lib_a-setvbuf.o)
 .debug_line    0x0000000000010f1b      0x3ab /usr/lib/gcc/arm-none-eabi/9.2.1/../../../arm-none-eabi/lib/thumb/v7e-m+fp/softfp/libg.a(lib_a-snprintf.o)
 .debug_line    0x00000000000112c6      0x25f /usr/lib/gcc/arm-none-eabi/9.2.1/../../../arm-none-eabi/lib/thumb/v7e-m+fp/softfp/libg.a(lib_a-stdio.o)
 .debug_line    0x0000000000011525     0x161e /usr/lib/gcc/arm-none-eabi/9.2.1/../../../arm-none-eabi/lib/thumb/v7e-m+fp/softfp/libg.a(lib_a-svfprintf.o)
 .debug_line    0x0000000000012b43      0x291 /usr/lib/gcc/arm-none-eabi/9.2.1/../../../arm-none-eabi/lib/thumb/v7e-m+fp/softfp/libg.a(lib_a-vsnprintf.o)
 .debug_line    0x0000000000012dd4      0x188 /usr/lib/gcc/arm-none-eabi/9.2.1/../../../arm-none-eabi/lib/thumb/v7e-m+fp/softfp/libg.a(lib_a-writer.o)
 .debug_line    0x0000000000012f5c      0x182 /usr/lib/gcc/arm-none-eabi/9.2.1/../../../arm-none-eabi/lib/thumb/v7e-m+fp/softfp/libg.a(lib_a-closer.o)
 .debug_line    0x00000000000130de     0x13a0 /usr/lib/gcc/arm-none-eabi/9.2.1/../../../arm-none-eabi/lib/thumb/v7e-m+fp/softfp/libg.a(lib_a-dtoa.o)
 .debug_line    0x000000000001447e      0x23d /usr/lib/gcc/arm-none-eabi/9.2.1/../../../arm-none-eabi/lib/thumb/v7e-m+fp/softfp/libg.a(lib_a-fclose.o)
 .debug_line    0x00000000000146bb      0x5e8 /usr/lib/gcc/arm-none-eabi/9.2.1/../../../arm-none-eabi/lib/thumb/v7e-m+fp/softfp/libg.a(lib_a-fvwrite.o)
 .debug_line    0x0000000000014ca3      0x1ca /usr/lib/gcc/arm-none-eabi/9.2.1/../../../arm-none-eabi/lib/thumb/v7e-m+fp/softfp/libg.a(lib_a-localeconv.o)
 .debug_line    0x0000000000014e6d      0x188 /usr/lib/gcc/arm-none-eabi/9.2.1/../../../arm-none-eabi/lib/thumb/v7e-m+fp/softfp/libg.a(lib_a-lseekr.o)
 .debug_line    0x0000000000014ff5      0x35d /usr/lib/gcc/arm-none-eabi/9.2.1/../../../arm-none-eabi/lib/thumb/v7e-m+fp/softfp/libg.a(lib_a-makebuf.o)
 .debug_line    0x0000000000015352      0x15e /usr/lib/gcc/arm-none-eabi/9.2.1/../../../arm-none-eabi/lib/thumb/v7e-m+fp/softfp/libg.a(lib_a-malloc.o)
 .debug_line    0x00000000000154b0       0xa4 /usr/lib/gcc/arm-none-eabi/9.2.1/../../../arm-none-eabi/lib/thumb/v7e-m+fp/softfp/libg.a(lib_a-memchr.o)
 .debug_line    0x0000000000015554      0x287 /usr/lib/gcc/arm-none-eabi/9.2.1/../../../arm-none-eabi/lib/thumb/v7e-m+fp/softfp/libg.a(lib_a-memmove.o)
 .debug_line    0x00000000000157db     0x1433 /usr/lib/gcc/arm-none-eabi/9.2.1/../../../arm-none-eabi/lib/thumb/v7e-m+fp/softfp/libg.a(lib_a-mprec.o)
 .debug_line    0x0000000000016c0e      0x187 /usr/lib/gcc/arm-none-eabi/9.2.1/../../../arm-none-eabi/lib/thumb/v7e-m+fp/softfp/libg.a(lib_a-readr.o)
 .debug_line    0x0000000000016d95      0x653 /usr/lib/gcc/arm-none-eabi/9.2.1/../../../arm-none-eabi/lib/thumb/v7e-m+fp/softfp/libg.a(lib_a-reallocr.o)
 .debug_line    0x00000000000173e8      0x21b /usr/lib/gcc/arm-none-eabi/9.2.1/../../../arm-none-eabi/lib/thumb/v7e-m+fp/softfp/libg.a(lib_a-reent.o)
 .debug_line    0x0000000000017603       0xaf /usr/lib/gcc/arm-none-eabi/9.2.1/../../../arm-none-eabi/lib/thumb/v7e-m+fp/softfp/libg.a(lib_a-strlen.o)
 .debug_line    0x00000000000176b2      0xe6c /usr/lib/gcc/arm-none-eabi/9.2.1/../../../arm-none-eabi/lib/thumb/v7e-m+fp/softfp/libg.a(lib_a-svfiprintf.o)
 .debug_line    0x000000000001851e      0x2cd /usr/lib/gcc/arm-none-eabi/9.2.1/../../../arm-none-eabi/lib/thumb/v7e-m+fp/softfp/libg.a(lib_a-wsetup.o)
 .debug_line    0x00000000000187eb      0x18d /usr/lib/gcc/arm-none-eabi/9.2.1/../../../arm-none-eabi/lib/thumb/v7e-m+fp/softfp/libg.a(lib_a-assert.o)
 .debug_line    0x0000000000018978      0x1bb /usr/lib/gcc/arm-none-eabi/9.2.1/../../../arm-none-eabi/lib/thumb/v7e-m+fp/softfp/libg.a(lib_a-callocr.o)
 .debug_line    0x0000000000018b33      0x199 /usr/lib/gcc/arm-none-eabi/9.2.1/../../../arm-none-eabi/lib/thumb/v7e-m+fp/softfp/libg.a(lib_a-fiprintf.o)
 .debug_line    0x0000000000018ccc      0x213 /usr/lib/gcc/arm-none-eabi/9.2.1/../../../arm-none-eabi/lib/thumb/v7e-m+fp/softfp/libg.a(lib_a-fstatr.o)
 .debug_line    0x0000000000018edf      0x183 /usr/lib/gcc/arm-none-eabi/9.2.1/../../../arm-none-eabi/lib/thumb/v7e-m+fp/softfp/libg.a(lib_a-isattyr.o)
 .debug_line    0x0000000000019062      0x252 /usr/lib/gcc/arm-none-eabi/9.2.1/../../../arm-none-eabi/lib/thumb/v7e-m+fp/softfp/libg.a(lib_a-locale.o)
 .debug_line    0x00000000000192b4      0x228 /usr/lib/gcc/arm-none-eabi/9.2.1/../../../arm-none-eabi/lib/thumb/v7e-m+fp/softfp/libg.a(lib_a-mbtowc_r.o)
 .debug_line    0x00000000000194dc      0x137 /usr/lib/gcc/arm-none-eabi/9.2.1/../../../arm-none-eabi/lib/thumb/v7e-m+fp/softfp/libg.a(lib_a-strcmp.o)
 .debug_line    0x0000000000019613     0x118d /usr/lib/gcc/arm-none-eabi/9.2.1/../../../arm-none-eabi/lib/thumb/v7e-m+fp/softfp/libg.a(lib_a-vfiprintf.o)
 .debug_line    0x000000000001a7a0      0x212 /usr/lib/gcc/arm-none-eabi/9.2.1/../../../arm-none-eabi/lib/thumb/v7e-m+fp/softfp/libg.a(lib_a-wctomb_r.o)
 .debug_line    0x000000000001a9b2      0x15f /usr/lib/gcc/arm-none-eabi/9.2.1/../../../arm-none-eabi/lib/thumb/v7e-m+fp/softfp/libg.a(lib_a-abort.o)
 .debug_line    0x000000000001ab11      0x154 /usr/lib/gcc/arm-none-eabi/9.2.1/../../../arm-none-eabi/lib/thumb/v7e-m+fp/softfp/libg.a(lib_a-ctype_.o)
 .debug_line    0x000000000001ac65      0x2f9 /usr/lib/gcc/arm-none-eabi/9.2.1/../../../arm-none-eabi/lib/thumb/v7e-m+fp/softfp/libg.a(lib_a-fputwc.o)
 .debug_line    0x000000000001af5e      0x3cc /usr/lib/gcc/arm-none-eabi/9.2.1/../../../arm-none-eabi/lib/thumb/v7e-m+fp/softfp/libg.a(lib_a-signal.o)
 .debug_line    0x000000000001b32a      0x1a4 /usr/lib/gcc/arm-none-eabi/9.2.1/../../../arm-none-eabi/lib/thumb/v7e-m+fp/softfp/libg.a(lib_a-signalr.o)
 .debug_line    0x000000000001b4ce      0x29b /usr/lib/gcc/arm-none-eabi/9.2.1/../../../arm-none-eabi/lib/thumb/v7e-m+fp/softfp/libg.a(lib_a-wbuf.o)
 .debug_line    0x000000000001b769      0x2b5 /usr/lib/gcc/arm-none-eabi/9.2.1/../../../arm-none-eabi/lib/thumb/v7e-m+fp/softfp/libg.a(lib_a-wcrtomb.o)
 .debug_line    0x000000000001ba1e      0x186 /usr/lib/gcc/arm-none-eabi/9.2.1/thumb/v7e-m+fp/softfp/libgcc.a(_arm_addsubdf3.o)
 .debug_line    0x000000000001bba4      0x19b /usr/lib/gcc/arm-none-eabi/9.2.1/thumb/v7e-m+fp/softfp/libgcc.a(_arm_muldivdf3.o)
 .debug_line    0x000000000001bd3f       0xbd /usr/lib/gcc/arm-none-eabi/9.2.1/thumb/v7e-m+fp/softfp/libgcc.a(_arm_cmpdf2.o)
 .debug_line    0x000000000001bdfc       0x6e /usr/lib/gcc/arm-none-eabi/9.2.1/thumb/v7e-m+fp/softfp/libgcc.a(_arm_unorddf2.o)
 .debug_line    0x000000000001be6a       0x79 /usr/lib/gcc/arm-none-eabi/9.2.1/thumb/v7e-m+fp/softfp/libgcc.a(_arm_fixdfsi.o)
 .debug_line    0x000000000001bee3       0x79 /usr/lib/gcc/arm-none-eabi/9.2.1/../../../arm-none-eabi/lib/thumb/v7e-m+fp/softfp/libnosys.a(sbrk.o)

.debug_str      0x0000000000000000     0xbbb9
 .debug_str     0x0000000000000000      0xaf5 build/tsb0/blink_pwm_main.o
                                        0xb9e (size before relaxing)
 .debug_str     0x0000000000000af5      0x9cc build/tsb0/timer_handler.o
                                        0xbc0 (size before relaxing)
 .debug_str     0x00000000000014c1      0x29c build/tsb0//home/karl/node-apps/zoo/FreeRTOS-Kernel/portable/GCC/ARM_CM4F/port.o
                                        0x4ce (size before relaxing)
 .debug_str     0x000000000000175d      0x358 build/tsb0//home/karl/node-apps/zoo/FreeRTOS-Kernel/portable/MemMang/heap_5.o
                                        0x991 (size before relaxing)
 .debug_str     0x0000000000001ab5      0x7fb build/tsb0//home/karl/node-apps/zoo/FreeRTOS-Kernel/queue.o
                                        0xef2 (size before relaxing)
 .debug_str     0x00000000000022b0       0xb9 build/tsb0//home/karl/node-apps/zoo/FreeRTOS-Kernel/list.o
                                        0x76d (size before relaxing)
 .debug_str     0x0000000000002369      0xd66 build/tsb0//home/karl/node-apps/zoo/FreeRTOS-Kernel/tasks.o
                                       0x164b (size before relaxing)
 .debug_str     0x00000000000030cf      0x5c7 build/tsb0//home/karl/node-apps/zoo/FreeRTOS-Kernel/timers.o
                                        0xf1b (size before relaxing)
 .debug_str     0x0000000000003696      0xeed build/tsb0//home/karl/node-apps/zoo/thinnect.cmsis-freertos/CMSIS-FreeRTOS/CMSIS/RTOS2/FreeRTOS/Source/cmsis_os2.o
                                       0x1ea5 (size before relaxing)
 .debug_str     0x0000000000004583      0x7ca build/tsb0//home/karl/SimplicityStudio_v5/developer/sdks/gecko_sdk_suite/v3.2/hardware/kit/common/drivers/retargetserial.o
                                       0x142a (size before relaxing)
 .debug_str     0x0000000000004d4d      0x193 build/tsb0//home/karl/SimplicityStudio_v5/developer/sdks/gecko_sdk_suite/v3.2/hardware/kit/common/drivers/retargetio.o
                                        0x804 (size before relaxing)
 .debug_str     0x0000000000004ee0      0x326 build/tsb0//home/karl/SimplicityStudio_v5/developer/sdks/gecko_sdk_suite/v3.2/platform/emlib/src/em_core.o
                                        0x95f (size before relaxing)
 .debug_str     0x0000000000005206     0x184d build/tsb0//home/karl/SimplicityStudio_v5/developer/sdks/gecko_sdk_suite/v3.2/platform/emlib/src/em_emu.o
                                       0x1ebf (size before relaxing)
 .debug_str     0x0000000000006a53      0xce3 build/tsb0//home/karl/SimplicityStudio_v5/developer/sdks/gecko_sdk_suite/v3.2/platform/emlib/src/em_cmu.o
                                       0x1adb (size before relaxing)
 .debug_str     0x0000000000007736      0x1e7 build/tsb0//home/karl/SimplicityStudio_v5/developer/sdks/gecko_sdk_suite/v3.2/platform/emlib/src/em_rmu.o
                                        0x437 (size before relaxing)
 .debug_str     0x000000000000791d      0x30a build/tsb0//home/karl/SimplicityStudio_v5/developer/sdks/gecko_sdk_suite/v3.2/platform/emlib/src/em_gpio.o
                                        0x91a (size before relaxing)
 .debug_str     0x0000000000007c27      0x4c8 build/tsb0//home/karl/SimplicityStudio_v5/developer/sdks/gecko_sdk_suite/v3.2/platform/emlib/src/em_usart.o
                                        0xdf3 (size before relaxing)
 .debug_str     0x00000000000080ef      0x2b7 build/tsb0//home/karl/SimplicityStudio_v5/developer/sdks/gecko_sdk_suite/v3.2/platform/emlib/src/em_msc.o
                                        0x76d (size before relaxing)
 .debug_str     0x00000000000083a6      0x280 build/tsb0//home/karl/SimplicityStudio_v5/developer/sdks/gecko_sdk_suite/v3.2/platform/emlib/src/em_timer.o
                                        0xa08 (size before relaxing)
 .debug_str     0x0000000000008626       0x72 build/tsb0//home/karl/node-apps/zoo/thinnect.node-platform/silabs/logger_fwrite.o
                                        0x67f (size before relaxing)
 .debug_str     0x0000000000008698       0xf2 build/tsb0//home/karl/node-apps/zoo/thinnect.lll/logging/loggers_ext.o
                                        0x6c6 (size before relaxing)
 .debug_str     0x000000000000878a      0x165 build/tsb0//home/karl/SimplicityStudio_v5/developer/sdks/gecko_sdk_suite/v3.2/platform/Device/SiliconLabs/EFR32MG12P/Source/GCC/startup_efr32mg12p.o
                                        0x393 (size before relaxing)
 .debug_str     0x00000000000088ef      0x15f build/tsb0//home/karl/SimplicityStudio_v5/developer/sdks/gecko_sdk_suite/v3.2/platform/Device/SiliconLabs/EFR32MG12P/Source/system_efr32mg12p.o
                                        0x6b3 (size before relaxing)
 .debug_str     0x0000000000008a4e       0xad build/tsb0//home/karl/node-apps/zoo/thinnect.dev-platforms/make/boards/../../src/boards/tsb0/platform.o
                                       0x1455 (size before relaxing)
 .debug_str     0x0000000000008afb      0x173 build/tsb0//home/karl/node-apps/zoo/thinnect.node-platform/silabs/platform_io.o
                                        0xd65 (size before relaxing)
 .debug_str     0x0000000000008c6e       0xa5 /usr/lib/gcc/arm-none-eabi/9.2.1/thumb/v7e-m+fp/softfp/libgcc.a(_aeabi_uldivmod.o)
 .debug_str     0x0000000000008d13     0x10ea /usr/lib/gcc/arm-none-eabi/9.2.1/thumb/v7e-m+fp/softfp/libgcc.a(_udivmoddi4.o)
                                       0x11ea (size before relaxing)
 .debug_str     0x0000000000009dfd       0x30 /usr/lib/gcc/arm-none-eabi/9.2.1/thumb/v7e-m+fp/softfp/libgcc.a(_dvmd_tls.o)
                                         0xa9 (size before relaxing)
 .debug_str     0x0000000000009e2d      0x2bc /usr/lib/gcc/arm-none-eabi/9.2.1/../../../arm-none-eabi/lib/thumb/v7e-m+fp/softfp/libg.a(lib_a-fflush.o)
                                        0x758 (size before relaxing)
 .debug_str     0x000000000000a0e9      0x17c /usr/lib/gcc/arm-none-eabi/9.2.1/../../../arm-none-eabi/lib/thumb/v7e-m+fp/softfp/libg.a(lib_a-findfp.o)
                                        0x868 (size before relaxing)
 .debug_str     0x000000000000a265      0x200 /usr/lib/gcc/arm-none-eabi/9.2.1/../../../arm-none-eabi/lib/thumb/v7e-m+fp/softfp/libg.a(lib_a-freer.o)
                                        0x787 (size before relaxing)
 .debug_str     0x000000000000a465       0x41 /usr/lib/gcc/arm-none-eabi/9.2.1/../../../arm-none-eabi/lib/thumb/v7e-m+fp/softfp/libg.a(lib_a-fwalk.o)
                                        0x71c (size before relaxing)
 .debug_str     0x000000000000a4a6       0x86 /usr/lib/gcc/arm-none-eabi/9.2.1/../../../arm-none-eabi/lib/thumb/v7e-m+fp/softfp/libg.a(lib_a-fwrite.o)
                                        0x75e (size before relaxing)
 .debug_str     0x000000000000a52c       0x9d /usr/lib/gcc/arm-none-eabi/9.2.1/../../../arm-none-eabi/lib/thumb/v7e-m+fp/softfp/libg.a(lib_a-impure.o)
                                        0x5a6 (size before relaxing)
 .debug_str     0x000000000000a5c9       0xa0 /usr/lib/gcc/arm-none-eabi/9.2.1/../../../arm-none-eabi/lib/thumb/v7e-m+fp/softfp/libg.a(lib_a-mallocr.o)
                                        0x80e (size before relaxing)
 .debug_str     0x000000000000a669       0xa7 /usr/lib/gcc/arm-none-eabi/9.2.1/../../../arm-none-eabi/lib/thumb/v7e-m+fp/softfp/libg.a(lib_a-memcpy.o)
                                         0xb3 (size before relaxing)
 .debug_str     0x000000000000a710      0x2f2 /usr/lib/gcc/arm-none-eabi/9.2.1/../../../arm-none-eabi/lib/thumb/v7e-m+fp/softfp/libg.a(lib_a-memset.o)
                                        0x8d3 (size before relaxing)
 .debug_str     0x000000000000aa02       0x4c /usr/lib/gcc/arm-none-eabi/9.2.1/../../../arm-none-eabi/lib/thumb/v7e-m+fp/softfp/libg.a(lib_a-mlock.o)
                                        0x5d2 (size before relaxing)
 .debug_str     0x000000000000aa4e       0x47 /usr/lib/gcc/arm-none-eabi/9.2.1/../../../arm-none-eabi/lib/thumb/v7e-m+fp/softfp/libg.a(lib_a-sbrkr.o)
                                        0x5e9 (size before relaxing)
 .debug_str     0x000000000000aa95       0x58 /usr/lib/gcc/arm-none-eabi/9.2.1/../../../arm-none-eabi/lib/thumb/v7e-m+fp/softfp/libg.a(lib_a-setvbuf.o)
                                        0x747 (size before relaxing)
 .debug_str     0x000000000000aaed       0x4e /usr/lib/gcc/arm-none-eabi/9.2.1/../../../arm-none-eabi/lib/thumb/v7e-m+fp/softfp/libg.a(lib_a-snprintf.o)
                                        0x747 (size before relaxing)
 .debug_str     0x000000000000ab3b       0x92 /usr/lib/gcc/arm-none-eabi/9.2.1/../../../arm-none-eabi/lib/thumb/v7e-m+fp/softfp/libg.a(lib_a-stdio.o)
                                        0x770 (size before relaxing)
 .debug_str     0x000000000000abcd      0x1cf /usr/lib/gcc/arm-none-eabi/9.2.1/../../../arm-none-eabi/lib/thumb/v7e-m+fp/softfp/libg.a(lib_a-svfprintf.o)
                                        0xc71 (size before relaxing)
 .debug_str     0x000000000000ad9c       0x4d /usr/lib/gcc/arm-none-eabi/9.2.1/../../../arm-none-eabi/lib/thumb/v7e-m+fp/softfp/libg.a(lib_a-vsnprintf.o)
                                        0x74a (size before relaxing)
 .debug_str     0x000000000000ade9       0x33 /usr/lib/gcc/arm-none-eabi/9.2.1/../../../arm-none-eabi/lib/thumb/v7e-m+fp/softfp/libg.a(lib_a-writer.o)
                                        0x5e6 (size before relaxing)
 .debug_str     0x000000000000ae1c       0x33 /usr/lib/gcc/arm-none-eabi/9.2.1/../../../arm-none-eabi/lib/thumb/v7e-m+fp/softfp/libg.a(lib_a-closer.o)
                                        0x5d6 (size before relaxing)
 .debug_str     0x000000000000ae4f      0x185 /usr/lib/gcc/arm-none-eabi/9.2.1/../../../arm-none-eabi/lib/thumb/v7e-m+fp/softfp/libg.a(lib_a-dtoa.o)
                                        0xaa3 (size before relaxing)
 .debug_str     0x000000000000afd4       0x49 /usr/lib/gcc/arm-none-eabi/9.2.1/../../../arm-none-eabi/lib/thumb/v7e-m+fp/softfp/libg.a(lib_a-fclose.o)
                                        0x741 (size before relaxing)
 .debug_str     0x000000000000b01d       0x71 /usr/lib/gcc/arm-none-eabi/9.2.1/../../../arm-none-eabi/lib/thumb/v7e-m+fp/softfp/libg.a(lib_a-fvwrite.o)
                                        0x7a9 (size before relaxing)
 .debug_str     0x000000000000b08e       0xf9 /usr/lib/gcc/arm-none-eabi/9.2.1/../../../arm-none-eabi/lib/thumb/v7e-m+fp/softfp/libg.a(lib_a-localeconv.o)
                                        0x938 (size before relaxing)
 .debug_str     0x000000000000b187       0x33 /usr/lib/gcc/arm-none-eabi/9.2.1/../../../arm-none-eabi/lib/thumb/v7e-m+fp/softfp/libg.a(lib_a-lseekr.o)
                                        0x5e4 (size before relaxing)
 .debug_str     0x000000000000b1ba       0x6c /usr/lib/gcc/arm-none-eabi/9.2.1/../../../arm-none-eabi/lib/thumb/v7e-m+fp/softfp/libg.a(lib_a-makebuf.o)
                                        0x89d (size before relaxing)
 .debug_str     0x000000000000b226       0x40 /usr/lib/gcc/arm-none-eabi/9.2.1/../../../arm-none-eabi/lib/thumb/v7e-m+fp/softfp/libg.a(lib_a-malloc.o)
                                        0x5d7 (size before relaxing)
 .debug_str     0x000000000000b266       0x3c /usr/lib/gcc/arm-none-eabi/9.2.1/../../../arm-none-eabi/lib/thumb/v7e-m+fp/softfp/libg.a(lib_a-memchr.o)
                                         0xac (size before relaxing)
 .debug_str     0x000000000000b2a2       0x5f /usr/lib/gcc/arm-none-eabi/9.2.1/../../../arm-none-eabi/lib/thumb/v7e-m+fp/softfp/libg.a(lib_a-memmove.o)
                                        0x8f2 (size before relaxing)
 .debug_str     0x000000000000b301       0x8d /usr/lib/gcc/arm-none-eabi/9.2.1/../../../arm-none-eabi/lib/thumb/v7e-m+fp/softfp/libg.a(lib_a-mprec.o)
                                        0xa4c (size before relaxing)
 .debug_str     0x000000000000b38e       0x32 /usr/lib/gcc/arm-none-eabi/9.2.1/../../../arm-none-eabi/lib/thumb/v7e-m+fp/softfp/libg.a(lib_a-readr.o)
                                        0x5e4 (size before relaxing)
 .debug_str     0x000000000000b3c0       0x4e /usr/lib/gcc/arm-none-eabi/9.2.1/../../../arm-none-eabi/lib/thumb/v7e-m+fp/softfp/libg.a(lib_a-reallocr.o)
                                        0x7c5 (size before relaxing)
 .debug_str     0x000000000000b40e       0x5e /usr/lib/gcc/arm-none-eabi/9.2.1/../../../arm-none-eabi/lib/thumb/v7e-m+fp/softfp/libg.a(lib_a-reent.o)
                                        0x5e2 (size before relaxing)
 .debug_str     0x000000000000b46c       0x42 /usr/lib/gcc/arm-none-eabi/9.2.1/../../../arm-none-eabi/lib/thumb/v7e-m+fp/softfp/libg.a(lib_a-strlen.o)
                                         0xb2 (size before relaxing)
 .debug_str     0x000000000000b4ae        0xe /usr/lib/gcc/arm-none-eabi/9.2.1/../../../arm-none-eabi/lib/thumb/v7e-m+fp/softfp/libg.a(lib_a-svfiprintf.o)
                                        0xbf2 (size before relaxing)
 .debug_str     0x000000000000b4bc       0x33 /usr/lib/gcc/arm-none-eabi/9.2.1/../../../arm-none-eabi/lib/thumb/v7e-m+fp/softfp/libg.a(lib_a-wsetup.o)
                                        0x72a (size before relaxing)
 .debug_str     0x000000000000b4ef       0x4e /usr/lib/gcc/arm-none-eabi/9.2.1/../../../arm-none-eabi/lib/thumb/v7e-m+fp/softfp/libg.a(lib_a-assert.o)
                                        0x5e6 (size before relaxing)
 .debug_str     0x000000000000b53d        0xf /usr/lib/gcc/arm-none-eabi/9.2.1/../../../arm-none-eabi/lib/thumb/v7e-m+fp/softfp/libg.a(lib_a-callocr.o)
                                        0x732 (size before relaxing)
 .debug_str     0x000000000000b54c       0x4e /usr/lib/gcc/arm-none-eabi/9.2.1/../../../arm-none-eabi/lib/thumb/v7e-m+fp/softfp/libg.a(lib_a-fiprintf.o)
                                        0x5e9 (size before relaxing)
 .debug_str     0x000000000000b59a       0x39 /usr/lib/gcc/arm-none-eabi/9.2.1/../../../arm-none-eabi/lib/thumb/v7e-m+fp/softfp/libg.a(lib_a-fstatr.o)
                                        0x744 (size before relaxing)
 .debug_str     0x000000000000b5d3       0x34 /usr/lib/gcc/arm-none-eabi/9.2.1/../../../arm-none-eabi/lib/thumb/v7e-m+fp/softfp/libg.a(lib_a-isattyr.o)
                                        0x5e0 (size before relaxing)
 .debug_str     0x000000000000b607       0x83 /usr/lib/gcc/arm-none-eabi/9.2.1/../../../arm-none-eabi/lib/thumb/v7e-m+fp/softfp/libg.a(lib_a-locale.o)
                                        0x978 (size before relaxing)
 .debug_str     0x000000000000b68a       0x55 /usr/lib/gcc/arm-none-eabi/9.2.1/../../../arm-none-eabi/lib/thumb/v7e-m+fp/softfp/libg.a(lib_a-mbtowc_r.o)
                                        0x949 (size before relaxing)
 .debug_str     0x000000000000b6df       0x42 /usr/lib/gcc/arm-none-eabi/9.2.1/../../../arm-none-eabi/lib/thumb/v7e-m+fp/softfp/libg.a(lib_a-strcmp.o)
                                         0xb2 (size before relaxing)
 .debug_str     0x000000000000b721       0x2f /usr/lib/gcc/arm-none-eabi/9.2.1/../../../arm-none-eabi/lib/thumb/v7e-m+fp/softfp/libg.a(lib_a-vfiprintf.o)
                                        0xc20 (size before relaxing)
 .debug_str     0x000000000000b750       0x56 /usr/lib/gcc/arm-none-eabi/9.2.1/../../../arm-none-eabi/lib/thumb/v7e-m+fp/softfp/libg.a(lib_a-wctomb_r.o)
                                        0x950 (size before relaxing)
 .debug_str     0x000000000000b7a6       0x39 /usr/lib/gcc/arm-none-eabi/9.2.1/../../../arm-none-eabi/lib/thumb/v7e-m+fp/softfp/libg.a(lib_a-abort.o)
                                        0x5e4 (size before relaxing)
 .debug_str     0x000000000000b7df       0x91 /usr/lib/gcc/arm-none-eabi/9.2.1/../../../arm-none-eabi/lib/thumb/v7e-m+fp/softfp/libg.a(lib_a-ctype_.o)
                                        0x8be (size before relaxing)
 .debug_str     0x000000000000b870       0x5b /usr/lib/gcc/arm-none-eabi/9.2.1/../../../arm-none-eabi/lib/thumb/v7e-m+fp/softfp/libg.a(lib_a-fputwc.o)
                                        0x770 (size before relaxing)
 .debug_str     0x000000000000b8cb       0xf9 /usr/lib/gcc/arm-none-eabi/9.2.1/../../../arm-none-eabi/lib/thumb/v7e-m+fp/softfp/libg.a(lib_a-signal.o)
                                        0x649 (size before relaxing)
 .debug_str     0x000000000000b9c4       0x34 /usr/lib/gcc/arm-none-eabi/9.2.1/../../../arm-none-eabi/lib/thumb/v7e-m+fp/softfp/libg.a(lib_a-signalr.o)
                                        0x5ee (size before relaxing)
 .debug_str     0x000000000000b9f8       0x39 /usr/lib/gcc/arm-none-eabi/9.2.1/../../../arm-none-eabi/lib/thumb/v7e-m+fp/softfp/libg.a(lib_a-wbuf.o)
                                        0x72f (size before relaxing)
 .debug_str     0x000000000000ba31       0x3d /usr/lib/gcc/arm-none-eabi/9.2.1/../../../arm-none-eabi/lib/thumb/v7e-m+fp/softfp/libg.a(lib_a-wcrtomb.o)
                                        0x943 (size before relaxing)
 .debug_str     0x000000000000ba6e       0x31 /usr/lib/gcc/arm-none-eabi/9.2.1/thumb/v7e-m+fp/softfp/libgcc.a(_arm_addsubdf3.o)
                                         0xaa (size before relaxing)
 .debug_str     0x000000000000ba9f       0xaa /usr/lib/gcc/arm-none-eabi/9.2.1/thumb/v7e-m+fp/softfp/libgcc.a(_arm_muldivdf3.o)
 .debug_str     0x000000000000ba9f       0xaa /usr/lib/gcc/arm-none-eabi/9.2.1/thumb/v7e-m+fp/softfp/libgcc.a(_arm_cmpdf2.o)
 .debug_str     0x000000000000ba9f       0xaa /usr/lib/gcc/arm-none-eabi/9.2.1/thumb/v7e-m+fp/softfp/libgcc.a(_arm_unorddf2.o)
 .debug_str     0x000000000000ba9f       0xaa /usr/lib/gcc/arm-none-eabi/9.2.1/thumb/v7e-m+fp/softfp/libgcc.a(_arm_fixdfsi.o)
 .debug_str     0x000000000000ba9f      0x11a /usr/lib/gcc/arm-none-eabi/9.2.1/../../../arm-none-eabi/lib/thumb/v7e-m+fp/softfp/libnosys.a(sbrk.o)
                                        0x133 (size before relaxing)

.comment        0x0000000000000000       0xa7
 .comment       0x0000000000000000       0x59 build/tsb0/blink_pwm_main.o
                                         0x5a (size before relaxing)
 .comment       0x0000000000000059       0x5a build/tsb0/timer_handler.o
 .comment       0x0000000000000059       0x5a build/tsb0//home/karl/node-apps/zoo/FreeRTOS-Kernel/portable/GCC/ARM_CM4F/port.o
 .comment       0x0000000000000059       0x5a build/tsb0//home/karl/node-apps/zoo/FreeRTOS-Kernel/portable/MemMang/heap_5.o
 .comment       0x0000000000000059       0x5a build/tsb0//home/karl/node-apps/zoo/FreeRTOS-Kernel/queue.o
 .comment       0x0000000000000059       0x5a build/tsb0//home/karl/node-apps/zoo/FreeRTOS-Kernel/list.o
 .comment       0x0000000000000059       0x5a build/tsb0//home/karl/node-apps/zoo/FreeRTOS-Kernel/tasks.o
 .comment       0x0000000000000059       0x5a build/tsb0//home/karl/node-apps/zoo/FreeRTOS-Kernel/timers.o
 .comment       0x0000000000000059       0x5a build/tsb0//home/karl/node-apps/zoo/thinnect.cmsis-freertos/CMSIS-FreeRTOS/CMSIS/RTOS2/FreeRTOS/Source/cmsis_os2.o
 .comment       0x0000000000000059       0x5a build/tsb0//home/karl/SimplicityStudio_v5/developer/sdks/gecko_sdk_suite/v3.2/hardware/kit/common/drivers/retargetserial.o
 .comment       0x0000000000000059       0x5a build/tsb0//home/karl/SimplicityStudio_v5/developer/sdks/gecko_sdk_suite/v3.2/hardware/kit/common/drivers/retargetio.o
 .comment       0x0000000000000059       0x5a build/tsb0//home/karl/SimplicityStudio_v5/developer/sdks/gecko_sdk_suite/v3.2/platform/emlib/src/em_core.o
 .comment       0x0000000000000059       0x5a build/tsb0//home/karl/SimplicityStudio_v5/developer/sdks/gecko_sdk_suite/v3.2/platform/emlib/src/em_emu.o
 .comment       0x0000000000000059       0x5a build/tsb0//home/karl/SimplicityStudio_v5/developer/sdks/gecko_sdk_suite/v3.2/platform/emlib/src/em_cmu.o
 .comment       0x0000000000000059       0x5a build/tsb0//home/karl/SimplicityStudio_v5/developer/sdks/gecko_sdk_suite/v3.2/platform/emlib/src/em_rmu.o
 .comment       0x0000000000000059       0x5a build/tsb0//home/karl/SimplicityStudio_v5/developer/sdks/gecko_sdk_suite/v3.2/platform/emlib/src/em_gpio.o
 .comment       0x0000000000000059       0x5a build/tsb0//home/karl/SimplicityStudio_v5/developer/sdks/gecko_sdk_suite/v3.2/platform/emlib/src/em_usart.o
 .comment       0x0000000000000059       0x5a build/tsb0//home/karl/SimplicityStudio_v5/developer/sdks/gecko_sdk_suite/v3.2/platform/emlib/src/em_msc.o
 .comment       0x0000000000000059       0x5a build/tsb0//home/karl/SimplicityStudio_v5/developer/sdks/gecko_sdk_suite/v3.2/platform/emlib/src/em_timer.o
 .comment       0x0000000000000059       0x5a build/tsb0//home/karl/node-apps/zoo/thinnect.node-platform/silabs/logger_fwrite.o
 .comment       0x0000000000000059       0x5a build/tsb0//home/karl/node-apps/zoo/thinnect.lll/logging/loggers_ext.o
 .comment       0x0000000000000059       0x5a build/tsb0//home/karl/SimplicityStudio_v5/developer/sdks/gecko_sdk_suite/v3.2/platform/Device/SiliconLabs/EFR32MG12P/Source/GCC/startup_efr32mg12p.o
 .comment       0x0000000000000059       0x5a build/tsb0//home/karl/SimplicityStudio_v5/developer/sdks/gecko_sdk_suite/v3.2/platform/Device/SiliconLabs/EFR32MG12P/Source/system_efr32mg12p.o
 .comment       0x0000000000000059       0x5a build/tsb0//home/karl/node-apps/zoo/thinnect.dev-platforms/make/boards/../../src/boards/tsb0/platform.o
 .comment       0x0000000000000059       0x5a build/tsb0//home/karl/node-apps/zoo/thinnect.node-platform/silabs/platform_io.o
 .comment       0x0000000000000059       0x5a /usr/lib/gcc/arm-none-eabi/9.2.1/thumb/v7e-m+fp/softfp/libgcc.a(_udivmoddi4.o)
 .comment       0x0000000000000059       0x4e /usr/lib/gcc/arm-none-eabi/9.2.1/../../../arm-none-eabi/lib/thumb/v7e-m+fp/softfp/libg.a(lib_a-fflush.o)
                                         0x4f (size before relaxing)
 .comment       0x00000000000000a7       0x4f /usr/lib/gcc/arm-none-eabi/9.2.1/../../../arm-none-eabi/lib/thumb/v7e-m+fp/softfp/libg.a(lib_a-findfp.o)
 .comment       0x00000000000000a7       0x4f /usr/lib/gcc/arm-none-eabi/9.2.1/../../../arm-none-eabi/lib/thumb/v7e-m+fp/softfp/libg.a(lib_a-freer.o)
 .comment       0x00000000000000a7       0x4f /usr/lib/gcc/arm-none-eabi/9.2.1/../../../arm-none-eabi/lib/thumb/v7e-m+fp/softfp/libg.a(lib_a-fwalk.o)
 .comment       0x00000000000000a7       0x4f /usr/lib/gcc/arm-none-eabi/9.2.1/../../../arm-none-eabi/lib/thumb/v7e-m+fp/softfp/libg.a(lib_a-fwrite.o)
 .comment       0x00000000000000a7       0x4f /usr/lib/gcc/arm-none-eabi/9.2.1/../../../arm-none-eabi/lib/thumb/v7e-m+fp/softfp/libg.a(lib_a-impure.o)
 .comment       0x00000000000000a7       0x4f /usr/lib/gcc/arm-none-eabi/9.2.1/../../../arm-none-eabi/lib/thumb/v7e-m+fp/softfp/libg.a(lib_a-mallocr.o)
 .comment       0x00000000000000a7       0x4f /usr/lib/gcc/arm-none-eabi/9.2.1/../../../arm-none-eabi/lib/thumb/v7e-m+fp/softfp/libg.a(lib_a-memset.o)
 .comment       0x00000000000000a7       0x4f /usr/lib/gcc/arm-none-eabi/9.2.1/../../../arm-none-eabi/lib/thumb/v7e-m+fp/softfp/libg.a(lib_a-mlock.o)
 .comment       0x00000000000000a7       0x4f /usr/lib/gcc/arm-none-eabi/9.2.1/../../../arm-none-eabi/lib/thumb/v7e-m+fp/softfp/libg.a(lib_a-sbrkr.o)
 .comment       0x00000000000000a7       0x4f /usr/lib/gcc/arm-none-eabi/9.2.1/../../../arm-none-eabi/lib/thumb/v7e-m+fp/softfp/libg.a(lib_a-setvbuf.o)
 .comment       0x00000000000000a7       0x4f /usr/lib/gcc/arm-none-eabi/9.2.1/../../../arm-none-eabi/lib/thumb/v7e-m+fp/softfp/libg.a(lib_a-snprintf.o)
 .comment       0x00000000000000a7       0x4f /usr/lib/gcc/arm-none-eabi/9.2.1/../../../arm-none-eabi/lib/thumb/v7e-m+fp/softfp/libg.a(lib_a-stdio.o)
 .comment       0x00000000000000a7       0x4f /usr/lib/gcc/arm-none-eabi/9.2.1/../../../arm-none-eabi/lib/thumb/v7e-m+fp/softfp/libg.a(lib_a-svfprintf.o)
 .comment       0x00000000000000a7       0x4f /usr/lib/gcc/arm-none-eabi/9.2.1/../../../arm-none-eabi/lib/thumb/v7e-m+fp/softfp/libg.a(lib_a-vsnprintf.o)
 .comment       0x00000000000000a7       0x4f /usr/lib/gcc/arm-none-eabi/9.2.1/../../../arm-none-eabi/lib/thumb/v7e-m+fp/softfp/libg.a(lib_a-writer.o)
 .comment       0x00000000000000a7       0x4f /usr/lib/gcc/arm-none-eabi/9.2.1/../../../arm-none-eabi/lib/thumb/v7e-m+fp/softfp/libg.a(lib_a-closer.o)
 .comment       0x00000000000000a7       0x4f /usr/lib/gcc/arm-none-eabi/9.2.1/../../../arm-none-eabi/lib/thumb/v7e-m+fp/softfp/libg.a(lib_a-dtoa.o)
 .comment       0x00000000000000a7       0x4f /usr/lib/gcc/arm-none-eabi/9.2.1/../../../arm-none-eabi/lib/thumb/v7e-m+fp/softfp/libg.a(lib_a-fclose.o)
 .comment       0x00000000000000a7       0x4f /usr/lib/gcc/arm-none-eabi/9.2.1/../../../arm-none-eabi/lib/thumb/v7e-m+fp/softfp/libg.a(lib_a-fvwrite.o)
 .comment       0x00000000000000a7       0x4f /usr/lib/gcc/arm-none-eabi/9.2.1/../../../arm-none-eabi/lib/thumb/v7e-m+fp/softfp/libg.a(lib_a-localeconv.o)
 .comment       0x00000000000000a7       0x4f /usr/lib/gcc/arm-none-eabi/9.2.1/../../../arm-none-eabi/lib/thumb/v7e-m+fp/softfp/libg.a(lib_a-lseekr.o)
 .comment       0x00000000000000a7       0x4f /usr/lib/gcc/arm-none-eabi/9.2.1/../../../arm-none-eabi/lib/thumb/v7e-m+fp/softfp/libg.a(lib_a-makebuf.o)
 .comment       0x00000000000000a7       0x4f /usr/lib/gcc/arm-none-eabi/9.2.1/../../../arm-none-eabi/lib/thumb/v7e-m+fp/softfp/libg.a(lib_a-malloc.o)
 .comment       0x00000000000000a7       0x4f /usr/lib/gcc/arm-none-eabi/9.2.1/../../../arm-none-eabi/lib/thumb/v7e-m+fp/softfp/libg.a(lib_a-memmove.o)
 .comment       0x00000000000000a7       0x4f /usr/lib/gcc/arm-none-eabi/9.2.1/../../../arm-none-eabi/lib/thumb/v7e-m+fp/softfp/libg.a(lib_a-mprec.o)
 .comment       0x00000000000000a7       0x4f /usr/lib/gcc/arm-none-eabi/9.2.1/../../../arm-none-eabi/lib/thumb/v7e-m+fp/softfp/libg.a(lib_a-readr.o)
 .comment       0x00000000000000a7       0x4f /usr/lib/gcc/arm-none-eabi/9.2.1/../../../arm-none-eabi/lib/thumb/v7e-m+fp/softfp/libg.a(lib_a-reallocr.o)
 .comment       0x00000000000000a7       0x4f /usr/lib/gcc/arm-none-eabi/9.2.1/../../../arm-none-eabi/lib/thumb/v7e-m+fp/softfp/libg.a(lib_a-reent.o)
 .comment       0x00000000000000a7       0x4f /usr/lib/gcc/arm-none-eabi/9.2.1/../../../arm-none-eabi/lib/thumb/v7e-m+fp/softfp/libg.a(lib_a-svfiprintf.o)
 .comment       0x00000000000000a7       0x4f /usr/lib/gcc/arm-none-eabi/9.2.1/../../../arm-none-eabi/lib/thumb/v7e-m+fp/softfp/libg.a(lib_a-wsetup.o)
 .comment       0x00000000000000a7       0x4f /usr/lib/gcc/arm-none-eabi/9.2.1/../../../arm-none-eabi/lib/thumb/v7e-m+fp/softfp/libg.a(lib_a-assert.o)
 .comment       0x00000000000000a7       0x4f /usr/lib/gcc/arm-none-eabi/9.2.1/../../../arm-none-eabi/lib/thumb/v7e-m+fp/softfp/libg.a(lib_a-callocr.o)
 .comment       0x00000000000000a7       0x4f /usr/lib/gcc/arm-none-eabi/9.2.1/../../../arm-none-eabi/lib/thumb/v7e-m+fp/softfp/libg.a(lib_a-fiprintf.o)
 .comment       0x00000000000000a7       0x4f /usr/lib/gcc/arm-none-eabi/9.2.1/../../../arm-none-eabi/lib/thumb/v7e-m+fp/softfp/libg.a(lib_a-fstatr.o)
 .comment       0x00000000000000a7       0x4f /usr/lib/gcc/arm-none-eabi/9.2.1/../../../arm-none-eabi/lib/thumb/v7e-m+fp/softfp/libg.a(lib_a-isattyr.o)
 .comment       0x00000000000000a7       0x4f /usr/lib/gcc/arm-none-eabi/9.2.1/../../../arm-none-eabi/lib/thumb/v7e-m+fp/softfp/libg.a(lib_a-locale.o)
 .comment       0x00000000000000a7       0x4f /usr/lib/gcc/arm-none-eabi/9.2.1/../../../arm-none-eabi/lib/thumb/v7e-m+fp/softfp/libg.a(lib_a-mbtowc_r.o)
 .comment       0x00000000000000a7       0x4f /usr/lib/gcc/arm-none-eabi/9.2.1/../../../arm-none-eabi/lib/thumb/v7e-m+fp/softfp/libg.a(lib_a-vfiprintf.o)
 .comment       0x00000000000000a7       0x4f /usr/lib/gcc/arm-none-eabi/9.2.1/../../../arm-none-eabi/lib/thumb/v7e-m+fp/softfp/libg.a(lib_a-wctomb_r.o)
 .comment       0x00000000000000a7       0x4f /usr/lib/gcc/arm-none-eabi/9.2.1/../../../arm-none-eabi/lib/thumb/v7e-m+fp/softfp/libg.a(lib_a-abort.o)
 .comment       0x00000000000000a7       0x4f /usr/lib/gcc/arm-none-eabi/9.2.1/../../../arm-none-eabi/lib/thumb/v7e-m+fp/softfp/libg.a(lib_a-ctype_.o)
 .comment       0x00000000000000a7       0x4f /usr/lib/gcc/arm-none-eabi/9.2.1/../../../arm-none-eabi/lib/thumb/v7e-m+fp/softfp/libg.a(lib_a-fputwc.o)
 .comment       0x00000000000000a7       0x4f /usr/lib/gcc/arm-none-eabi/9.2.1/../../../arm-none-eabi/lib/thumb/v7e-m+fp/softfp/libg.a(lib_a-signal.o)
 .comment       0x00000000000000a7       0x4f /usr/lib/gcc/arm-none-eabi/9.2.1/../../../arm-none-eabi/lib/thumb/v7e-m+fp/softfp/libg.a(lib_a-signalr.o)
 .comment       0x00000000000000a7       0x4f /usr/lib/gcc/arm-none-eabi/9.2.1/../../../arm-none-eabi/lib/thumb/v7e-m+fp/softfp/libg.a(lib_a-wbuf.o)
 .comment       0x00000000000000a7       0x4f /usr/lib/gcc/arm-none-eabi/9.2.1/../../../arm-none-eabi/lib/thumb/v7e-m+fp/softfp/libg.a(lib_a-wcrtomb.o)
 .comment       0x00000000000000a7       0x4f /usr/lib/gcc/arm-none-eabi/9.2.1/../../../arm-none-eabi/lib/thumb/v7e-m+fp/softfp/libnosys.a(sbrk.o)

.ARM.attributes
                0x0000000000000000       0x30
 .ARM.attributes
                0x0000000000000000       0x32 build/tsb0/blink_pwm_main.o
 .ARM.attributes
                0x0000000000000032       0x32 build/tsb0/timer_handler.o
 .ARM.attributes
                0x0000000000000064       0x32 build/tsb0//home/karl/node-apps/zoo/FreeRTOS-Kernel/portable/GCC/ARM_CM4F/port.o
 .ARM.attributes
                0x0000000000000096       0x32 build/tsb0//home/karl/node-apps/zoo/FreeRTOS-Kernel/portable/MemMang/heap_5.o
 .ARM.attributes
                0x00000000000000c8       0x32 build/tsb0//home/karl/node-apps/zoo/FreeRTOS-Kernel/queue.o
 .ARM.attributes
                0x00000000000000fa       0x32 build/tsb0//home/karl/node-apps/zoo/FreeRTOS-Kernel/list.o
 .ARM.attributes
                0x000000000000012c       0x32 build/tsb0//home/karl/node-apps/zoo/FreeRTOS-Kernel/tasks.o
 .ARM.attributes
                0x000000000000015e       0x32 build/tsb0//home/karl/node-apps/zoo/FreeRTOS-Kernel/timers.o
 .ARM.attributes
                0x0000000000000190       0x32 build/tsb0//home/karl/node-apps/zoo/thinnect.cmsis-freertos/CMSIS-FreeRTOS/CMSIS/RTOS2/FreeRTOS/Source/cmsis_os2.o
 .ARM.attributes
                0x00000000000001c2       0x32 build/tsb0//home/karl/SimplicityStudio_v5/developer/sdks/gecko_sdk_suite/v3.2/hardware/kit/common/drivers/retargetserial.o
 .ARM.attributes
                0x00000000000001f4       0x32 build/tsb0//home/karl/SimplicityStudio_v5/developer/sdks/gecko_sdk_suite/v3.2/hardware/kit/common/drivers/retargetio.o
 .ARM.attributes
                0x0000000000000226       0x32 build/tsb0//home/karl/SimplicityStudio_v5/developer/sdks/gecko_sdk_suite/v3.2/platform/emlib/src/em_core.o
 .ARM.attributes
                0x0000000000000258       0x32 build/tsb0//home/karl/SimplicityStudio_v5/developer/sdks/gecko_sdk_suite/v3.2/platform/emlib/src/em_emu.o
 .ARM.attributes
                0x000000000000028a       0x32 build/tsb0//home/karl/SimplicityStudio_v5/developer/sdks/gecko_sdk_suite/v3.2/platform/emlib/src/em_cmu.o
 .ARM.attributes
                0x00000000000002bc       0x32 build/tsb0//home/karl/SimplicityStudio_v5/developer/sdks/gecko_sdk_suite/v3.2/platform/emlib/src/em_rmu.o
 .ARM.attributes
                0x00000000000002ee       0x32 build/tsb0//home/karl/SimplicityStudio_v5/developer/sdks/gecko_sdk_suite/v3.2/platform/emlib/src/em_gpio.o
 .ARM.attributes
                0x0000000000000320       0x32 build/tsb0//home/karl/SimplicityStudio_v5/developer/sdks/gecko_sdk_suite/v3.2/platform/emlib/src/em_usart.o
 .ARM.attributes
                0x0000000000000352       0x32 build/tsb0//home/karl/SimplicityStudio_v5/developer/sdks/gecko_sdk_suite/v3.2/platform/emlib/src/em_msc.o
 .ARM.attributes
                0x0000000000000384       0x32 build/tsb0//home/karl/SimplicityStudio_v5/developer/sdks/gecko_sdk_suite/v3.2/platform/emlib/src/em_timer.o
 .ARM.attributes
                0x00000000000003b6       0x32 build/tsb0//home/karl/node-apps/zoo/thinnect.node-platform/silabs/logger_fwrite.o
 .ARM.attributes
                0x00000000000003e8       0x32 build/tsb0//home/karl/node-apps/zoo/thinnect.lll/logging/loggers_ext.o
 .ARM.attributes
                0x000000000000041a       0x32 build/tsb0//home/karl/SimplicityStudio_v5/developer/sdks/gecko_sdk_suite/v3.2/platform/Device/SiliconLabs/EFR32MG12P/Source/GCC/startup_efr32mg12p.o
 .ARM.attributes
                0x000000000000044c       0x32 build/tsb0//home/karl/SimplicityStudio_v5/developer/sdks/gecko_sdk_suite/v3.2/platform/Device/SiliconLabs/EFR32MG12P/Source/system_efr32mg12p.o
 .ARM.attributes
                0x000000000000047e       0x32 build/tsb0//home/karl/node-apps/zoo/thinnect.dev-platforms/make/boards/../../src/boards/tsb0/platform.o
 .ARM.attributes
                0x00000000000004b0       0x32 build/tsb0//home/karl/node-apps/zoo/thinnect.node-platform/silabs/platform_io.o
 .ARM.attributes
                0x00000000000004e2       0x1e /usr/lib/gcc/arm-none-eabi/9.2.1/thumb/v7e-m+fp/softfp/libgcc.a(_aeabi_uldivmod.o)
 .ARM.attributes
                0x0000000000000500       0x32 /usr/lib/gcc/arm-none-eabi/9.2.1/thumb/v7e-m+fp/softfp/libgcc.a(_udivmoddi4.o)
 .ARM.attributes
                0x0000000000000532       0x1e /usr/lib/gcc/arm-none-eabi/9.2.1/thumb/v7e-m+fp/softfp/libgcc.a(_dvmd_tls.o)
 .ARM.attributes
                0x0000000000000550       0x32 /usr/lib/gcc/arm-none-eabi/9.2.1/../../../arm-none-eabi/lib/thumb/v7e-m+fp/softfp/libg.a(lib_a-fflush.o)
 .ARM.attributes
                0x0000000000000582       0x32 /usr/lib/gcc/arm-none-eabi/9.2.1/../../../arm-none-eabi/lib/thumb/v7e-m+fp/softfp/libg.a(lib_a-findfp.o)
 .ARM.attributes
                0x00000000000005b4       0x32 /usr/lib/gcc/arm-none-eabi/9.2.1/../../../arm-none-eabi/lib/thumb/v7e-m+fp/softfp/libg.a(lib_a-freer.o)
 .ARM.attributes
                0x00000000000005e6       0x32 /usr/lib/gcc/arm-none-eabi/9.2.1/../../../arm-none-eabi/lib/thumb/v7e-m+fp/softfp/libg.a(lib_a-fwalk.o)
 .ARM.attributes
                0x0000000000000618       0x32 /usr/lib/gcc/arm-none-eabi/9.2.1/../../../arm-none-eabi/lib/thumb/v7e-m+fp/softfp/libg.a(lib_a-fwrite.o)
 .ARM.attributes
                0x000000000000064a       0x30 /usr/lib/gcc/arm-none-eabi/9.2.1/../../../arm-none-eabi/lib/thumb/v7e-m+fp/softfp/libg.a(lib_a-impure.o)
 .ARM.attributes
                0x000000000000067a       0x32 /usr/lib/gcc/arm-none-eabi/9.2.1/../../../arm-none-eabi/lib/thumb/v7e-m+fp/softfp/libg.a(lib_a-mallocr.o)
 .ARM.attributes
                0x00000000000006ac       0x1c /usr/lib/gcc/arm-none-eabi/9.2.1/../../../arm-none-eabi/lib/thumb/v7e-m+fp/softfp/libg.a(lib_a-memcpy.o)
 .ARM.attributes
                0x00000000000006c8       0x32 /usr/lib/gcc/arm-none-eabi/9.2.1/../../../arm-none-eabi/lib/thumb/v7e-m+fp/softfp/libg.a(lib_a-memset.o)
 .ARM.attributes
                0x00000000000006fa       0x32 /usr/lib/gcc/arm-none-eabi/9.2.1/../../../arm-none-eabi/lib/thumb/v7e-m+fp/softfp/libg.a(lib_a-mlock.o)
 .ARM.attributes
                0x000000000000072c       0x32 /usr/lib/gcc/arm-none-eabi/9.2.1/../../../arm-none-eabi/lib/thumb/v7e-m+fp/softfp/libg.a(lib_a-sbrkr.o)
 .ARM.attributes
                0x000000000000075e       0x32 /usr/lib/gcc/arm-none-eabi/9.2.1/../../../arm-none-eabi/lib/thumb/v7e-m+fp/softfp/libg.a(lib_a-setvbuf.o)
 .ARM.attributes
                0x0000000000000790       0x32 /usr/lib/gcc/arm-none-eabi/9.2.1/../../../arm-none-eabi/lib/thumb/v7e-m+fp/softfp/libg.a(lib_a-snprintf.o)
 .ARM.attributes
                0x00000000000007c2       0x32 /usr/lib/gcc/arm-none-eabi/9.2.1/../../../arm-none-eabi/lib/thumb/v7e-m+fp/softfp/libg.a(lib_a-stdio.o)
 .ARM.attributes
                0x00000000000007f4       0x32 /usr/lib/gcc/arm-none-eabi/9.2.1/../../../arm-none-eabi/lib/thumb/v7e-m+fp/softfp/libg.a(lib_a-svfprintf.o)
 .ARM.attributes
                0x0000000000000826       0x32 /usr/lib/gcc/arm-none-eabi/9.2.1/../../../arm-none-eabi/lib/thumb/v7e-m+fp/softfp/libg.a(lib_a-vsnprintf.o)
 .ARM.attributes
                0x0000000000000858       0x32 /usr/lib/gcc/arm-none-eabi/9.2.1/../../../arm-none-eabi/lib/thumb/v7e-m+fp/softfp/libg.a(lib_a-writer.o)
 .ARM.attributes
                0x000000000000088a       0x32 /usr/lib/gcc/arm-none-eabi/9.2.1/../../../arm-none-eabi/lib/thumb/v7e-m+fp/softfp/libg.a(lib_a-closer.o)
 .ARM.attributes
                0x00000000000008bc       0x32 /usr/lib/gcc/arm-none-eabi/9.2.1/../../../arm-none-eabi/lib/thumb/v7e-m+fp/softfp/libg.a(lib_a-dtoa.o)
 .ARM.attributes
                0x00000000000008ee       0x32 /usr/lib/gcc/arm-none-eabi/9.2.1/../../../arm-none-eabi/lib/thumb/v7e-m+fp/softfp/libg.a(lib_a-fclose.o)
 .ARM.attributes
                0x0000000000000920       0x32 /usr/lib/gcc/arm-none-eabi/9.2.1/../../../arm-none-eabi/lib/thumb/v7e-m+fp/softfp/libg.a(lib_a-fvwrite.o)
 .ARM.attributes
                0x0000000000000952       0x32 /usr/lib/gcc/arm-none-eabi/9.2.1/../../../arm-none-eabi/lib/thumb/v7e-m+fp/softfp/libg.a(lib_a-localeconv.o)
 .ARM.attributes
                0x0000000000000984       0x32 /usr/lib/gcc/arm-none-eabi/9.2.1/../../../arm-none-eabi/lib/thumb/v7e-m+fp/softfp/libg.a(lib_a-lseekr.o)
 .ARM.attributes
                0x00000000000009b6       0x32 /usr/lib/gcc/arm-none-eabi/9.2.1/../../../arm-none-eabi/lib/thumb/v7e-m+fp/softfp/libg.a(lib_a-makebuf.o)
 .ARM.attributes
                0x00000000000009e8       0x32 /usr/lib/gcc/arm-none-eabi/9.2.1/../../../arm-none-eabi/lib/thumb/v7e-m+fp/softfp/libg.a(lib_a-malloc.o)
 .ARM.attributes
                0x0000000000000a1a       0x1c /usr/lib/gcc/arm-none-eabi/9.2.1/../../../arm-none-eabi/lib/thumb/v7e-m+fp/softfp/libg.a(lib_a-memchr.o)
 .ARM.attributes
                0x0000000000000a36       0x32 /usr/lib/gcc/arm-none-eabi/9.2.1/../../../arm-none-eabi/lib/thumb/v7e-m+fp/softfp/libg.a(lib_a-memmove.o)
 .ARM.attributes
                0x0000000000000a68       0x32 /usr/lib/gcc/arm-none-eabi/9.2.1/../../../arm-none-eabi/lib/thumb/v7e-m+fp/softfp/libg.a(lib_a-mprec.o)
 .ARM.attributes
                0x0000000000000a9a       0x32 /usr/lib/gcc/arm-none-eabi/9.2.1/../../../arm-none-eabi/lib/thumb/v7e-m+fp/softfp/libg.a(lib_a-readr.o)
 .ARM.attributes
                0x0000000000000acc       0x32 /usr/lib/gcc/arm-none-eabi/9.2.1/../../../arm-none-eabi/lib/thumb/v7e-m+fp/softfp/libg.a(lib_a-reallocr.o)
 .ARM.attributes
                0x0000000000000afe       0x32 /usr/lib/gcc/arm-none-eabi/9.2.1/../../../arm-none-eabi/lib/thumb/v7e-m+fp/softfp/libg.a(lib_a-reent.o)
 .ARM.attributes
                0x0000000000000b30       0x1c /usr/lib/gcc/arm-none-eabi/9.2.1/../../../arm-none-eabi/lib/thumb/v7e-m+fp/softfp/libg.a(lib_a-strlen.o)
 .ARM.attributes
                0x0000000000000b4c       0x32 /usr/lib/gcc/arm-none-eabi/9.2.1/../../../arm-none-eabi/lib/thumb/v7e-m+fp/softfp/libg.a(lib_a-svfiprintf.o)
 .ARM.attributes
                0x0000000000000b7e       0x32 /usr/lib/gcc/arm-none-eabi/9.2.1/../../../arm-none-eabi/lib/thumb/v7e-m+fp/softfp/libg.a(lib_a-wsetup.o)
 .ARM.attributes
                0x0000000000000bb0       0x32 /usr/lib/gcc/arm-none-eabi/9.2.1/../../../arm-none-eabi/lib/thumb/v7e-m+fp/softfp/libg.a(lib_a-assert.o)
 .ARM.attributes
                0x0000000000000be2       0x32 /usr/lib/gcc/arm-none-eabi/9.2.1/../../../arm-none-eabi/lib/thumb/v7e-m+fp/softfp/libg.a(lib_a-callocr.o)
 .ARM.attributes
                0x0000000000000c14       0x32 /usr/lib/gcc/arm-none-eabi/9.2.1/../../../arm-none-eabi/lib/thumb/v7e-m+fp/softfp/libg.a(lib_a-fiprintf.o)
 .ARM.attributes
                0x0000000000000c46       0x32 /usr/lib/gcc/arm-none-eabi/9.2.1/../../../arm-none-eabi/lib/thumb/v7e-m+fp/softfp/libg.a(lib_a-fstatr.o)
 .ARM.attributes
                0x0000000000000c78       0x32 /usr/lib/gcc/arm-none-eabi/9.2.1/../../../arm-none-eabi/lib/thumb/v7e-m+fp/softfp/libg.a(lib_a-isattyr.o)
 .ARM.attributes
                0x0000000000000caa       0x32 /usr/lib/gcc/arm-none-eabi/9.2.1/../../../arm-none-eabi/lib/thumb/v7e-m+fp/softfp/libg.a(lib_a-locale.o)
 .ARM.attributes
                0x0000000000000cdc       0x32 /usr/lib/gcc/arm-none-eabi/9.2.1/../../../arm-none-eabi/lib/thumb/v7e-m+fp/softfp/libg.a(lib_a-mbtowc_r.o)
 .ARM.attributes
                0x0000000000000d0e       0x1c /usr/lib/gcc/arm-none-eabi/9.2.1/../../../arm-none-eabi/lib/thumb/v7e-m+fp/softfp/libg.a(lib_a-strcmp.o)
 .ARM.attributes
                0x0000000000000d2a       0x32 /usr/lib/gcc/arm-none-eabi/9.2.1/../../../arm-none-eabi/lib/thumb/v7e-m+fp/softfp/libg.a(lib_a-vfiprintf.o)
 .ARM.attributes
                0x0000000000000d5c       0x32 /usr/lib/gcc/arm-none-eabi/9.2.1/../../../arm-none-eabi/lib/thumb/v7e-m+fp/softfp/libg.a(lib_a-wctomb_r.o)
 .ARM.attributes
                0x0000000000000d8e       0x32 /usr/lib/gcc/arm-none-eabi/9.2.1/../../../arm-none-eabi/lib/thumb/v7e-m+fp/softfp/libg.a(lib_a-abort.o)
 .ARM.attributes
                0x0000000000000dc0       0x30 /usr/lib/gcc/arm-none-eabi/9.2.1/../../../arm-none-eabi/lib/thumb/v7e-m+fp/softfp/libg.a(lib_a-ctype_.o)
 .ARM.attributes
                0x0000000000000df0       0x32 /usr/lib/gcc/arm-none-eabi/9.2.1/../../../arm-none-eabi/lib/thumb/v7e-m+fp/softfp/libg.a(lib_a-fputwc.o)
 .ARM.attributes
                0x0000000000000e22       0x32 /usr/lib/gcc/arm-none-eabi/9.2.1/../../../arm-none-eabi/lib/thumb/v7e-m+fp/softfp/libg.a(lib_a-signal.o)
 .ARM.attributes
                0x0000000000000e54       0x32 /usr/lib/gcc/arm-none-eabi/9.2.1/../../../arm-none-eabi/lib/thumb/v7e-m+fp/softfp/libg.a(lib_a-signalr.o)
 .ARM.attributes
                0x0000000000000e86       0x32 /usr/lib/gcc/arm-none-eabi/9.2.1/../../../arm-none-eabi/lib/thumb/v7e-m+fp/softfp/libg.a(lib_a-wbuf.o)
 .ARM.attributes
                0x0000000000000eb8       0x32 /usr/lib/gcc/arm-none-eabi/9.2.1/../../../arm-none-eabi/lib/thumb/v7e-m+fp/softfp/libg.a(lib_a-wcrtomb.o)
 .ARM.attributes
                0x0000000000000eea       0x1e /usr/lib/gcc/arm-none-eabi/9.2.1/thumb/v7e-m+fp/softfp/libgcc.a(_arm_addsubdf3.o)
 .ARM.attributes
                0x0000000000000f08       0x1e /usr/lib/gcc/arm-none-eabi/9.2.1/thumb/v7e-m+fp/softfp/libgcc.a(_arm_muldivdf3.o)
 .ARM.attributes
                0x0000000000000f26       0x1e /usr/lib/gcc/arm-none-eabi/9.2.1/thumb/v7e-m+fp/softfp/libgcc.a(_arm_cmpdf2.o)
 .ARM.attributes
                0x0000000000000f44       0x1e /usr/lib/gcc/arm-none-eabi/9.2.1/thumb/v7e-m+fp/softfp/libgcc.a(_arm_unorddf2.o)
 .ARM.attributes
                0x0000000000000f62       0x1e /usr/lib/gcc/arm-none-eabi/9.2.1/thumb/v7e-m+fp/softfp/libgcc.a(_arm_fixdfsi.o)
 .ARM.attributes
                0x0000000000000f80       0x32 /usr/lib/gcc/arm-none-eabi/9.2.1/../../../arm-none-eabi/lib/thumb/v7e-m+fp/softfp/libnosys.a(sbrk.o)

.debug_frame    0x0000000000000000     0x6110
 .debug_frame   0x0000000000000000       0xfc build/tsb0/blink_pwm_main.o
 .debug_frame   0x00000000000000fc      0x20c build/tsb0/timer_handler.o
 .debug_frame   0x0000000000000308      0x1a0 build/tsb0//home/karl/node-apps/zoo/FreeRTOS-Kernel/portable/GCC/ARM_CM4F/port.o
 .debug_frame   0x00000000000004a8      0x10c build/tsb0//home/karl/node-apps/zoo/FreeRTOS-Kernel/portable/MemMang/heap_5.o
 .debug_frame   0x00000000000005b4      0x570 build/tsb0//home/karl/node-apps/zoo/FreeRTOS-Kernel/queue.o
 .debug_frame   0x0000000000000b24       0xd8 build/tsb0//home/karl/node-apps/zoo/FreeRTOS-Kernel/list.o
 .debug_frame   0x0000000000000bfc      0x8e8 build/tsb0//home/karl/node-apps/zoo/FreeRTOS-Kernel/tasks.o
 .debug_frame   0x00000000000014e4      0x3f4 build/tsb0//home/karl/node-apps/zoo/FreeRTOS-Kernel/timers.o
 .debug_frame   0x00000000000018d8      0xb98 build/tsb0//home/karl/node-apps/zoo/thinnect.cmsis-freertos/CMSIS-FreeRTOS/CMSIS/RTOS2/FreeRTOS/Source/cmsis_os2.o
 .debug_frame   0x0000000000002470      0x230 build/tsb0//home/karl/SimplicityStudio_v5/developer/sdks/gecko_sdk_suite/v3.2/hardware/kit/common/drivers/retargetserial.o
 .debug_frame   0x00000000000026a0      0x15c build/tsb0//home/karl/SimplicityStudio_v5/developer/sdks/gecko_sdk_suite/v3.2/hardware/kit/common/drivers/retargetio.o
 .debug_frame   0x00000000000027fc      0x3dc build/tsb0//home/karl/SimplicityStudio_v5/developer/sdks/gecko_sdk_suite/v3.2/platform/emlib/src/em_core.o
 .debug_frame   0x0000000000002bd8      0x8a4 build/tsb0//home/karl/SimplicityStudio_v5/developer/sdks/gecko_sdk_suite/v3.2/platform/emlib/src/em_emu.o
 .debug_frame   0x000000000000347c      0x818 build/tsb0//home/karl/SimplicityStudio_v5/developer/sdks/gecko_sdk_suite/v3.2/platform/emlib/src/em_cmu.o
 .debug_frame   0x0000000000003c94       0xa4 build/tsb0//home/karl/SimplicityStudio_v5/developer/sdks/gecko_sdk_suite/v3.2/platform/emlib/src/em_rmu.o
 .debug_frame   0x0000000000003d38      0x224 build/tsb0//home/karl/SimplicityStudio_v5/developer/sdks/gecko_sdk_suite/v3.2/platform/emlib/src/em_gpio.o
 .debug_frame   0x0000000000003f5c      0x384 build/tsb0//home/karl/SimplicityStudio_v5/developer/sdks/gecko_sdk_suite/v3.2/platform/emlib/src/em_usart.o
 .debug_frame   0x00000000000042e0      0x1d0 build/tsb0//home/karl/SimplicityStudio_v5/developer/sdks/gecko_sdk_suite/v3.2/platform/emlib/src/em_msc.o
 .debug_frame   0x00000000000044b0      0x15c build/tsb0//home/karl/SimplicityStudio_v5/developer/sdks/gecko_sdk_suite/v3.2/platform/emlib/src/em_timer.o
 .debug_frame   0x000000000000460c       0x50 build/tsb0//home/karl/node-apps/zoo/thinnect.node-platform/silabs/logger_fwrite.o
 .debug_frame   0x000000000000465c       0xd0 build/tsb0//home/karl/node-apps/zoo/thinnect.lll/logging/loggers_ext.o
 .debug_frame   0x000000000000472c       0x48 build/tsb0//home/karl/SimplicityStudio_v5/developer/sdks/gecko_sdk_suite/v3.2/platform/Device/SiliconLabs/EFR32MG12P/Source/GCC/startup_efr32mg12p.o
 .debug_frame   0x0000000000004774      0x164 build/tsb0//home/karl/SimplicityStudio_v5/developer/sdks/gecko_sdk_suite/v3.2/platform/Device/SiliconLabs/EFR32MG12P/Source/system_efr32mg12p.o
 .debug_frame   0x00000000000048d8       0xb8 build/tsb0//home/karl/node-apps/zoo/thinnect.dev-platforms/make/boards/../../src/boards/tsb0/platform.o
 .debug_frame   0x0000000000004990      0x2f8 build/tsb0//home/karl/node-apps/zoo/thinnect.node-platform/silabs/platform_io.o
 .debug_frame   0x0000000000004c88       0x2c /usr/lib/gcc/arm-none-eabi/9.2.1/thumb/v7e-m+fp/softfp/libgcc.a(_aeabi_uldivmod.o)
 .debug_frame   0x0000000000004cb4       0x34 /usr/lib/gcc/arm-none-eabi/9.2.1/thumb/v7e-m+fp/softfp/libgcc.a(_udivmoddi4.o)
 .debug_frame   0x0000000000004ce8       0x68 /usr/lib/gcc/arm-none-eabi/9.2.1/../../../arm-none-eabi/lib/thumb/v7e-m+fp/softfp/libg.a(lib_a-fflush.o)
 .debug_frame   0x0000000000004d50      0x120 /usr/lib/gcc/arm-none-eabi/9.2.1/../../../arm-none-eabi/lib/thumb/v7e-m+fp/softfp/libg.a(lib_a-findfp.o)
 .debug_frame   0x0000000000004e70       0x8c /usr/lib/gcc/arm-none-eabi/9.2.1/../../../arm-none-eabi/lib/thumb/v7e-m+fp/softfp/libg.a(lib_a-freer.o)
 .debug_frame   0x0000000000004efc       0x54 /usr/lib/gcc/arm-none-eabi/9.2.1/../../../arm-none-eabi/lib/thumb/v7e-m+fp/softfp/libg.a(lib_a-fwalk.o)
 .debug_frame   0x0000000000004f50       0x5c /usr/lib/gcc/arm-none-eabi/9.2.1/../../../arm-none-eabi/lib/thumb/v7e-m+fp/softfp/libg.a(lib_a-fwrite.o)
 .debug_frame   0x0000000000004fac       0x4c /usr/lib/gcc/arm-none-eabi/9.2.1/../../../arm-none-eabi/lib/thumb/v7e-m+fp/softfp/libg.a(lib_a-mallocr.o)
 .debug_frame   0x0000000000004ff8       0x38 /usr/lib/gcc/arm-none-eabi/9.2.1/../../../arm-none-eabi/lib/thumb/v7e-m+fp/softfp/libg.a(lib_a-memset.o)
 .debug_frame   0x0000000000005030       0x30 /usr/lib/gcc/arm-none-eabi/9.2.1/../../../arm-none-eabi/lib/thumb/v7e-m+fp/softfp/libg.a(lib_a-mlock.o)
 .debug_frame   0x0000000000005060       0x2c /usr/lib/gcc/arm-none-eabi/9.2.1/../../../arm-none-eabi/lib/thumb/v7e-m+fp/softfp/libg.a(lib_a-sbrkr.o)
 .debug_frame   0x000000000000508c       0x50 /usr/lib/gcc/arm-none-eabi/9.2.1/../../../arm-none-eabi/lib/thumb/v7e-m+fp/softfp/libg.a(lib_a-setvbuf.o)
 .debug_frame   0x00000000000050dc       0x9c /usr/lib/gcc/arm-none-eabi/9.2.1/../../../arm-none-eabi/lib/thumb/v7e-m+fp/softfp/libg.a(lib_a-snprintf.o)
 .debug_frame   0x0000000000005178       0x8c /usr/lib/gcc/arm-none-eabi/9.2.1/../../../arm-none-eabi/lib/thumb/v7e-m+fp/softfp/libg.a(lib_a-stdio.o)
 .debug_frame   0x0000000000005204       0x40 /usr/lib/gcc/arm-none-eabi/9.2.1/../../../arm-none-eabi/lib/thumb/v7e-m+fp/softfp/libg.a(lib_a-svfprintf.o)
 .debug_frame   0x0000000000005244       0x5c /usr/lib/gcc/arm-none-eabi/9.2.1/../../../arm-none-eabi/lib/thumb/v7e-m+fp/softfp/libg.a(lib_a-vsnprintf.o)
 .debug_frame   0x00000000000052a0       0x2c /usr/lib/gcc/arm-none-eabi/9.2.1/../../../arm-none-eabi/lib/thumb/v7e-m+fp/softfp/libg.a(lib_a-writer.o)
 .debug_frame   0x00000000000052cc       0x2c /usr/lib/gcc/arm-none-eabi/9.2.1/../../../arm-none-eabi/lib/thumb/v7e-m+fp/softfp/libg.a(lib_a-closer.o)
 .debug_frame   0x00000000000052f8       0x8c /usr/lib/gcc/arm-none-eabi/9.2.1/../../../arm-none-eabi/lib/thumb/v7e-m+fp/softfp/libg.a(lib_a-dtoa.o)
 .debug_frame   0x0000000000005384       0x3c /usr/lib/gcc/arm-none-eabi/9.2.1/../../../arm-none-eabi/lib/thumb/v7e-m+fp/softfp/libg.a(lib_a-fclose.o)
 .debug_frame   0x00000000000053c0       0x64 /usr/lib/gcc/arm-none-eabi/9.2.1/../../../arm-none-eabi/lib/thumb/v7e-m+fp/softfp/libg.a(lib_a-fvwrite.o)
 .debug_frame   0x0000000000005424       0x40 /usr/lib/gcc/arm-none-eabi/9.2.1/../../../arm-none-eabi/lib/thumb/v7e-m+fp/softfp/libg.a(lib_a-localeconv.o)
 .debug_frame   0x0000000000005464       0x2c /usr/lib/gcc/arm-none-eabi/9.2.1/../../../arm-none-eabi/lib/thumb/v7e-m+fp/softfp/libg.a(lib_a-lseekr.o)
 .debug_frame   0x0000000000005490       0x64 /usr/lib/gcc/arm-none-eabi/9.2.1/../../../arm-none-eabi/lib/thumb/v7e-m+fp/softfp/libg.a(lib_a-makebuf.o)
 .debug_frame   0x00000000000054f4       0x30 /usr/lib/gcc/arm-none-eabi/9.2.1/../../../arm-none-eabi/lib/thumb/v7e-m+fp/softfp/libg.a(lib_a-malloc.o)
 .debug_frame   0x0000000000005524       0x40 /usr/lib/gcc/arm-none-eabi/9.2.1/../../../arm-none-eabi/lib/thumb/v7e-m+fp/softfp/libg.a(lib_a-memmove.o)
 .debug_frame   0x0000000000005564      0x264 /usr/lib/gcc/arm-none-eabi/9.2.1/../../../arm-none-eabi/lib/thumb/v7e-m+fp/softfp/libg.a(lib_a-mprec.o)
 .debug_frame   0x00000000000057c8       0x2c /usr/lib/gcc/arm-none-eabi/9.2.1/../../../arm-none-eabi/lib/thumb/v7e-m+fp/softfp/libg.a(lib_a-readr.o)
 .debug_frame   0x00000000000057f4       0x48 /usr/lib/gcc/arm-none-eabi/9.2.1/../../../arm-none-eabi/lib/thumb/v7e-m+fp/softfp/libg.a(lib_a-reallocr.o)
 .debug_frame   0x000000000000583c       0x60 /usr/lib/gcc/arm-none-eabi/9.2.1/../../../arm-none-eabi/lib/thumb/v7e-m+fp/softfp/libg.a(lib_a-reent.o)
 .debug_frame   0x000000000000589c       0x74 /usr/lib/gcc/arm-none-eabi/9.2.1/../../../arm-none-eabi/lib/thumb/v7e-m+fp/softfp/libg.a(lib_a-svfiprintf.o)
 .debug_frame   0x0000000000005910       0x2c /usr/lib/gcc/arm-none-eabi/9.2.1/../../../arm-none-eabi/lib/thumb/v7e-m+fp/softfp/libg.a(lib_a-wsetup.o)
 .debug_frame   0x000000000000593c       0x40 /usr/lib/gcc/arm-none-eabi/9.2.1/../../../arm-none-eabi/lib/thumb/v7e-m+fp/softfp/libg.a(lib_a-assert.o)
 .debug_frame   0x000000000000597c       0x28 /usr/lib/gcc/arm-none-eabi/9.2.1/../../../arm-none-eabi/lib/thumb/v7e-m+fp/softfp/libg.a(lib_a-callocr.o)
 .debug_frame   0x00000000000059a4       0x70 /usr/lib/gcc/arm-none-eabi/9.2.1/../../../arm-none-eabi/lib/thumb/v7e-m+fp/softfp/libg.a(lib_a-fiprintf.o)
 .debug_frame   0x0000000000005a14       0x2c /usr/lib/gcc/arm-none-eabi/9.2.1/../../../arm-none-eabi/lib/thumb/v7e-m+fp/softfp/libg.a(lib_a-fstatr.o)
 .debug_frame   0x0000000000005a40       0x2c /usr/lib/gcc/arm-none-eabi/9.2.1/../../../arm-none-eabi/lib/thumb/v7e-m+fp/softfp/libg.a(lib_a-isattyr.o)
 .debug_frame   0x0000000000005a6c       0x54 /usr/lib/gcc/arm-none-eabi/9.2.1/../../../arm-none-eabi/lib/thumb/v7e-m+fp/softfp/libg.a(lib_a-locale.o)
 .debug_frame   0x0000000000005ac0       0x4c /usr/lib/gcc/arm-none-eabi/9.2.1/../../../arm-none-eabi/lib/thumb/v7e-m+fp/softfp/libg.a(lib_a-mbtowc_r.o)
 .debug_frame   0x0000000000005b0c       0x68 /usr/lib/gcc/arm-none-eabi/9.2.1/../../../arm-none-eabi/lib/thumb/v7e-m+fp/softfp/libg.a(lib_a-strcmp.o)
 .debug_frame   0x0000000000005b74       0xc8 /usr/lib/gcc/arm-none-eabi/9.2.1/../../../arm-none-eabi/lib/thumb/v7e-m+fp/softfp/libg.a(lib_a-vfiprintf.o)
 .debug_frame   0x0000000000005c3c       0x3c /usr/lib/gcc/arm-none-eabi/9.2.1/../../../arm-none-eabi/lib/thumb/v7e-m+fp/softfp/libg.a(lib_a-wctomb_r.o)
 .debug_frame   0x0000000000005c78       0x28 /usr/lib/gcc/arm-none-eabi/9.2.1/../../../arm-none-eabi/lib/thumb/v7e-m+fp/softfp/libg.a(lib_a-abort.o)
 .debug_frame   0x0000000000005ca0       0x8c /usr/lib/gcc/arm-none-eabi/9.2.1/../../../arm-none-eabi/lib/thumb/v7e-m+fp/softfp/libg.a(lib_a-fputwc.o)
 .debug_frame   0x0000000000005d2c       0xe0 /usr/lib/gcc/arm-none-eabi/9.2.1/../../../arm-none-eabi/lib/thumb/v7e-m+fp/softfp/libg.a(lib_a-signal.o)
 .debug_frame   0x0000000000005e0c       0x3c /usr/lib/gcc/arm-none-eabi/9.2.1/../../../arm-none-eabi/lib/thumb/v7e-m+fp/softfp/libg.a(lib_a-signalr.o)
 .debug_frame   0x0000000000005e48       0x40 /usr/lib/gcc/arm-none-eabi/9.2.1/../../../arm-none-eabi/lib/thumb/v7e-m+fp/softfp/libg.a(lib_a-wbuf.o)
 .debug_frame   0x0000000000005e88       0x64 /usr/lib/gcc/arm-none-eabi/9.2.1/../../../arm-none-eabi/lib/thumb/v7e-m+fp/softfp/libg.a(lib_a-wcrtomb.o)
 .debug_frame   0x0000000000005eec       0xac /usr/lib/gcc/arm-none-eabi/9.2.1/thumb/v7e-m+fp/softfp/libgcc.a(_arm_addsubdf3.o)
 .debug_frame   0x0000000000005f98       0x50 /usr/lib/gcc/arm-none-eabi/9.2.1/thumb/v7e-m+fp/softfp/libgcc.a(_arm_muldivdf3.o)
 .debug_frame   0x0000000000005fe8       0xc4 /usr/lib/gcc/arm-none-eabi/9.2.1/thumb/v7e-m+fp/softfp/libgcc.a(_arm_cmpdf2.o)
 .debug_frame   0x00000000000060ac       0x20 /usr/lib/gcc/arm-none-eabi/9.2.1/thumb/v7e-m+fp/softfp/libgcc.a(_arm_unorddf2.o)
 .debug_frame   0x00000000000060cc       0x24 /usr/lib/gcc/arm-none-eabi/9.2.1/thumb/v7e-m+fp/softfp/libgcc.a(_arm_fixdfsi.o)
 .debug_frame   0x00000000000060f0       0x20 /usr/lib/gcc/arm-none-eabi/9.2.1/../../../arm-none-eabi/lib/thumb/v7e-m+fp/softfp/libnosys.a(sbrk.o)

.debug_loc      0x0000000000000000    0x141c5
 .debug_loc     0x0000000000000000      0xfa2 /usr/lib/gcc/arm-none-eabi/9.2.1/thumb/v7e-m+fp/softfp/libgcc.a(_udivmoddi4.o)
 .debug_loc     0x0000000000000fa2      0x334 /usr/lib/gcc/arm-none-eabi/9.2.1/../../../arm-none-eabi/lib/thumb/v7e-m+fp/softfp/libg.a(lib_a-fflush.o)
 .debug_loc     0x00000000000012d6      0x32c /usr/lib/gcc/arm-none-eabi/9.2.1/../../../arm-none-eabi/lib/thumb/v7e-m+fp/softfp/libg.a(lib_a-findfp.o)
 .debug_loc     0x0000000000001602      0x6f8 /usr/lib/gcc/arm-none-eabi/9.2.1/../../../arm-none-eabi/lib/thumb/v7e-m+fp/softfp/libg.a(lib_a-freer.o)
 .debug_loc     0x0000000000001cfa      0x24f /usr/lib/gcc/arm-none-eabi/9.2.1/../../../arm-none-eabi/lib/thumb/v7e-m+fp/softfp/libg.a(lib_a-fwalk.o)
 .debug_loc     0x0000000000001f49      0x1eb /usr/lib/gcc/arm-none-eabi/9.2.1/../../../arm-none-eabi/lib/thumb/v7e-m+fp/softfp/libg.a(lib_a-fwrite.o)
 .debug_loc     0x0000000000002134      0xf44 /usr/lib/gcc/arm-none-eabi/9.2.1/../../../arm-none-eabi/lib/thumb/v7e-m+fp/softfp/libg.a(lib_a-mallocr.o)
 .debug_loc     0x0000000000003078      0x231 /usr/lib/gcc/arm-none-eabi/9.2.1/../../../arm-none-eabi/lib/thumb/v7e-m+fp/softfp/libg.a(lib_a-memset.o)
 .debug_loc     0x00000000000032a9       0x6c /usr/lib/gcc/arm-none-eabi/9.2.1/../../../arm-none-eabi/lib/thumb/v7e-m+fp/softfp/libg.a(lib_a-sbrkr.o)
 .debug_loc     0x0000000000003315      0x230 /usr/lib/gcc/arm-none-eabi/9.2.1/../../../arm-none-eabi/lib/thumb/v7e-m+fp/softfp/libg.a(lib_a-setvbuf.o)
 .debug_loc     0x0000000000003545      0x301 /usr/lib/gcc/arm-none-eabi/9.2.1/../../../arm-none-eabi/lib/thumb/v7e-m+fp/softfp/libg.a(lib_a-snprintf.o)
 .debug_loc     0x0000000000003846      0x393 /usr/lib/gcc/arm-none-eabi/9.2.1/../../../arm-none-eabi/lib/thumb/v7e-m+fp/softfp/libg.a(lib_a-stdio.o)
 .debug_loc     0x0000000000003bd9     0x33f2 /usr/lib/gcc/arm-none-eabi/9.2.1/../../../arm-none-eabi/lib/thumb/v7e-m+fp/softfp/libg.a(lib_a-svfprintf.o)
 .debug_loc     0x0000000000006fcb      0x245 /usr/lib/gcc/arm-none-eabi/9.2.1/../../../arm-none-eabi/lib/thumb/v7e-m+fp/softfp/libg.a(lib_a-vsnprintf.o)
 .debug_loc     0x0000000000007210       0xdd /usr/lib/gcc/arm-none-eabi/9.2.1/../../../arm-none-eabi/lib/thumb/v7e-m+fp/softfp/libg.a(lib_a-writer.o)
 .debug_loc     0x00000000000072ed       0x6c /usr/lib/gcc/arm-none-eabi/9.2.1/../../../arm-none-eabi/lib/thumb/v7e-m+fp/softfp/libg.a(lib_a-closer.o)
 .debug_loc     0x0000000000007359     0x2f39 /usr/lib/gcc/arm-none-eabi/9.2.1/../../../arm-none-eabi/lib/thumb/v7e-m+fp/softfp/libg.a(lib_a-dtoa.o)
 .debug_loc     0x000000000000a292      0x179 /usr/lib/gcc/arm-none-eabi/9.2.1/../../../arm-none-eabi/lib/thumb/v7e-m+fp/softfp/libg.a(lib_a-fclose.o)
 .debug_loc     0x000000000000a40b      0x669 /usr/lib/gcc/arm-none-eabi/9.2.1/../../../arm-none-eabi/lib/thumb/v7e-m+fp/softfp/libg.a(lib_a-fvwrite.o)
 .debug_loc     0x000000000000aa74       0x6f /usr/lib/gcc/arm-none-eabi/9.2.1/../../../arm-none-eabi/lib/thumb/v7e-m+fp/softfp/libg.a(lib_a-localeconv.o)
 .debug_loc     0x000000000000aae3       0xdd /usr/lib/gcc/arm-none-eabi/9.2.1/../../../arm-none-eabi/lib/thumb/v7e-m+fp/softfp/libg.a(lib_a-lseekr.o)
 .debug_loc     0x000000000000abc0      0x192 /usr/lib/gcc/arm-none-eabi/9.2.1/../../../arm-none-eabi/lib/thumb/v7e-m+fp/softfp/libg.a(lib_a-makebuf.o)
 .debug_loc     0x000000000000ad52       0x64 /usr/lib/gcc/arm-none-eabi/9.2.1/../../../arm-none-eabi/lib/thumb/v7e-m+fp/softfp/libg.a(lib_a-malloc.o)
 .debug_loc     0x000000000000adb6      0x2f1 /usr/lib/gcc/arm-none-eabi/9.2.1/../../../arm-none-eabi/lib/thumb/v7e-m+fp/softfp/libg.a(lib_a-memmove.o)
 .debug_loc     0x000000000000b0a7     0x22ed /usr/lib/gcc/arm-none-eabi/9.2.1/../../../arm-none-eabi/lib/thumb/v7e-m+fp/softfp/libg.a(lib_a-mprec.o)
 .debug_loc     0x000000000000d394       0xdd /usr/lib/gcc/arm-none-eabi/9.2.1/../../../arm-none-eabi/lib/thumb/v7e-m+fp/softfp/libg.a(lib_a-readr.o)
 .debug_loc     0x000000000000d471     0x12c8 /usr/lib/gcc/arm-none-eabi/9.2.1/../../../arm-none-eabi/lib/thumb/v7e-m+fp/softfp/libg.a(lib_a-reallocr.o)
 .debug_loc     0x000000000000e739      0x152 /usr/lib/gcc/arm-none-eabi/9.2.1/../../../arm-none-eabi/lib/thumb/v7e-m+fp/softfp/libg.a(lib_a-reent.o)
 .debug_loc     0x000000000000e88b     0x1923 /usr/lib/gcc/arm-none-eabi/9.2.1/../../../arm-none-eabi/lib/thumb/v7e-m+fp/softfp/libg.a(lib_a-svfiprintf.o)
 .debug_loc     0x00000000000101ae       0xba /usr/lib/gcc/arm-none-eabi/9.2.1/../../../arm-none-eabi/lib/thumb/v7e-m+fp/softfp/libg.a(lib_a-wsetup.o)
 .debug_loc     0x0000000000010268      0x15c /usr/lib/gcc/arm-none-eabi/9.2.1/../../../arm-none-eabi/lib/thumb/v7e-m+fp/softfp/libg.a(lib_a-assert.o)
 .debug_loc     0x00000000000103c4      0x2d6 /usr/lib/gcc/arm-none-eabi/9.2.1/../../../arm-none-eabi/lib/thumb/v7e-m+fp/softfp/libg.a(lib_a-callocr.o)
 .debug_loc     0x000000000001069a       0xa6 /usr/lib/gcc/arm-none-eabi/9.2.1/../../../arm-none-eabi/lib/thumb/v7e-m+fp/softfp/libg.a(lib_a-fiprintf.o)
 .debug_loc     0x0000000000010740       0xab /usr/lib/gcc/arm-none-eabi/9.2.1/../../../arm-none-eabi/lib/thumb/v7e-m+fp/softfp/libg.a(lib_a-fstatr.o)
 .debug_loc     0x00000000000107eb       0x6c /usr/lib/gcc/arm-none-eabi/9.2.1/../../../arm-none-eabi/lib/thumb/v7e-m+fp/softfp/libg.a(lib_a-isattyr.o)
 .debug_loc     0x0000000000010857      0x189 /usr/lib/gcc/arm-none-eabi/9.2.1/../../../arm-none-eabi/lib/thumb/v7e-m+fp/softfp/libg.a(lib_a-locale.o)
 .debug_loc     0x00000000000109e0      0x21d /usr/lib/gcc/arm-none-eabi/9.2.1/../../../arm-none-eabi/lib/thumb/v7e-m+fp/softfp/libg.a(lib_a-mbtowc_r.o)
 .debug_loc     0x0000000000010bfd     0x25f3 /usr/lib/gcc/arm-none-eabi/9.2.1/../../../arm-none-eabi/lib/thumb/v7e-m+fp/softfp/libg.a(lib_a-vfiprintf.o)
 .debug_loc     0x00000000000131f0      0x13a /usr/lib/gcc/arm-none-eabi/9.2.1/../../../arm-none-eabi/lib/thumb/v7e-m+fp/softfp/libg.a(lib_a-wctomb_r.o)
 .debug_loc     0x000000000001332a      0x3cc /usr/lib/gcc/arm-none-eabi/9.2.1/../../../arm-none-eabi/lib/thumb/v7e-m+fp/softfp/libg.a(lib_a-fputwc.o)
 .debug_loc     0x00000000000136f6      0x560 /usr/lib/gcc/arm-none-eabi/9.2.1/../../../arm-none-eabi/lib/thumb/v7e-m+fp/softfp/libg.a(lib_a-signal.o)
 .debug_loc     0x0000000000013c56       0xd0 /usr/lib/gcc/arm-none-eabi/9.2.1/../../../arm-none-eabi/lib/thumb/v7e-m+fp/softfp/libg.a(lib_a-signalr.o)
 .debug_loc     0x0000000000013d26      0x1b0 /usr/lib/gcc/arm-none-eabi/9.2.1/../../../arm-none-eabi/lib/thumb/v7e-m+fp/softfp/libg.a(lib_a-wbuf.o)
 .debug_loc     0x0000000000013ed6      0x2b1 /usr/lib/gcc/arm-none-eabi/9.2.1/../../../arm-none-eabi/lib/thumb/v7e-m+fp/softfp/libg.a(lib_a-wcrtomb.o)
 .debug_loc     0x0000000000014187       0x3e /usr/lib/gcc/arm-none-eabi/9.2.1/../../../arm-none-eabi/lib/thumb/v7e-m+fp/softfp/libnosys.a(sbrk.o)

Cross Reference Table

Symbol                                            File
ACMP0_IRQHandler                                  build/tsb0//home/karl/SimplicityStudio_v5/developer/sdks/gecko_sdk_suite/v3.2/platform/Device/SiliconLabs/EFR32MG12P/Source/GCC/startup_efr32mg12p.o
ADC0_IRQHandler                                   build/tsb0//home/karl/SimplicityStudio_v5/developer/sdks/gecko_sdk_suite/v3.2/platform/Device/SiliconLabs/EFR32MG12P/Source/GCC/startup_efr32mg12p.o
AGC_IRQHandler                                    build/tsb0//home/karl/SimplicityStudio_v5/developer/sdks/gecko_sdk_suite/v3.2/platform/Device/SiliconLabs/EFR32MG12P/Source/GCC/startup_efr32mg12p.o
BUFC_IRQHandler                                   build/tsb0//home/karl/SimplicityStudio_v5/developer/sdks/gecko_sdk_suite/v3.2/platform/Device/SiliconLabs/EFR32MG12P/Source/GCC/startup_efr32mg12p.o
BusFault_Handler                                  build/tsb0//home/karl/SimplicityStudio_v5/developer/sdks/gecko_sdk_suite/v3.2/platform/Device/SiliconLabs/EFR32MG12P/Source/GCC/startup_efr32mg12p.o
CMU_AUXHFRCOBandGet                               build/tsb0//home/karl/SimplicityStudio_v5/developer/sdks/gecko_sdk_suite/v3.2/platform/emlib/src/em_cmu.o
CMU_AUXHFRCOBandSet                               build/tsb0//home/karl/SimplicityStudio_v5/developer/sdks/gecko_sdk_suite/v3.2/platform/emlib/src/em_cmu.o
CMU_Calibrate                                     build/tsb0//home/karl/SimplicityStudio_v5/developer/sdks/gecko_sdk_suite/v3.2/platform/emlib/src/em_cmu.o
CMU_CalibrateConfig                               build/tsb0//home/karl/SimplicityStudio_v5/developer/sdks/gecko_sdk_suite/v3.2/platform/emlib/src/em_cmu.o
CMU_CalibrateCountGet                             build/tsb0//home/karl/SimplicityStudio_v5/developer/sdks/gecko_sdk_suite/v3.2/platform/emlib/src/em_cmu.o
CMU_ClockDivGet                                   build/tsb0//home/karl/SimplicityStudio_v5/developer/sdks/gecko_sdk_suite/v3.2/platform/emlib/src/em_cmu.o
CMU_ClockDivSet                                   build/tsb0//home/karl/SimplicityStudio_v5/developer/sdks/gecko_sdk_suite/v3.2/platform/emlib/src/em_cmu.o
CMU_ClockEnable                                   build/tsb0//home/karl/SimplicityStudio_v5/developer/sdks/gecko_sdk_suite/v3.2/platform/emlib/src/em_cmu.o
                                                  build/tsb0//home/karl/node-apps/zoo/thinnect.node-platform/silabs/platform_io.o
                                                  build/tsb0//home/karl/SimplicityStudio_v5/developer/sdks/gecko_sdk_suite/v3.2/hardware/kit/common/drivers/retargetserial.o
                                                  build/tsb0/timer_handler.o
CMU_ClockFreqGet                                  build/tsb0//home/karl/SimplicityStudio_v5/developer/sdks/gecko_sdk_suite/v3.2/platform/emlib/src/em_cmu.o
                                                  build/tsb0//home/karl/SimplicityStudio_v5/developer/sdks/gecko_sdk_suite/v3.2/platform/emlib/src/em_usart.o
CMU_ClockPrescGet                                 build/tsb0//home/karl/SimplicityStudio_v5/developer/sdks/gecko_sdk_suite/v3.2/platform/emlib/src/em_cmu.o
CMU_ClockPrescSet                                 build/tsb0//home/karl/SimplicityStudio_v5/developer/sdks/gecko_sdk_suite/v3.2/platform/emlib/src/em_cmu.o
CMU_ClockSelectGet                                build/tsb0//home/karl/SimplicityStudio_v5/developer/sdks/gecko_sdk_suite/v3.2/platform/emlib/src/em_cmu.o
                                                  build/tsb0//home/karl/SimplicityStudio_v5/developer/sdks/gecko_sdk_suite/v3.2/platform/emlib/src/em_emu.o
CMU_ClockSelectSet                                build/tsb0//home/karl/SimplicityStudio_v5/developer/sdks/gecko_sdk_suite/v3.2/platform/emlib/src/em_cmu.o
                                                  build/tsb0//home/karl/node-apps/zoo/thinnect.dev-platforms/make/boards/../../src/boards/tsb0/platform.o
                                                  build/tsb0//home/karl/SimplicityStudio_v5/developer/sdks/gecko_sdk_suite/v3.2/platform/emlib/src/em_emu.o
CMU_DPLLLock                                      build/tsb0//home/karl/SimplicityStudio_v5/developer/sdks/gecko_sdk_suite/v3.2/platform/emlib/src/em_cmu.o
CMU_FreezeEnable                                  build/tsb0//home/karl/SimplicityStudio_v5/developer/sdks/gecko_sdk_suite/v3.2/platform/emlib/src/em_cmu.o
CMU_HFRCOBandGet                                  build/tsb0//home/karl/SimplicityStudio_v5/developer/sdks/gecko_sdk_suite/v3.2/platform/emlib/src/em_cmu.o
CMU_HFRCOBandSet                                  build/tsb0//home/karl/SimplicityStudio_v5/developer/sdks/gecko_sdk_suite/v3.2/platform/emlib/src/em_cmu.o
CMU_HFXOAutostartEnable                           build/tsb0//home/karl/SimplicityStudio_v5/developer/sdks/gecko_sdk_suite/v3.2/platform/emlib/src/em_cmu.o
CMU_HFXOInit                                      build/tsb0//home/karl/SimplicityStudio_v5/developer/sdks/gecko_sdk_suite/v3.2/platform/emlib/src/em_cmu.o
                                                  build/tsb0//home/karl/node-apps/zoo/thinnect.dev-platforms/make/boards/../../src/boards/tsb0/platform.o
CMU_IRQHandler                                    build/tsb0//home/karl/SimplicityStudio_v5/developer/sdks/gecko_sdk_suite/v3.2/platform/Device/SiliconLabs/EFR32MG12P/Source/GCC/startup_efr32mg12p.o
CMU_LCDClkFDIVGet                                 build/tsb0//home/karl/SimplicityStudio_v5/developer/sdks/gecko_sdk_suite/v3.2/platform/emlib/src/em_cmu.o
CMU_LCDClkFDIVSet                                 build/tsb0//home/karl/SimplicityStudio_v5/developer/sdks/gecko_sdk_suite/v3.2/platform/emlib/src/em_cmu.o
CMU_LFXOInit                                      build/tsb0//home/karl/SimplicityStudio_v5/developer/sdks/gecko_sdk_suite/v3.2/platform/emlib/src/em_cmu.o
CMU_LFXOPrecisionSet                              build/tsb0//home/karl/SimplicityStudio_v5/developer/sdks/gecko_sdk_suite/v3.2/platform/emlib/src/em_cmu.o
CMU_LF_ClockPrecisionGet                          build/tsb0//home/karl/SimplicityStudio_v5/developer/sdks/gecko_sdk_suite/v3.2/platform/emlib/src/em_cmu.o
CMU_OscillatorEnable                              build/tsb0//home/karl/SimplicityStudio_v5/developer/sdks/gecko_sdk_suite/v3.2/platform/emlib/src/em_cmu.o
                                                  build/tsb0//home/karl/node-apps/zoo/thinnect.dev-platforms/make/boards/../../src/boards/tsb0/platform.o
CMU_OscillatorTuningGet                           build/tsb0//home/karl/SimplicityStudio_v5/developer/sdks/gecko_sdk_suite/v3.2/platform/emlib/src/em_cmu.o
CMU_OscillatorTuningOptimize                      build/tsb0//home/karl/SimplicityStudio_v5/developer/sdks/gecko_sdk_suite/v3.2/platform/emlib/src/em_cmu.o
CMU_OscillatorTuningSet                           build/tsb0//home/karl/SimplicityStudio_v5/developer/sdks/gecko_sdk_suite/v3.2/platform/emlib/src/em_cmu.o
CMU_OscillatorTuningWait                          build/tsb0//home/karl/SimplicityStudio_v5/developer/sdks/gecko_sdk_suite/v3.2/platform/emlib/src/em_cmu.o
CMU_PCNTClockExternalGet                          build/tsb0//home/karl/SimplicityStudio_v5/developer/sdks/gecko_sdk_suite/v3.2/platform/emlib/src/em_cmu.o
CMU_PCNTClockExternalSet                          build/tsb0//home/karl/SimplicityStudio_v5/developer/sdks/gecko_sdk_suite/v3.2/platform/emlib/src/em_cmu.o
CMU_UpdateWaitStates                              build/tsb0//home/karl/SimplicityStudio_v5/developer/sdks/gecko_sdk_suite/v3.2/platform/emlib/src/em_cmu.o
                                                  build/tsb0//home/karl/SimplicityStudio_v5/developer/sdks/gecko_sdk_suite/v3.2/platform/emlib/src/em_emu.o
CORE_AtomicDisableIrq                             build/tsb0//home/karl/SimplicityStudio_v5/developer/sdks/gecko_sdk_suite/v3.2/platform/emlib/src/em_core.o
CORE_AtomicEnableIrq                              build/tsb0//home/karl/SimplicityStudio_v5/developer/sdks/gecko_sdk_suite/v3.2/platform/emlib/src/em_core.o
CORE_CriticalDisableIrq                           build/tsb0//home/karl/SimplicityStudio_v5/developer/sdks/gecko_sdk_suite/v3.2/platform/emlib/src/em_core.o
CORE_CriticalEnableIrq                            build/tsb0//home/karl/SimplicityStudio_v5/developer/sdks/gecko_sdk_suite/v3.2/platform/emlib/src/em_core.o
CORE_EnterAtomic                                  build/tsb0//home/karl/SimplicityStudio_v5/developer/sdks/gecko_sdk_suite/v3.2/platform/emlib/src/em_core.o
                                                  build/tsb0//home/karl/SimplicityStudio_v5/developer/sdks/gecko_sdk_suite/v3.2/hardware/kit/common/drivers/retargetserial.o
CORE_EnterCritical                                build/tsb0//home/karl/SimplicityStudio_v5/developer/sdks/gecko_sdk_suite/v3.2/platform/emlib/src/em_core.o
                                                  build/tsb0//home/karl/SimplicityStudio_v5/developer/sdks/gecko_sdk_suite/v3.2/platform/emlib/src/em_gpio.o
                                                  build/tsb0//home/karl/SimplicityStudio_v5/developer/sdks/gecko_sdk_suite/v3.2/platform/emlib/src/em_emu.o
CORE_EnterNvicMask                                build/tsb0//home/karl/SimplicityStudio_v5/developer/sdks/gecko_sdk_suite/v3.2/platform/emlib/src/em_core.o
CORE_ExitAtomic                                   build/tsb0//home/karl/SimplicityStudio_v5/developer/sdks/gecko_sdk_suite/v3.2/platform/emlib/src/em_core.o
                                                  build/tsb0//home/karl/SimplicityStudio_v5/developer/sdks/gecko_sdk_suite/v3.2/hardware/kit/common/drivers/retargetserial.o
CORE_ExitCritical                                 build/tsb0//home/karl/SimplicityStudio_v5/developer/sdks/gecko_sdk_suite/v3.2/platform/emlib/src/em_core.o
                                                  build/tsb0//home/karl/SimplicityStudio_v5/developer/sdks/gecko_sdk_suite/v3.2/platform/emlib/src/em_gpio.o
                                                  build/tsb0//home/karl/SimplicityStudio_v5/developer/sdks/gecko_sdk_suite/v3.2/platform/emlib/src/em_emu.o
CORE_GetNvicEnabledMask                           build/tsb0//home/karl/SimplicityStudio_v5/developer/sdks/gecko_sdk_suite/v3.2/platform/emlib/src/em_core.o
CORE_GetNvicMaskDisableState                      build/tsb0//home/karl/SimplicityStudio_v5/developer/sdks/gecko_sdk_suite/v3.2/platform/emlib/src/em_core.o
CORE_GetNvicRamTableHandler                       build/tsb0//home/karl/SimplicityStudio_v5/developer/sdks/gecko_sdk_suite/v3.2/platform/emlib/src/em_core.o
CORE_InIrqContext                                 build/tsb0//home/karl/SimplicityStudio_v5/developer/sdks/gecko_sdk_suite/v3.2/platform/emlib/src/em_core.o
CORE_InitNvicVectorTable                          build/tsb0//home/karl/SimplicityStudio_v5/developer/sdks/gecko_sdk_suite/v3.2/platform/emlib/src/em_core.o
CORE_IrqIsBlocked                                 build/tsb0//home/karl/SimplicityStudio_v5/developer/sdks/gecko_sdk_suite/v3.2/platform/emlib/src/em_core.o
CORE_IrqIsDisabled                                build/tsb0//home/karl/SimplicityStudio_v5/developer/sdks/gecko_sdk_suite/v3.2/platform/emlib/src/em_core.o
CORE_NvicDisableMask                              build/tsb0//home/karl/SimplicityStudio_v5/developer/sdks/gecko_sdk_suite/v3.2/platform/emlib/src/em_core.o
CORE_NvicEnableMask                               build/tsb0//home/karl/SimplicityStudio_v5/developer/sdks/gecko_sdk_suite/v3.2/platform/emlib/src/em_core.o
CORE_NvicIRQDisabled                              build/tsb0//home/karl/SimplicityStudio_v5/developer/sdks/gecko_sdk_suite/v3.2/platform/emlib/src/em_core.o
CORE_NvicMaskClearIRQ                             build/tsb0//home/karl/SimplicityStudio_v5/developer/sdks/gecko_sdk_suite/v3.2/platform/emlib/src/em_core.o
CORE_NvicMaskSetIRQ                               build/tsb0//home/karl/SimplicityStudio_v5/developer/sdks/gecko_sdk_suite/v3.2/platform/emlib/src/em_core.o
CORE_SetNvicRamTableHandler                       build/tsb0//home/karl/SimplicityStudio_v5/developer/sdks/gecko_sdk_suite/v3.2/platform/emlib/src/em_core.o
CORE_YieldAtomic                                  build/tsb0//home/karl/SimplicityStudio_v5/developer/sdks/gecko_sdk_suite/v3.2/platform/emlib/src/em_core.o
CORE_YieldCritical                                build/tsb0//home/karl/SimplicityStudio_v5/developer/sdks/gecko_sdk_suite/v3.2/platform/emlib/src/em_core.o
CORE_YieldNvicMask                                build/tsb0//home/karl/SimplicityStudio_v5/developer/sdks/gecko_sdk_suite/v3.2/platform/emlib/src/em_core.o
CRYOTIMER_IRQHandler                              build/tsb0//home/karl/SimplicityStudio_v5/developer/sdks/gecko_sdk_suite/v3.2/platform/Device/SiliconLabs/EFR32MG12P/Source/GCC/startup_efr32mg12p.o
CRYPTO0_IRQHandler                                build/tsb0//home/karl/SimplicityStudio_v5/developer/sdks/gecko_sdk_suite/v3.2/platform/Device/SiliconLabs/EFR32MG12P/Source/GCC/startup_efr32mg12p.o
CRYPTO1_IRQHandler                                build/tsb0//home/karl/SimplicityStudio_v5/developer/sdks/gecko_sdk_suite/v3.2/platform/Device/SiliconLabs/EFR32MG12P/Source/GCC/startup_efr32mg12p.o
CSEN_IRQHandler                                   build/tsb0//home/karl/SimplicityStudio_v5/developer/sdks/gecko_sdk_suite/v3.2/platform/Device/SiliconLabs/EFR32MG12P/Source/GCC/startup_efr32mg12p.o
DebugMon_Handler                                  build/tsb0//home/karl/SimplicityStudio_v5/developer/sdks/gecko_sdk_suite/v3.2/platform/Device/SiliconLabs/EFR32MG12P/Source/GCC/startup_efr32mg12p.o
Default_Handler                                   build/tsb0//home/karl/SimplicityStudio_v5/developer/sdks/gecko_sdk_suite/v3.2/platform/Device/SiliconLabs/EFR32MG12P/Source/GCC/startup_efr32mg12p.o
EMU_DCDCConductionModeSet                         build/tsb0//home/karl/SimplicityStudio_v5/developer/sdks/gecko_sdk_suite/v3.2/platform/emlib/src/em_emu.o
EMU_DCDCInit                                      build/tsb0//home/karl/SimplicityStudio_v5/developer/sdks/gecko_sdk_suite/v3.2/platform/emlib/src/em_emu.o
EMU_DCDCLnRcoBandSet                              build/tsb0//home/karl/SimplicityStudio_v5/developer/sdks/gecko_sdk_suite/v3.2/platform/emlib/src/em_emu.o
EMU_DCDCModeEM23Set                               build/tsb0//home/karl/SimplicityStudio_v5/developer/sdks/gecko_sdk_suite/v3.2/platform/emlib/src/em_emu.o
EMU_DCDCModeSet                                   build/tsb0//home/karl/SimplicityStudio_v5/developer/sdks/gecko_sdk_suite/v3.2/platform/emlib/src/em_emu.o
EMU_DCDCOptimizeSlice                             build/tsb0//home/karl/SimplicityStudio_v5/developer/sdks/gecko_sdk_suite/v3.2/platform/emlib/src/em_emu.o
EMU_DCDCOutputVoltageSet                          build/tsb0//home/karl/SimplicityStudio_v5/developer/sdks/gecko_sdk_suite/v3.2/platform/emlib/src/em_emu.o
EMU_DCDCPowerOff                                  build/tsb0//home/karl/SimplicityStudio_v5/developer/sdks/gecko_sdk_suite/v3.2/platform/emlib/src/em_emu.o
EMU_EFPEM23PostsleepHook                          build/tsb0//home/karl/SimplicityStudio_v5/developer/sdks/gecko_sdk_suite/v3.2/platform/emlib/src/em_emu.o
EMU_EFPEM23PresleepHook                           build/tsb0//home/karl/SimplicityStudio_v5/developer/sdks/gecko_sdk_suite/v3.2/platform/emlib/src/em_emu.o
EMU_EFPEM4PresleepHook                            build/tsb0//home/karl/SimplicityStudio_v5/developer/sdks/gecko_sdk_suite/v3.2/platform/emlib/src/em_emu.o
EMU_EM01Init                                      build/tsb0//home/karl/SimplicityStudio_v5/developer/sdks/gecko_sdk_suite/v3.2/platform/emlib/src/em_emu.o
EMU_EM23Init                                      build/tsb0//home/karl/SimplicityStudio_v5/developer/sdks/gecko_sdk_suite/v3.2/platform/emlib/src/em_emu.o
EMU_EM23PostsleepHook                             build/tsb0//home/karl/SimplicityStudio_v5/developer/sdks/gecko_sdk_suite/v3.2/platform/emlib/src/em_emu.o
EMU_EM23PresleepHook                              build/tsb0//home/karl/SimplicityStudio_v5/developer/sdks/gecko_sdk_suite/v3.2/platform/emlib/src/em_emu.o
EMU_EM4Init                                       build/tsb0//home/karl/SimplicityStudio_v5/developer/sdks/gecko_sdk_suite/v3.2/platform/emlib/src/em_emu.o
EMU_EM4PresleepHook                               build/tsb0//home/karl/SimplicityStudio_v5/developer/sdks/gecko_sdk_suite/v3.2/platform/emlib/src/em_emu.o
EMU_EnterEM2                                      build/tsb0//home/karl/SimplicityStudio_v5/developer/sdks/gecko_sdk_suite/v3.2/platform/emlib/src/em_emu.o
EMU_EnterEM3                                      build/tsb0//home/karl/SimplicityStudio_v5/developer/sdks/gecko_sdk_suite/v3.2/platform/emlib/src/em_emu.o
EMU_EnterEM4                                      build/tsb0//home/karl/SimplicityStudio_v5/developer/sdks/gecko_sdk_suite/v3.2/platform/emlib/src/em_emu.o
EMU_EnterEM4H                                     build/tsb0//home/karl/SimplicityStudio_v5/developer/sdks/gecko_sdk_suite/v3.2/platform/emlib/src/em_emu.o
EMU_EnterEM4S                                     build/tsb0//home/karl/SimplicityStudio_v5/developer/sdks/gecko_sdk_suite/v3.2/platform/emlib/src/em_emu.o
EMU_IRQHandler                                    build/tsb0//home/karl/SimplicityStudio_v5/developer/sdks/gecko_sdk_suite/v3.2/platform/Device/SiliconLabs/EFR32MG12P/Source/GCC/startup_efr32mg12p.o
EMU_MemPwrDown                                    build/tsb0//home/karl/SimplicityStudio_v5/developer/sdks/gecko_sdk_suite/v3.2/platform/emlib/src/em_emu.o
EMU_PeripheralRetention                           build/tsb0//home/karl/SimplicityStudio_v5/developer/sdks/gecko_sdk_suite/v3.2/platform/emlib/src/em_emu.o
EMU_RamPowerDown                                  build/tsb0//home/karl/SimplicityStudio_v5/developer/sdks/gecko_sdk_suite/v3.2/platform/emlib/src/em_emu.o
EMU_RamPowerUp                                    build/tsb0//home/karl/SimplicityStudio_v5/developer/sdks/gecko_sdk_suite/v3.2/platform/emlib/src/em_emu.o
EMU_Restore                                       build/tsb0//home/karl/SimplicityStudio_v5/developer/sdks/gecko_sdk_suite/v3.2/platform/emlib/src/em_emu.o
EMU_Save                                          build/tsb0//home/karl/SimplicityStudio_v5/developer/sdks/gecko_sdk_suite/v3.2/platform/emlib/src/em_emu.o
EMU_TemperatureGet                                build/tsb0//home/karl/SimplicityStudio_v5/developer/sdks/gecko_sdk_suite/v3.2/platform/emlib/src/em_emu.o
EMU_UpdateOscConfig                               build/tsb0//home/karl/SimplicityStudio_v5/developer/sdks/gecko_sdk_suite/v3.2/platform/emlib/src/em_emu.o
EMU_VScaleEM01                                    build/tsb0//home/karl/SimplicityStudio_v5/developer/sdks/gecko_sdk_suite/v3.2/platform/emlib/src/em_emu.o
EMU_VScaleEM01ByClock                             build/tsb0//home/karl/SimplicityStudio_v5/developer/sdks/gecko_sdk_suite/v3.2/platform/emlib/src/em_emu.o
                                                  build/tsb0//home/karl/SimplicityStudio_v5/developer/sdks/gecko_sdk_suite/v3.2/platform/emlib/src/em_cmu.o
EMU_VmonChannelStatusGet                          build/tsb0//home/karl/SimplicityStudio_v5/developer/sdks/gecko_sdk_suite/v3.2/platform/emlib/src/em_emu.o
EMU_VmonEnable                                    build/tsb0//home/karl/SimplicityStudio_v5/developer/sdks/gecko_sdk_suite/v3.2/platform/emlib/src/em_emu.o
EMU_VmonHystInit                                  build/tsb0//home/karl/SimplicityStudio_v5/developer/sdks/gecko_sdk_suite/v3.2/platform/emlib/src/em_emu.o
EMU_VmonInit                                      build/tsb0//home/karl/SimplicityStudio_v5/developer/sdks/gecko_sdk_suite/v3.2/platform/emlib/src/em_emu.o
FPUEH_IRQHandler                                  build/tsb0//home/karl/SimplicityStudio_v5/developer/sdks/gecko_sdk_suite/v3.2/platform/Device/SiliconLabs/EFR32MG12P/Source/GCC/startup_efr32mg12p.o
FRC_IRQHandler                                    build/tsb0//home/karl/SimplicityStudio_v5/developer/sdks/gecko_sdk_suite/v3.2/platform/Device/SiliconLabs/EFR32MG12P/Source/GCC/startup_efr32mg12p.o
FRC_PRI_IRQHandler                                build/tsb0//home/karl/SimplicityStudio_v5/developer/sdks/gecko_sdk_suite/v3.2/platform/Device/SiliconLabs/EFR32MG12P/Source/GCC/startup_efr32mg12p.o
GPIO_DbgLocationSet                               build/tsb0//home/karl/SimplicityStudio_v5/developer/sdks/gecko_sdk_suite/v3.2/platform/emlib/src/em_gpio.o
GPIO_DriveStrengthSet                             build/tsb0//home/karl/SimplicityStudio_v5/developer/sdks/gecko_sdk_suite/v3.2/platform/emlib/src/em_gpio.o
GPIO_EM4EnablePinWakeup                           build/tsb0//home/karl/SimplicityStudio_v5/developer/sdks/gecko_sdk_suite/v3.2/platform/emlib/src/em_gpio.o
GPIO_EVEN_IRQHandler                              build/tsb0//home/karl/SimplicityStudio_v5/developer/sdks/gecko_sdk_suite/v3.2/platform/Device/SiliconLabs/EFR32MG12P/Source/GCC/startup_efr32mg12p.o
GPIO_ExtIntConfig                                 build/tsb0//home/karl/SimplicityStudio_v5/developer/sdks/gecko_sdk_suite/v3.2/platform/emlib/src/em_gpio.o
GPIO_ODD_IRQHandler                               build/tsb0//home/karl/SimplicityStudio_v5/developer/sdks/gecko_sdk_suite/v3.2/platform/Device/SiliconLabs/EFR32MG12P/Source/GCC/startup_efr32mg12p.o
GPIO_PinModeGet                                   build/tsb0//home/karl/SimplicityStudio_v5/developer/sdks/gecko_sdk_suite/v3.2/platform/emlib/src/em_gpio.o
GPIO_PinModeSet                                   build/tsb0//home/karl/SimplicityStudio_v5/developer/sdks/gecko_sdk_suite/v3.2/platform/emlib/src/em_gpio.o
                                                  build/tsb0//home/karl/node-apps/zoo/thinnect.node-platform/silabs/platform_io.o
                                                  build/tsb0//home/karl/SimplicityStudio_v5/developer/sdks/gecko_sdk_suite/v3.2/hardware/kit/common/drivers/retargetserial.o
HardFault_Handler                                 build/tsb0//home/karl/SimplicityStudio_v5/developer/sdks/gecko_sdk_suite/v3.2/platform/Device/SiliconLabs/EFR32MG12P/Source/GCC/startup_efr32mg12p.o
I2C0_IRQHandler                                   build/tsb0//home/karl/SimplicityStudio_v5/developer/sdks/gecko_sdk_suite/v3.2/platform/Device/SiliconLabs/EFR32MG12P/Source/GCC/startup_efr32mg12p.o
I2C1_IRQHandler                                   build/tsb0//home/karl/SimplicityStudio_v5/developer/sdks/gecko_sdk_suite/v3.2/platform/Device/SiliconLabs/EFR32MG12P/Source/GCC/startup_efr32mg12p.o
IDAC0_IRQHandler                                  build/tsb0//home/karl/SimplicityStudio_v5/developer/sdks/gecko_sdk_suite/v3.2/platform/Device/SiliconLabs/EFR32MG12P/Source/GCC/startup_efr32mg12p.o
LDMA_IRQHandler                                   build/tsb0//home/karl/SimplicityStudio_v5/developer/sdks/gecko_sdk_suite/v3.2/platform/Device/SiliconLabs/EFR32MG12P/Source/GCC/startup_efr32mg12p.o
LESENSE_IRQHandler                                build/tsb0//home/karl/SimplicityStudio_v5/developer/sdks/gecko_sdk_suite/v3.2/platform/Device/SiliconLabs/EFR32MG12P/Source/GCC/startup_efr32mg12p.o
LETIMER0_IRQHandler                               build/tsb0//home/karl/SimplicityStudio_v5/developer/sdks/gecko_sdk_suite/v3.2/platform/Device/SiliconLabs/EFR32MG12P/Source/GCC/startup_efr32mg12p.o
LEUART0_IRQHandler                                build/tsb0//home/karl/SimplicityStudio_v5/developer/sdks/gecko_sdk_suite/v3.2/platform/Device/SiliconLabs/EFR32MG12P/Source/GCC/startup_efr32mg12p.o
MODEM_IRQHandler                                  build/tsb0//home/karl/SimplicityStudio_v5/developer/sdks/gecko_sdk_suite/v3.2/platform/Device/SiliconLabs/EFR32MG12P/Source/GCC/startup_efr32mg12p.o
MSC_Deinit                                        build/tsb0//home/karl/SimplicityStudio_v5/developer/sdks/gecko_sdk_suite/v3.2/platform/emlib/src/em_msc.o
MSC_ErasePage                                     build/tsb0//home/karl/SimplicityStudio_v5/developer/sdks/gecko_sdk_suite/v3.2/platform/emlib/src/em_msc.o
MSC_ExecConfigSet                                 build/tsb0//home/karl/SimplicityStudio_v5/developer/sdks/gecko_sdk_suite/v3.2/platform/emlib/src/em_msc.o
MSC_IRQHandler                                    build/tsb0//home/karl/SimplicityStudio_v5/developer/sdks/gecko_sdk_suite/v3.2/platform/Device/SiliconLabs/EFR32MG12P/Source/GCC/startup_efr32mg12p.o
MSC_Init                                          build/tsb0//home/karl/SimplicityStudio_v5/developer/sdks/gecko_sdk_suite/v3.2/platform/emlib/src/em_msc.o
                                                  build/tsb0//home/karl/node-apps/zoo/thinnect.dev-platforms/make/boards/../../src/boards/tsb0/platform.o
MSC_LoadVerifyAddress                             build/tsb0//home/karl/SimplicityStudio_v5/developer/sdks/gecko_sdk_suite/v3.2/platform/emlib/src/em_msc.o
MSC_LoadWriteData                                 build/tsb0//home/karl/SimplicityStudio_v5/developer/sdks/gecko_sdk_suite/v3.2/platform/emlib/src/em_msc.o
MSC_MassErase                                     build/tsb0//home/karl/SimplicityStudio_v5/developer/sdks/gecko_sdk_suite/v3.2/platform/emlib/src/em_msc.o
MSC_WriteWord                                     build/tsb0//home/karl/SimplicityStudio_v5/developer/sdks/gecko_sdk_suite/v3.2/platform/emlib/src/em_msc.o
MSC_WriteWordDma                                  build/tsb0//home/karl/SimplicityStudio_v5/developer/sdks/gecko_sdk_suite/v3.2/platform/emlib/src/em_msc.o
MSC_WriteWordFast                                 build/tsb0//home/karl/SimplicityStudio_v5/developer/sdks/gecko_sdk_suite/v3.2/platform/emlib/src/em_msc.o
MSC_WriteWordI                                    build/tsb0//home/karl/SimplicityStudio_v5/developer/sdks/gecko_sdk_suite/v3.2/platform/emlib/src/em_msc.o
MemManage_Handler                                 build/tsb0//home/karl/SimplicityStudio_v5/developer/sdks/gecko_sdk_suite/v3.2/platform/Device/SiliconLabs/EFR32MG12P/Source/GCC/startup_efr32mg12p.o
NMI_Handler                                       build/tsb0//home/karl/SimplicityStudio_v5/developer/sdks/gecko_sdk_suite/v3.2/platform/Device/SiliconLabs/EFR32MG12P/Source/GCC/startup_efr32mg12p.o
OS_Tick_GetCount                                  build/tsb0//home/karl/node-apps/zoo/thinnect.cmsis-freertos/CMSIS-FreeRTOS/CMSIS/RTOS2/FreeRTOS/Source/cmsis_os2.o
OS_Tick_GetInterval                               build/tsb0//home/karl/node-apps/zoo/thinnect.cmsis-freertos/CMSIS-FreeRTOS/CMSIS/RTOS2/FreeRTOS/Source/cmsis_os2.o
OS_Tick_GetOverflow                               build/tsb0//home/karl/node-apps/zoo/thinnect.cmsis-freertos/CMSIS-FreeRTOS/CMSIS/RTOS2/FreeRTOS/Source/cmsis_os2.o
PCNT0_IRQHandler                                  build/tsb0//home/karl/SimplicityStudio_v5/developer/sdks/gecko_sdk_suite/v3.2/platform/Device/SiliconLabs/EFR32MG12P/Source/GCC/startup_efr32mg12p.o
PCNT1_IRQHandler                                  build/tsb0//home/karl/SimplicityStudio_v5/developer/sdks/gecko_sdk_suite/v3.2/platform/Device/SiliconLabs/EFR32MG12P/Source/GCC/startup_efr32mg12p.o
PCNT2_IRQHandler                                  build/tsb0//home/karl/SimplicityStudio_v5/developer/sdks/gecko_sdk_suite/v3.2/platform/Device/SiliconLabs/EFR32MG12P/Source/GCC/startup_efr32mg12p.o
PLATFORM_ButtonGet                                build/tsb0//home/karl/node-apps/zoo/thinnect.node-platform/silabs/platform_io.o
                                                  build/tsb0/blink_pwm_main.o
PLATFORM_ButtonPinInit                            build/tsb0//home/karl/node-apps/zoo/thinnect.node-platform/silabs/platform_io.o
                                                  build/tsb0/blink_pwm_main.o
PLATFORM_ClearGpioPin                             build/tsb0//home/karl/node-apps/zoo/thinnect.node-platform/silabs/platform_io.o
PLATFORM_GetGpioPin                               build/tsb0//home/karl/node-apps/zoo/thinnect.node-platform/silabs/platform_io.o
PLATFORM_GpioPinInit                              build/tsb0//home/karl/node-apps/zoo/thinnect.node-platform/silabs/platform_io.o
PLATFORM_Init                                     build/tsb0//home/karl/node-apps/zoo/thinnect.dev-platforms/make/boards/../../src/boards/tsb0/platform.o
                                                  build/tsb0/blink_pwm_main.o
PLATFORM_LedsGet                                  build/tsb0//home/karl/node-apps/zoo/thinnect.node-platform/silabs/platform_io.o
PLATFORM_LedsInit                                 build/tsb0//home/karl/node-apps/zoo/thinnect.node-platform/silabs/platform_io.o
                                                  build/tsb0/blink_pwm_main.o
PLATFORM_LedsSet                                  build/tsb0//home/karl/node-apps/zoo/thinnect.node-platform/silabs/platform_io.o
PLATFORM_RadioInit                                build/tsb0//home/karl/node-apps/zoo/thinnect.dev-platforms/make/boards/../../src/boards/tsb0/platform.o
PLATFORM_SetGpioPin                               build/tsb0//home/karl/node-apps/zoo/thinnect.node-platform/silabs/platform_io.o
PLATFORM_ToggleGpioPin                            build/tsb0//home/karl/node-apps/zoo/thinnect.node-platform/silabs/platform_io.o
PROTIMER_IRQHandler                               build/tsb0//home/karl/SimplicityStudio_v5/developer/sdks/gecko_sdk_suite/v3.2/platform/Device/SiliconLabs/EFR32MG12P/Source/GCC/startup_efr32mg12p.o
PendSV_Handler                                    build/tsb0//home/karl/node-apps/zoo/FreeRTOS-Kernel/portable/GCC/ARM_CM4F/port.o
RAC_RSM_IRQHandler                                build/tsb0//home/karl/SimplicityStudio_v5/developer/sdks/gecko_sdk_suite/v3.2/platform/Device/SiliconLabs/EFR32MG12P/Source/GCC/startup_efr32mg12p.o
RAC_SEQ_IRQHandler                                build/tsb0//home/karl/SimplicityStudio_v5/developer/sdks/gecko_sdk_suite/v3.2/platform/Device/SiliconLabs/EFR32MG12P/Source/GCC/startup_efr32mg12p.o
RETARGET_ReadChar                                 build/tsb0//home/karl/SimplicityStudio_v5/developer/sdks/gecko_sdk_suite/v3.2/hardware/kit/common/drivers/retargetserial.o
                                                  build/tsb0//home/karl/SimplicityStudio_v5/developer/sdks/gecko_sdk_suite/v3.2/hardware/kit/common/drivers/retargetio.o
RETARGET_RequireEm1                               build/tsb0//home/karl/SimplicityStudio_v5/developer/sdks/gecko_sdk_suite/v3.2/hardware/kit/common/drivers/retargetserial.o
RETARGET_SerialCrLf                               build/tsb0//home/karl/SimplicityStudio_v5/developer/sdks/gecko_sdk_suite/v3.2/hardware/kit/common/drivers/retargetserial.o
RETARGET_SerialEnableFlowControl                  build/tsb0//home/karl/SimplicityStudio_v5/developer/sdks/gecko_sdk_suite/v3.2/hardware/kit/common/drivers/retargetserial.o
RETARGET_SerialFlush                              build/tsb0//home/karl/SimplicityStudio_v5/developer/sdks/gecko_sdk_suite/v3.2/hardware/kit/common/drivers/retargetserial.o
RETARGET_SerialInit                               build/tsb0//home/karl/SimplicityStudio_v5/developer/sdks/gecko_sdk_suite/v3.2/hardware/kit/common/drivers/retargetserial.o
                                                  build/tsb0/blink_pwm_main.o
RETARGET_WriteChar                                build/tsb0//home/karl/SimplicityStudio_v5/developer/sdks/gecko_sdk_suite/v3.2/hardware/kit/common/drivers/retargetserial.o
                                                  build/tsb0//home/karl/SimplicityStudio_v5/developer/sdks/gecko_sdk_suite/v3.2/hardware/kit/common/drivers/retargetio.o
RFSENSE_IRQHandler                                build/tsb0//home/karl/SimplicityStudio_v5/developer/sdks/gecko_sdk_suite/v3.2/platform/Device/SiliconLabs/EFR32MG12P/Source/GCC/startup_efr32mg12p.o
RMU_ResetCauseClear                               build/tsb0//home/karl/SimplicityStudio_v5/developer/sdks/gecko_sdk_suite/v3.2/platform/emlib/src/em_rmu.o
                                                  build/tsb0//home/karl/node-apps/zoo/thinnect.dev-platforms/make/boards/../../src/boards/tsb0/platform.o
RMU_ResetCauseGet                                 build/tsb0//home/karl/SimplicityStudio_v5/developer/sdks/gecko_sdk_suite/v3.2/platform/emlib/src/em_rmu.o
                                                  build/tsb0//home/karl/node-apps/zoo/thinnect.dev-platforms/make/boards/../../src/boards/tsb0/platform.o
RMU_ResetControl                                  build/tsb0//home/karl/SimplicityStudio_v5/developer/sdks/gecko_sdk_suite/v3.2/platform/emlib/src/em_rmu.o
RTCC_IRQHandler                                   build/tsb0//home/karl/SimplicityStudio_v5/developer/sdks/gecko_sdk_suite/v3.2/platform/Device/SiliconLabs/EFR32MG12P/Source/GCC/startup_efr32mg12p.o
Reset_Handler                                     build/tsb0//home/karl/SimplicityStudio_v5/developer/sdks/gecko_sdk_suite/v3.2/platform/Device/SiliconLabs/EFR32MG12P/Source/GCC/startup_efr32mg12p.o
SMU_IRQHandler                                    build/tsb0//home/karl/SimplicityStudio_v5/developer/sdks/gecko_sdk_suite/v3.2/platform/Device/SiliconLabs/EFR32MG12P/Source/GCC/startup_efr32mg12p.o
SVC_Handler                                       build/tsb0//home/karl/node-apps/zoo/FreeRTOS-Kernel/portable/GCC/ARM_CM4F/port.o
SYNTH_IRQHandler                                  build/tsb0//home/karl/SimplicityStudio_v5/developer/sdks/gecko_sdk_suite/v3.2/platform/Device/SiliconLabs/EFR32MG12P/Source/GCC/startup_efr32mg12p.o
SYSTEM_ChipRevisionGet                            build/tsb0//home/karl/SimplicityStudio_v5/developer/sdks/gecko_sdk_suite/v3.2/platform/emlib/src/em_system.o
SYSTEM_GetCalibrationValue                        build/tsb0//home/karl/SimplicityStudio_v5/developer/sdks/gecko_sdk_suite/v3.2/platform/emlib/src/em_system.o
SYSTEM_GetSecurityCapability                      build/tsb0//home/karl/SimplicityStudio_v5/developer/sdks/gecko_sdk_suite/v3.2/platform/emlib/src/em_system.o
SysTick_Handler                                   build/tsb0//home/karl/node-apps/zoo/thinnect.cmsis-freertos/CMSIS-FreeRTOS/CMSIS/RTOS2/FreeRTOS/Source/cmsis_os2.o
SystemCoreClock                                   build/tsb0//home/karl/SimplicityStudio_v5/developer/sdks/gecko_sdk_suite/v3.2/platform/Device/SiliconLabs/EFR32MG12P/Source/system_efr32mg12p.o
                                                  build/tsb0//home/karl/node-apps/zoo/thinnect.cmsis-freertos/CMSIS-FreeRTOS/CMSIS/RTOS2/FreeRTOS/Source/cmsis_os2.o
                                                  build/tsb0//home/karl/node-apps/zoo/FreeRTOS-Kernel/portable/GCC/ARM_CM4F/port.o
SystemCoreClockGet                                build/tsb0//home/karl/SimplicityStudio_v5/developer/sdks/gecko_sdk_suite/v3.2/platform/Device/SiliconLabs/EFR32MG12P/Source/system_efr32mg12p.o
                                                  build/tsb0//home/karl/node-apps/zoo/thinnect.dev-platforms/make/boards/../../src/boards/tsb0/platform.o
                                                  build/tsb0//home/karl/SimplicityStudio_v5/developer/sdks/gecko_sdk_suite/v3.2/platform/emlib/src/em_cmu.o
                                                  build/tsb0//home/karl/SimplicityStudio_v5/developer/sdks/gecko_sdk_suite/v3.2/platform/emlib/src/em_emu.o
SystemHFClockGet                                  build/tsb0//home/karl/SimplicityStudio_v5/developer/sdks/gecko_sdk_suite/v3.2/platform/Device/SiliconLabs/EFR32MG12P/Source/system_efr32mg12p.o
                                                  build/tsb0//home/karl/SimplicityStudio_v5/developer/sdks/gecko_sdk_suite/v3.2/platform/emlib/src/em_cmu.o
                                                  build/tsb0//home/karl/SimplicityStudio_v5/developer/sdks/gecko_sdk_suite/v3.2/platform/emlib/src/em_emu.o
SystemHFXOClockGet                                build/tsb0//home/karl/SimplicityStudio_v5/developer/sdks/gecko_sdk_suite/v3.2/platform/Device/SiliconLabs/EFR32MG12P/Source/system_efr32mg12p.o
                                                  build/tsb0//home/karl/SimplicityStudio_v5/developer/sdks/gecko_sdk_suite/v3.2/platform/emlib/src/em_cmu.o
SystemHFXOClockSet                                build/tsb0//home/karl/SimplicityStudio_v5/developer/sdks/gecko_sdk_suite/v3.2/platform/Device/SiliconLabs/EFR32MG12P/Source/system_efr32mg12p.o
SystemHfrcoFreq                                   build/tsb0//home/karl/SimplicityStudio_v5/developer/sdks/gecko_sdk_suite/v3.2/platform/Device/SiliconLabs/EFR32MG12P/Source/system_efr32mg12p.o
                                                  build/tsb0//home/karl/SimplicityStudio_v5/developer/sdks/gecko_sdk_suite/v3.2/platform/emlib/src/em_cmu.o
                                                  build/tsb0//home/karl/SimplicityStudio_v5/developer/sdks/gecko_sdk_suite/v3.2/platform/emlib/src/em_emu.o
SystemInit                                        build/tsb0//home/karl/SimplicityStudio_v5/developer/sdks/gecko_sdk_suite/v3.2/platform/Device/SiliconLabs/EFR32MG12P/Source/system_efr32mg12p.o
                                                  build/tsb0//home/karl/SimplicityStudio_v5/developer/sdks/gecko_sdk_suite/v3.2/platform/Device/SiliconLabs/EFR32MG12P/Source/GCC/startup_efr32mg12p.o
SystemLFRCOClockGet                               build/tsb0//home/karl/SimplicityStudio_v5/developer/sdks/gecko_sdk_suite/v3.2/platform/Device/SiliconLabs/EFR32MG12P/Source/system_efr32mg12p.o
                                                  build/tsb0//home/karl/SimplicityStudio_v5/developer/sdks/gecko_sdk_suite/v3.2/platform/emlib/src/em_cmu.o
SystemLFXOClockGet                                build/tsb0//home/karl/SimplicityStudio_v5/developer/sdks/gecko_sdk_suite/v3.2/platform/Device/SiliconLabs/EFR32MG12P/Source/system_efr32mg12p.o
                                                  build/tsb0//home/karl/SimplicityStudio_v5/developer/sdks/gecko_sdk_suite/v3.2/platform/emlib/src/em_cmu.o
SystemLFXOClockSet                                build/tsb0//home/karl/SimplicityStudio_v5/developer/sdks/gecko_sdk_suite/v3.2/platform/Device/SiliconLabs/EFR32MG12P/Source/system_efr32mg12p.o
SystemMaxCoreClockGet                             build/tsb0//home/karl/SimplicityStudio_v5/developer/sdks/gecko_sdk_suite/v3.2/platform/Device/SiliconLabs/EFR32MG12P/Source/system_efr32mg12p.o
                                                  build/tsb0//home/karl/SimplicityStudio_v5/developer/sdks/gecko_sdk_suite/v3.2/platform/emlib/src/em_cmu.o
SystemULFRCOClockGet                              build/tsb0//home/karl/SimplicityStudio_v5/developer/sdks/gecko_sdk_suite/v3.2/platform/Device/SiliconLabs/EFR32MG12P/Source/system_efr32mg12p.o
                                                  build/tsb0//home/karl/SimplicityStudio_v5/developer/sdks/gecko_sdk_suite/v3.2/platform/emlib/src/em_cmu.o
TIMER0_IRQHandler                                 build/tsb0//home/karl/SimplicityStudio_v5/developer/sdks/gecko_sdk_suite/v3.2/platform/Device/SiliconLabs/EFR32MG12P/Source/GCC/startup_efr32mg12p.o
TIMER1_IRQHandler                                 build/tsb0//home/karl/SimplicityStudio_v5/developer/sdks/gecko_sdk_suite/v3.2/platform/Device/SiliconLabs/EFR32MG12P/Source/GCC/startup_efr32mg12p.o
TIMER_Init                                        build/tsb0//home/karl/SimplicityStudio_v5/developer/sdks/gecko_sdk_suite/v3.2/platform/emlib/src/em_timer.o
                                                  build/tsb0/timer_handler.o
TIMER_InitCC                                      build/tsb0//home/karl/SimplicityStudio_v5/developer/sdks/gecko_sdk_suite/v3.2/platform/emlib/src/em_timer.o
                                                  build/tsb0/timer_handler.o
TIMER_InitDTI                                     build/tsb0//home/karl/SimplicityStudio_v5/developer/sdks/gecko_sdk_suite/v3.2/platform/emlib/src/em_timer.o
TIMER_Reset                                       build/tsb0//home/karl/SimplicityStudio_v5/developer/sdks/gecko_sdk_suite/v3.2/platform/emlib/src/em_timer.o
TRNG0_IRQHandler                                  build/tsb0//home/karl/SimplicityStudio_v5/developer/sdks/gecko_sdk_suite/v3.2/platform/Device/SiliconLabs/EFR32MG12P/Source/GCC/startup_efr32mg12p.o
USART0_RX_IRQHandler                              build/tsb0//home/karl/SimplicityStudio_v5/developer/sdks/gecko_sdk_suite/v3.2/hardware/kit/common/drivers/retargetserial.o
USART0_TX_IRQHandler                              build/tsb0//home/karl/SimplicityStudio_v5/developer/sdks/gecko_sdk_suite/v3.2/platform/Device/SiliconLabs/EFR32MG12P/Source/GCC/startup_efr32mg12p.o
USART1_RX_IRQHandler                              build/tsb0//home/karl/SimplicityStudio_v5/developer/sdks/gecko_sdk_suite/v3.2/platform/Device/SiliconLabs/EFR32MG12P/Source/GCC/startup_efr32mg12p.o
USART1_TX_IRQHandler                              build/tsb0//home/karl/SimplicityStudio_v5/developer/sdks/gecko_sdk_suite/v3.2/platform/Device/SiliconLabs/EFR32MG12P/Source/GCC/startup_efr32mg12p.o
USART2_RX_IRQHandler                              build/tsb0//home/karl/SimplicityStudio_v5/developer/sdks/gecko_sdk_suite/v3.2/platform/Device/SiliconLabs/EFR32MG12P/Source/GCC/startup_efr32mg12p.o
USART2_TX_IRQHandler                              build/tsb0//home/karl/SimplicityStudio_v5/developer/sdks/gecko_sdk_suite/v3.2/platform/Device/SiliconLabs/EFR32MG12P/Source/GCC/startup_efr32mg12p.o
USART3_RX_IRQHandler                              build/tsb0//home/karl/SimplicityStudio_v5/developer/sdks/gecko_sdk_suite/v3.2/platform/Device/SiliconLabs/EFR32MG12P/Source/GCC/startup_efr32mg12p.o
USART3_TX_IRQHandler                              build/tsb0//home/karl/SimplicityStudio_v5/developer/sdks/gecko_sdk_suite/v3.2/platform/Device/SiliconLabs/EFR32MG12P/Source/GCC/startup_efr32mg12p.o
USART_BaudrateAsyncSet                            build/tsb0//home/karl/SimplicityStudio_v5/developer/sdks/gecko_sdk_suite/v3.2/platform/emlib/src/em_usart.o
USART_BaudrateCalc                                build/tsb0//home/karl/SimplicityStudio_v5/developer/sdks/gecko_sdk_suite/v3.2/platform/emlib/src/em_usart.o
USART_BaudrateGet                                 build/tsb0//home/karl/SimplicityStudio_v5/developer/sdks/gecko_sdk_suite/v3.2/platform/emlib/src/em_usart.o
USART_BaudrateSyncSet                             build/tsb0//home/karl/SimplicityStudio_v5/developer/sdks/gecko_sdk_suite/v3.2/platform/emlib/src/em_usart.o
USART_Enable                                      build/tsb0//home/karl/SimplicityStudio_v5/developer/sdks/gecko_sdk_suite/v3.2/platform/emlib/src/em_usart.o
                                                  build/tsb0//home/karl/SimplicityStudio_v5/developer/sdks/gecko_sdk_suite/v3.2/hardware/kit/common/drivers/retargetserial.o
USART_InitAsync                                   build/tsb0//home/karl/SimplicityStudio_v5/developer/sdks/gecko_sdk_suite/v3.2/platform/emlib/src/em_usart.o
                                                  build/tsb0//home/karl/SimplicityStudio_v5/developer/sdks/gecko_sdk_suite/v3.2/hardware/kit/common/drivers/retargetserial.o
USART_InitI2s                                     build/tsb0//home/karl/SimplicityStudio_v5/developer/sdks/gecko_sdk_suite/v3.2/platform/emlib/src/em_usart.o
USART_InitPrsTrigger                              build/tsb0//home/karl/SimplicityStudio_v5/developer/sdks/gecko_sdk_suite/v3.2/platform/emlib/src/em_usart.o
USART_InitSync                                    build/tsb0//home/karl/SimplicityStudio_v5/developer/sdks/gecko_sdk_suite/v3.2/platform/emlib/src/em_usart.o
USART_Reset                                       build/tsb0//home/karl/SimplicityStudio_v5/developer/sdks/gecko_sdk_suite/v3.2/platform/emlib/src/em_usart.o
USART_Rx                                          build/tsb0//home/karl/SimplicityStudio_v5/developer/sdks/gecko_sdk_suite/v3.2/platform/emlib/src/em_usart.o
                                                  build/tsb0//home/karl/SimplicityStudio_v5/developer/sdks/gecko_sdk_suite/v3.2/hardware/kit/common/drivers/retargetserial.o
USART_RxDouble                                    build/tsb0//home/karl/SimplicityStudio_v5/developer/sdks/gecko_sdk_suite/v3.2/platform/emlib/src/em_usart.o
USART_RxDoubleExt                                 build/tsb0//home/karl/SimplicityStudio_v5/developer/sdks/gecko_sdk_suite/v3.2/platform/emlib/src/em_usart.o
USART_RxExt                                       build/tsb0//home/karl/SimplicityStudio_v5/developer/sdks/gecko_sdk_suite/v3.2/platform/emlib/src/em_usart.o
USART_SpiTransfer                                 build/tsb0//home/karl/SimplicityStudio_v5/developer/sdks/gecko_sdk_suite/v3.2/platform/emlib/src/em_usart.o
USART_Tx                                          build/tsb0//home/karl/SimplicityStudio_v5/developer/sdks/gecko_sdk_suite/v3.2/platform/emlib/src/em_usart.o
                                                  build/tsb0//home/karl/SimplicityStudio_v5/developer/sdks/gecko_sdk_suite/v3.2/hardware/kit/common/drivers/retargetserial.o
USART_TxDouble                                    build/tsb0//home/karl/SimplicityStudio_v5/developer/sdks/gecko_sdk_suite/v3.2/platform/emlib/src/em_usart.o
USART_TxDoubleExt                                 build/tsb0//home/karl/SimplicityStudio_v5/developer/sdks/gecko_sdk_suite/v3.2/platform/emlib/src/em_usart.o
USART_TxExt                                       build/tsb0//home/karl/SimplicityStudio_v5/developer/sdks/gecko_sdk_suite/v3.2/platform/emlib/src/em_usart.o
USARTn_InitIrDA                                   build/tsb0//home/karl/SimplicityStudio_v5/developer/sdks/gecko_sdk_suite/v3.2/platform/emlib/src/em_usart.o
UsageFault_Handler                                build/tsb0//home/karl/SimplicityStudio_v5/developer/sdks/gecko_sdk_suite/v3.2/platform/Device/SiliconLabs/EFR32MG12P/Source/GCC/startup_efr32mg12p.o
VDAC0_IRQHandler                                  build/tsb0//home/karl/SimplicityStudio_v5/developer/sdks/gecko_sdk_suite/v3.2/platform/Device/SiliconLabs/EFR32MG12P/Source/GCC/startup_efr32mg12p.o
WDOG0_IRQHandler                                  build/tsb0//home/karl/SimplicityStudio_v5/developer/sdks/gecko_sdk_suite/v3.2/platform/Device/SiliconLabs/EFR32MG12P/Source/GCC/startup_efr32mg12p.o
WDOG1_IRQHandler                                  build/tsb0//home/karl/SimplicityStudio_v5/developer/sdks/gecko_sdk_suite/v3.2/platform/Device/SiliconLabs/EFR32MG12P/Source/GCC/startup_efr32mg12p.o
WTIMER0_IRQHandler                                build/tsb0//home/karl/SimplicityStudio_v5/developer/sdks/gecko_sdk_suite/v3.2/platform/Device/SiliconLabs/EFR32MG12P/Source/GCC/startup_efr32mg12p.o
WTIMER1_IRQHandler                                build/tsb0//home/karl/SimplicityStudio_v5/developer/sdks/gecko_sdk_suite/v3.2/platform/Device/SiliconLabs/EFR32MG12P/Source/GCC/startup_efr32mg12p.o
_Balloc                                           /usr/lib/gcc/arm-none-eabi/9.2.1/../../../arm-none-eabi/lib/thumb/v7e-m+fp/softfp/libg.a(lib_a-mprec.o)
                                                  /usr/lib/gcc/arm-none-eabi/9.2.1/../../../arm-none-eabi/lib/thumb/v7e-m+fp/softfp/libg.a(lib_a-dtoa.o)
_Bfree                                            /usr/lib/gcc/arm-none-eabi/9.2.1/../../../arm-none-eabi/lib/thumb/v7e-m+fp/softfp/libg.a(lib_a-mprec.o)
                                                  /usr/lib/gcc/arm-none-eabi/9.2.1/../../../arm-none-eabi/lib/thumb/v7e-m+fp/softfp/libg.a(lib_a-dtoa.o)
_PathLocale                                       /usr/lib/gcc/arm-none-eabi/9.2.1/../../../arm-none-eabi/lib/thumb/v7e-m+fp/softfp/libg.a(lib_a-locale.o)
__StackTop                                        build/tsb0//home/karl/SimplicityStudio_v5/developer/sdks/gecko_sdk_suite/v3.2/platform/Device/SiliconLabs/EFR32MG12P/Source/GCC/startup_efr32mg12p.o
__Vectors                                         build/tsb0//home/karl/SimplicityStudio_v5/developer/sdks/gecko_sdk_suite/v3.2/platform/Device/SiliconLabs/EFR32MG12P/Source/GCC/startup_efr32mg12p.o
                                                  build/tsb0//home/karl/SimplicityStudio_v5/developer/sdks/gecko_sdk_suite/v3.2/platform/Device/SiliconLabs/EFR32MG12P/Source/system_efr32mg12p.o
__adddf3                                          /usr/lib/gcc/arm-none-eabi/9.2.1/thumb/v7e-m+fp/softfp/libgcc.a(_arm_addsubdf3.o)
__aeabi_cdcmpeq                                   /usr/lib/gcc/arm-none-eabi/9.2.1/thumb/v7e-m+fp/softfp/libgcc.a(_arm_cmpdf2.o)
__aeabi_cdcmple                                   /usr/lib/gcc/arm-none-eabi/9.2.1/thumb/v7e-m+fp/softfp/libgcc.a(_arm_cmpdf2.o)
__aeabi_cdrcmple                                  /usr/lib/gcc/arm-none-eabi/9.2.1/thumb/v7e-m+fp/softfp/libgcc.a(_arm_cmpdf2.o)
__aeabi_d2iz                                      /usr/lib/gcc/arm-none-eabi/9.2.1/thumb/v7e-m+fp/softfp/libgcc.a(_arm_fixdfsi.o)
                                                  /usr/lib/gcc/arm-none-eabi/9.2.1/../../../arm-none-eabi/lib/thumb/v7e-m+fp/softfp/libg.a(lib_a-dtoa.o)
__aeabi_dadd                                      /usr/lib/gcc/arm-none-eabi/9.2.1/thumb/v7e-m+fp/softfp/libgcc.a(_arm_addsubdf3.o)
                                                  /usr/lib/gcc/arm-none-eabi/9.2.1/../../../arm-none-eabi/lib/thumb/v7e-m+fp/softfp/libg.a(lib_a-dtoa.o)
__aeabi_dcmpeq                                    /usr/lib/gcc/arm-none-eabi/9.2.1/thumb/v7e-m+fp/softfp/libgcc.a(_arm_cmpdf2.o)
                                                  /usr/lib/gcc/arm-none-eabi/9.2.1/../../../arm-none-eabi/lib/thumb/v7e-m+fp/softfp/libg.a(lib_a-dtoa.o)
                                                  /usr/lib/gcc/arm-none-eabi/9.2.1/../../../arm-none-eabi/lib/thumb/v7e-m+fp/softfp/libg.a(lib_a-svfprintf.o)
__aeabi_dcmpge                                    /usr/lib/gcc/arm-none-eabi/9.2.1/thumb/v7e-m+fp/softfp/libgcc.a(_arm_cmpdf2.o)
                                                  /usr/lib/gcc/arm-none-eabi/9.2.1/../../../arm-none-eabi/lib/thumb/v7e-m+fp/softfp/libg.a(lib_a-dtoa.o)
__aeabi_dcmpgt                                    /usr/lib/gcc/arm-none-eabi/9.2.1/thumb/v7e-m+fp/softfp/libgcc.a(_arm_cmpdf2.o)
                                                  /usr/lib/gcc/arm-none-eabi/9.2.1/../../../arm-none-eabi/lib/thumb/v7e-m+fp/softfp/libg.a(lib_a-dtoa.o)
__aeabi_dcmple                                    /usr/lib/gcc/arm-none-eabi/9.2.1/thumb/v7e-m+fp/softfp/libgcc.a(_arm_cmpdf2.o)
                                                  /usr/lib/gcc/arm-none-eabi/9.2.1/../../../arm-none-eabi/lib/thumb/v7e-m+fp/softfp/libg.a(lib_a-svfprintf.o)
__aeabi_dcmplt                                    /usr/lib/gcc/arm-none-eabi/9.2.1/thumb/v7e-m+fp/softfp/libgcc.a(_arm_cmpdf2.o)
                                                  /usr/lib/gcc/arm-none-eabi/9.2.1/../../../arm-none-eabi/lib/thumb/v7e-m+fp/softfp/libg.a(lib_a-dtoa.o)
                                                  /usr/lib/gcc/arm-none-eabi/9.2.1/../../../arm-none-eabi/lib/thumb/v7e-m+fp/softfp/libg.a(lib_a-svfprintf.o)
__aeabi_dcmpun                                    /usr/lib/gcc/arm-none-eabi/9.2.1/thumb/v7e-m+fp/softfp/libgcc.a(_arm_unorddf2.o)
                                                  /usr/lib/gcc/arm-none-eabi/9.2.1/../../../arm-none-eabi/lib/thumb/v7e-m+fp/softfp/libg.a(lib_a-svfprintf.o)
__aeabi_ddiv                                      /usr/lib/gcc/arm-none-eabi/9.2.1/thumb/v7e-m+fp/softfp/libgcc.a(_arm_muldivdf3.o)
                                                  /usr/lib/gcc/arm-none-eabi/9.2.1/../../../arm-none-eabi/lib/thumb/v7e-m+fp/softfp/libg.a(lib_a-mprec.o)
                                                  /usr/lib/gcc/arm-none-eabi/9.2.1/../../../arm-none-eabi/lib/thumb/v7e-m+fp/softfp/libg.a(lib_a-dtoa.o)
__aeabi_dmul                                      /usr/lib/gcc/arm-none-eabi/9.2.1/thumb/v7e-m+fp/softfp/libgcc.a(_arm_muldivdf3.o)
                                                  /usr/lib/gcc/arm-none-eabi/9.2.1/thumb/v7e-m+fp/softfp/libgcc.a(_arm_muldf3.o)
                                                  /usr/lib/gcc/arm-none-eabi/9.2.1/../../../arm-none-eabi/lib/thumb/v7e-m+fp/softfp/libg.a(lib_a-mprec.o)
                                                  /usr/lib/gcc/arm-none-eabi/9.2.1/../../../arm-none-eabi/lib/thumb/v7e-m+fp/softfp/libg.a(lib_a-dtoa.o)
__aeabi_drsub                                     /usr/lib/gcc/arm-none-eabi/9.2.1/thumb/v7e-m+fp/softfp/libgcc.a(_arm_addsubdf3.o)
__aeabi_dsub                                      /usr/lib/gcc/arm-none-eabi/9.2.1/thumb/v7e-m+fp/softfp/libgcc.a(_arm_addsubdf3.o)
                                                  /usr/lib/gcc/arm-none-eabi/9.2.1/../../../arm-none-eabi/lib/thumb/v7e-m+fp/softfp/libg.a(lib_a-dtoa.o)
__aeabi_f2d                                       /usr/lib/gcc/arm-none-eabi/9.2.1/thumb/v7e-m+fp/softfp/libgcc.a(_arm_addsubdf3.o)
__aeabi_i2d                                       /usr/lib/gcc/arm-none-eabi/9.2.1/thumb/v7e-m+fp/softfp/libgcc.a(_arm_addsubdf3.o)
                                                  /usr/lib/gcc/arm-none-eabi/9.2.1/../../../arm-none-eabi/lib/thumb/v7e-m+fp/softfp/libg.a(lib_a-dtoa.o)
__aeabi_idiv0                                     /usr/lib/gcc/arm-none-eabi/9.2.1/thumb/v7e-m+fp/softfp/libgcc.a(_dvmd_tls.o)
__aeabi_l2d                                       /usr/lib/gcc/arm-none-eabi/9.2.1/thumb/v7e-m+fp/softfp/libgcc.a(_arm_addsubdf3.o)
__aeabi_ldiv0                                     /usr/lib/gcc/arm-none-eabi/9.2.1/thumb/v7e-m+fp/softfp/libgcc.a(_dvmd_tls.o)
                                                  /usr/lib/gcc/arm-none-eabi/9.2.1/thumb/v7e-m+fp/softfp/libgcc.a(_aeabi_uldivmod.o)
__aeabi_ui2d                                      /usr/lib/gcc/arm-none-eabi/9.2.1/thumb/v7e-m+fp/softfp/libgcc.a(_arm_addsubdf3.o)
                                                  /usr/lib/gcc/arm-none-eabi/9.2.1/../../../arm-none-eabi/lib/thumb/v7e-m+fp/softfp/libg.a(lib_a-dtoa.o)
__aeabi_ul2d                                      /usr/lib/gcc/arm-none-eabi/9.2.1/thumb/v7e-m+fp/softfp/libgcc.a(_arm_addsubdf3.o)
__aeabi_uldivmod                                  /usr/lib/gcc/arm-none-eabi/9.2.1/thumb/v7e-m+fp/softfp/libgcc.a(_aeabi_uldivmod.o)
                                                  /usr/lib/gcc/arm-none-eabi/9.2.1/../../../arm-none-eabi/lib/thumb/v7e-m+fp/softfp/libg.a(lib_a-vfiprintf.o)
                                                  /usr/lib/gcc/arm-none-eabi/9.2.1/../../../arm-none-eabi/lib/thumb/v7e-m+fp/softfp/libg.a(lib_a-svfiprintf.o)
                                                  /usr/lib/gcc/arm-none-eabi/9.2.1/../../../arm-none-eabi/lib/thumb/v7e-m+fp/softfp/libg.a(lib_a-svfprintf.o)
                                                  build/tsb0//home/karl/SimplicityStudio_v5/developer/sdks/gecko_sdk_suite/v3.2/platform/emlib/src/em_usart.o
__any_on                                          /usr/lib/gcc/arm-none-eabi/9.2.1/../../../arm-none-eabi/lib/thumb/v7e-m+fp/softfp/libg.a(lib_a-mprec.o)
__ascii_mbtowc                                    /usr/lib/gcc/arm-none-eabi/9.2.1/../../../arm-none-eabi/lib/thumb/v7e-m+fp/softfp/libg.a(lib_a-mbtowc_r.o)
                                                  /usr/lib/gcc/arm-none-eabi/9.2.1/../../../arm-none-eabi/lib/thumb/v7e-m+fp/softfp/libg.a(lib_a-locale.o)
__ascii_wctomb                                    /usr/lib/gcc/arm-none-eabi/9.2.1/../../../arm-none-eabi/lib/thumb/v7e-m+fp/softfp/libg.a(lib_a-wctomb_r.o)
                                                  /usr/lib/gcc/arm-none-eabi/9.2.1/../../../arm-none-eabi/lib/thumb/v7e-m+fp/softfp/libg.a(lib_a-locale.o)
__assert                                          /usr/lib/gcc/arm-none-eabi/9.2.1/../../../arm-none-eabi/lib/thumb/v7e-m+fp/softfp/libg.a(lib_a-assert.o)
__assert_func                                     /usr/lib/gcc/arm-none-eabi/9.2.1/../../../arm-none-eabi/lib/thumb/v7e-m+fp/softfp/libg.a(lib_a-assert.o)
                                                  /usr/lib/gcc/arm-none-eabi/9.2.1/../../../arm-none-eabi/lib/thumb/v7e-m+fp/softfp/libg.a(lib_a-mprec.o)
                                                  /usr/lib/gcc/arm-none-eabi/9.2.1/../../../arm-none-eabi/lib/thumb/v7e-m+fp/softfp/libg.a(lib_a-dtoa.o)
__b2d                                             /usr/lib/gcc/arm-none-eabi/9.2.1/../../../arm-none-eabi/lib/thumb/v7e-m+fp/softfp/libg.a(lib_a-mprec.o)
__bss_end__                                       build/tsb0//home/karl/SimplicityStudio_v5/developer/sdks/gecko_sdk_suite/v3.2/platform/Device/SiliconLabs/EFR32MG12P/Source/GCC/startup_efr32mg12p.o
__bss_start__                                     build/tsb0//home/karl/SimplicityStudio_v5/developer/sdks/gecko_sdk_suite/v3.2/platform/Device/SiliconLabs/EFR32MG12P/Source/GCC/startup_efr32mg12p.o
__cmpdf2                                          /usr/lib/gcc/arm-none-eabi/9.2.1/thumb/v7e-m+fp/softfp/libgcc.a(_arm_cmpdf2.o)
__copybits                                        /usr/lib/gcc/arm-none-eabi/9.2.1/../../../arm-none-eabi/lib/thumb/v7e-m+fp/softfp/libg.a(lib_a-mprec.o)
__d2b                                             /usr/lib/gcc/arm-none-eabi/9.2.1/../../../arm-none-eabi/lib/thumb/v7e-m+fp/softfp/libg.a(lib_a-mprec.o)
                                                  /usr/lib/gcc/arm-none-eabi/9.2.1/../../../arm-none-eabi/lib/thumb/v7e-m+fp/softfp/libg.a(lib_a-dtoa.o)
__data_end__                                      build/tsb0//home/karl/SimplicityStudio_v5/developer/sdks/gecko_sdk_suite/v3.2/platform/Device/SiliconLabs/EFR32MG12P/Source/GCC/startup_efr32mg12p.o
__data_start__                                    build/tsb0//home/karl/SimplicityStudio_v5/developer/sdks/gecko_sdk_suite/v3.2/platform/Device/SiliconLabs/EFR32MG12P/Source/GCC/startup_efr32mg12p.o
__divdf3                                          /usr/lib/gcc/arm-none-eabi/9.2.1/thumb/v7e-m+fp/softfp/libgcc.a(_arm_muldivdf3.o)
__eqdf2                                           /usr/lib/gcc/arm-none-eabi/9.2.1/thumb/v7e-m+fp/softfp/libgcc.a(_arm_cmpdf2.o)
__etext                                           build/tsb0//home/karl/SimplicityStudio_v5/developer/sdks/gecko_sdk_suite/v3.2/platform/Device/SiliconLabs/EFR32MG12P/Source/GCC/startup_efr32mg12p.o
__extendsfdf2                                     /usr/lib/gcc/arm-none-eabi/9.2.1/thumb/v7e-m+fp/softfp/libgcc.a(_arm_addsubdf3.o)
__fixdfsi                                         /usr/lib/gcc/arm-none-eabi/9.2.1/thumb/v7e-m+fp/softfp/libgcc.a(_arm_fixdfsi.o)
__floatdidf                                       /usr/lib/gcc/arm-none-eabi/9.2.1/thumb/v7e-m+fp/softfp/libgcc.a(_arm_addsubdf3.o)
__floatsidf                                       /usr/lib/gcc/arm-none-eabi/9.2.1/thumb/v7e-m+fp/softfp/libgcc.a(_arm_addsubdf3.o)
__floatundidf                                     /usr/lib/gcc/arm-none-eabi/9.2.1/thumb/v7e-m+fp/softfp/libgcc.a(_arm_addsubdf3.o)
__floatunsidf                                     /usr/lib/gcc/arm-none-eabi/9.2.1/thumb/v7e-m+fp/softfp/libgcc.a(_arm_addsubdf3.o)
__fp_lock_all                                     /usr/lib/gcc/arm-none-eabi/9.2.1/../../../arm-none-eabi/lib/thumb/v7e-m+fp/softfp/libg.a(lib_a-findfp.o)
__fp_unlock_all                                   /usr/lib/gcc/arm-none-eabi/9.2.1/../../../arm-none-eabi/lib/thumb/v7e-m+fp/softfp/libg.a(lib_a-findfp.o)
__fputwc                                          /usr/lib/gcc/arm-none-eabi/9.2.1/../../../arm-none-eabi/lib/thumb/v7e-m+fp/softfp/libg.a(lib_a-fputwc.o)
__gedf2                                           /usr/lib/gcc/arm-none-eabi/9.2.1/thumb/v7e-m+fp/softfp/libgcc.a(_arm_cmpdf2.o)
__global_locale                                   /usr/lib/gcc/arm-none-eabi/9.2.1/../../../arm-none-eabi/lib/thumb/v7e-m+fp/softfp/libg.a(lib_a-locale.o)
                                                  /usr/lib/gcc/arm-none-eabi/9.2.1/../../../arm-none-eabi/lib/thumb/v7e-m+fp/softfp/libg.a(lib_a-wcrtomb.o)
                                                  /usr/lib/gcc/arm-none-eabi/9.2.1/../../../arm-none-eabi/lib/thumb/v7e-m+fp/softfp/libg.a(lib_a-wctomb_r.o)
                                                  /usr/lib/gcc/arm-none-eabi/9.2.1/../../../arm-none-eabi/lib/thumb/v7e-m+fp/softfp/libg.a(lib_a-mbtowc_r.o)
                                                  /usr/lib/gcc/arm-none-eabi/9.2.1/../../../arm-none-eabi/lib/thumb/v7e-m+fp/softfp/libg.a(lib_a-localeconv.o)
__gtdf2                                           /usr/lib/gcc/arm-none-eabi/9.2.1/thumb/v7e-m+fp/softfp/libgcc.a(_arm_cmpdf2.o)
__hi0bits                                         /usr/lib/gcc/arm-none-eabi/9.2.1/../../../arm-none-eabi/lib/thumb/v7e-m+fp/softfp/libg.a(lib_a-mprec.o)
                                                  /usr/lib/gcc/arm-none-eabi/9.2.1/../../../arm-none-eabi/lib/thumb/v7e-m+fp/softfp/libg.a(lib_a-dtoa.o)
__i2b                                             /usr/lib/gcc/arm-none-eabi/9.2.1/../../../arm-none-eabi/lib/thumb/v7e-m+fp/softfp/libg.a(lib_a-mprec.o)
                                                  /usr/lib/gcc/arm-none-eabi/9.2.1/../../../arm-none-eabi/lib/thumb/v7e-m+fp/softfp/libg.a(lib_a-dtoa.o)
__ledf2                                           /usr/lib/gcc/arm-none-eabi/9.2.1/thumb/v7e-m+fp/softfp/libgcc.a(_arm_cmpdf2.o)
__lo0bits                                         /usr/lib/gcc/arm-none-eabi/9.2.1/../../../arm-none-eabi/lib/thumb/v7e-m+fp/softfp/libg.a(lib_a-mprec.o)
__locale_mb_cur_max                               /usr/lib/gcc/arm-none-eabi/9.2.1/../../../arm-none-eabi/lib/thumb/v7e-m+fp/softfp/libg.a(lib_a-locale.o)
                                                  /usr/lib/gcc/arm-none-eabi/9.2.1/../../../arm-none-eabi/lib/thumb/v7e-m+fp/softfp/libg.a(lib_a-fputwc.o)
__localeconv_l                                    /usr/lib/gcc/arm-none-eabi/9.2.1/../../../arm-none-eabi/lib/thumb/v7e-m+fp/softfp/libg.a(lib_a-localeconv.o)
__logger                                          build/tsb0//home/karl/node-apps/zoo/thinnect.lll/logging/loggers_ext.o
                                                  build/tsb0/blink_pwm_main.o
__loggerb                                         build/tsb0//home/karl/node-apps/zoo/thinnect.lll/logging/loggers_ext.o
__lshift                                          /usr/lib/gcc/arm-none-eabi/9.2.1/../../../arm-none-eabi/lib/thumb/v7e-m+fp/softfp/libg.a(lib_a-mprec.o)
                                                  /usr/lib/gcc/arm-none-eabi/9.2.1/../../../arm-none-eabi/lib/thumb/v7e-m+fp/softfp/libg.a(lib_a-dtoa.o)
__ltdf2                                           /usr/lib/gcc/arm-none-eabi/9.2.1/thumb/v7e-m+fp/softfp/libgcc.a(_arm_cmpdf2.o)
__malloc_av_                                      /usr/lib/gcc/arm-none-eabi/9.2.1/../../../arm-none-eabi/lib/thumb/v7e-m+fp/softfp/libg.a(lib_a-mallocr.o)
                                                  /usr/lib/gcc/arm-none-eabi/9.2.1/../../../arm-none-eabi/lib/thumb/v7e-m+fp/softfp/libg.a(lib_a-reallocr.o)
                                                  /usr/lib/gcc/arm-none-eabi/9.2.1/../../../arm-none-eabi/lib/thumb/v7e-m+fp/softfp/libg.a(lib_a-freer.o)
__malloc_current_mallinfo                         /usr/lib/gcc/arm-none-eabi/9.2.1/../../../arm-none-eabi/lib/thumb/v7e-m+fp/softfp/libg.a(lib_a-mallocr.o)
                                                  /usr/lib/gcc/arm-none-eabi/9.2.1/../../../arm-none-eabi/lib/thumb/v7e-m+fp/softfp/libg.a(lib_a-freer.o)
__malloc_lock                                     /usr/lib/gcc/arm-none-eabi/9.2.1/../../../arm-none-eabi/lib/thumb/v7e-m+fp/softfp/libg.a(lib_a-mlock.o)
                                                  /usr/lib/gcc/arm-none-eabi/9.2.1/../../../arm-none-eabi/lib/thumb/v7e-m+fp/softfp/libg.a(lib_a-reallocr.o)
                                                  /usr/lib/gcc/arm-none-eabi/9.2.1/../../../arm-none-eabi/lib/thumb/v7e-m+fp/softfp/libg.a(lib_a-mallocr.o)
                                                  /usr/lib/gcc/arm-none-eabi/9.2.1/../../../arm-none-eabi/lib/thumb/v7e-m+fp/softfp/libg.a(lib_a-freer.o)
__malloc_max_sbrked_mem                           /usr/lib/gcc/arm-none-eabi/9.2.1/../../../arm-none-eabi/lib/thumb/v7e-m+fp/softfp/libg.a(lib_a-mallocr.o)
__malloc_max_total_mem                            /usr/lib/gcc/arm-none-eabi/9.2.1/../../../arm-none-eabi/lib/thumb/v7e-m+fp/softfp/libg.a(lib_a-mallocr.o)
__malloc_sbrk_base                                /usr/lib/gcc/arm-none-eabi/9.2.1/../../../arm-none-eabi/lib/thumb/v7e-m+fp/softfp/libg.a(lib_a-mallocr.o)
                                                  /usr/lib/gcc/arm-none-eabi/9.2.1/../../../arm-none-eabi/lib/thumb/v7e-m+fp/softfp/libg.a(lib_a-freer.o)
__malloc_top_pad                                  /usr/lib/gcc/arm-none-eabi/9.2.1/../../../arm-none-eabi/lib/thumb/v7e-m+fp/softfp/libg.a(lib_a-mallocr.o)
                                                  /usr/lib/gcc/arm-none-eabi/9.2.1/../../../arm-none-eabi/lib/thumb/v7e-m+fp/softfp/libg.a(lib_a-freer.o)
__malloc_trim_threshold                           /usr/lib/gcc/arm-none-eabi/9.2.1/../../../arm-none-eabi/lib/thumb/v7e-m+fp/softfp/libg.a(lib_a-mallocr.o)
                                                  /usr/lib/gcc/arm-none-eabi/9.2.1/../../../arm-none-eabi/lib/thumb/v7e-m+fp/softfp/libg.a(lib_a-freer.o)
__malloc_unlock                                   /usr/lib/gcc/arm-none-eabi/9.2.1/../../../arm-none-eabi/lib/thumb/v7e-m+fp/softfp/libg.a(lib_a-mlock.o)
                                                  /usr/lib/gcc/arm-none-eabi/9.2.1/../../../arm-none-eabi/lib/thumb/v7e-m+fp/softfp/libg.a(lib_a-reallocr.o)
                                                  /usr/lib/gcc/arm-none-eabi/9.2.1/../../../arm-none-eabi/lib/thumb/v7e-m+fp/softfp/libg.a(lib_a-mallocr.o)
                                                  /usr/lib/gcc/arm-none-eabi/9.2.1/../../../arm-none-eabi/lib/thumb/v7e-m+fp/softfp/libg.a(lib_a-freer.o)
__mcmp                                            /usr/lib/gcc/arm-none-eabi/9.2.1/../../../arm-none-eabi/lib/thumb/v7e-m+fp/softfp/libg.a(lib_a-mprec.o)
                                                  /usr/lib/gcc/arm-none-eabi/9.2.1/../../../arm-none-eabi/lib/thumb/v7e-m+fp/softfp/libg.a(lib_a-dtoa.o)
__mdiff                                           /usr/lib/gcc/arm-none-eabi/9.2.1/../../../arm-none-eabi/lib/thumb/v7e-m+fp/softfp/libg.a(lib_a-mprec.o)
                                                  /usr/lib/gcc/arm-none-eabi/9.2.1/../../../arm-none-eabi/lib/thumb/v7e-m+fp/softfp/libg.a(lib_a-dtoa.o)
__mprec_bigtens                                   /usr/lib/gcc/arm-none-eabi/9.2.1/../../../arm-none-eabi/lib/thumb/v7e-m+fp/softfp/libg.a(lib_a-mprec.o)
                                                  /usr/lib/gcc/arm-none-eabi/9.2.1/../../../arm-none-eabi/lib/thumb/v7e-m+fp/softfp/libg.a(lib_a-dtoa.o)
__mprec_tens                                      /usr/lib/gcc/arm-none-eabi/9.2.1/../../../arm-none-eabi/lib/thumb/v7e-m+fp/softfp/libg.a(lib_a-mprec.o)
                                                  /usr/lib/gcc/arm-none-eabi/9.2.1/../../../arm-none-eabi/lib/thumb/v7e-m+fp/softfp/libg.a(lib_a-dtoa.o)
__mprec_tinytens                                  /usr/lib/gcc/arm-none-eabi/9.2.1/../../../arm-none-eabi/lib/thumb/v7e-m+fp/softfp/libg.a(lib_a-mprec.o)
__muldf3                                          /usr/lib/gcc/arm-none-eabi/9.2.1/thumb/v7e-m+fp/softfp/libgcc.a(_arm_muldivdf3.o)
                                                  /usr/lib/gcc/arm-none-eabi/9.2.1/thumb/v7e-m+fp/softfp/libgcc.a(_arm_muldf3.o)
__multadd                                         /usr/lib/gcc/arm-none-eabi/9.2.1/../../../arm-none-eabi/lib/thumb/v7e-m+fp/softfp/libg.a(lib_a-mprec.o)
                                                  /usr/lib/gcc/arm-none-eabi/9.2.1/../../../arm-none-eabi/lib/thumb/v7e-m+fp/softfp/libg.a(lib_a-dtoa.o)
__multiply                                        /usr/lib/gcc/arm-none-eabi/9.2.1/../../../arm-none-eabi/lib/thumb/v7e-m+fp/softfp/libg.a(lib_a-mprec.o)
                                                  /usr/lib/gcc/arm-none-eabi/9.2.1/../../../arm-none-eabi/lib/thumb/v7e-m+fp/softfp/libg.a(lib_a-dtoa.o)
__nedf2                                           /usr/lib/gcc/arm-none-eabi/9.2.1/thumb/v7e-m+fp/softfp/libgcc.a(_arm_cmpdf2.o)
__pow5mult                                        /usr/lib/gcc/arm-none-eabi/9.2.1/../../../arm-none-eabi/lib/thumb/v7e-m+fp/softfp/libg.a(lib_a-mprec.o)
                                                  /usr/lib/gcc/arm-none-eabi/9.2.1/../../../arm-none-eabi/lib/thumb/v7e-m+fp/softfp/libg.a(lib_a-dtoa.o)
__ratio                                           /usr/lib/gcc/arm-none-eabi/9.2.1/../../../arm-none-eabi/lib/thumb/v7e-m+fp/softfp/libg.a(lib_a-mprec.o)
__s2b                                             /usr/lib/gcc/arm-none-eabi/9.2.1/../../../arm-none-eabi/lib/thumb/v7e-m+fp/softfp/libg.a(lib_a-mprec.o)
__sclose                                          /usr/lib/gcc/arm-none-eabi/9.2.1/../../../arm-none-eabi/lib/thumb/v7e-m+fp/softfp/libg.a(lib_a-stdio.o)
                                                  /usr/lib/gcc/arm-none-eabi/9.2.1/../../../arm-none-eabi/lib/thumb/v7e-m+fp/softfp/libg.a(lib_a-findfp.o)
__seofread                                        /usr/lib/gcc/arm-none-eabi/9.2.1/../../../arm-none-eabi/lib/thumb/v7e-m+fp/softfp/libg.a(lib_a-stdio.o)
__sflush_r                                        /usr/lib/gcc/arm-none-eabi/9.2.1/../../../arm-none-eabi/lib/thumb/v7e-m+fp/softfp/libg.a(lib_a-fflush.o)
                                                  /usr/lib/gcc/arm-none-eabi/9.2.1/../../../arm-none-eabi/lib/thumb/v7e-m+fp/softfp/libg.a(lib_a-fclose.o)
__sfmoreglue                                      /usr/lib/gcc/arm-none-eabi/9.2.1/../../../arm-none-eabi/lib/thumb/v7e-m+fp/softfp/libg.a(lib_a-findfp.o)
__sfp                                             /usr/lib/gcc/arm-none-eabi/9.2.1/../../../arm-none-eabi/lib/thumb/v7e-m+fp/softfp/libg.a(lib_a-findfp.o)
__sfp_lock_acquire                                /usr/lib/gcc/arm-none-eabi/9.2.1/../../../arm-none-eabi/lib/thumb/v7e-m+fp/softfp/libg.a(lib_a-findfp.o)
                                                  /usr/lib/gcc/arm-none-eabi/9.2.1/../../../arm-none-eabi/lib/thumb/v7e-m+fp/softfp/libg.a(lib_a-fclose.o)
__sfp_lock_release                                /usr/lib/gcc/arm-none-eabi/9.2.1/../../../arm-none-eabi/lib/thumb/v7e-m+fp/softfp/libg.a(lib_a-findfp.o)
                                                  /usr/lib/gcc/arm-none-eabi/9.2.1/../../../arm-none-eabi/lib/thumb/v7e-m+fp/softfp/libg.a(lib_a-fclose.o)
__sfvwrite_r                                      /usr/lib/gcc/arm-none-eabi/9.2.1/../../../arm-none-eabi/lib/thumb/v7e-m+fp/softfp/libg.a(lib_a-fvwrite.o)
                                                  /usr/lib/gcc/arm-none-eabi/9.2.1/../../../arm-none-eabi/lib/thumb/v7e-m+fp/softfp/libg.a(lib_a-vfiprintf.o)
                                                  /usr/lib/gcc/arm-none-eabi/9.2.1/../../../arm-none-eabi/lib/thumb/v7e-m+fp/softfp/libg.a(lib_a-fwrite.o)
__sigtramp                                        /usr/lib/gcc/arm-none-eabi/9.2.1/../../../arm-none-eabi/lib/thumb/v7e-m+fp/softfp/libg.a(lib_a-signal.o)
__sigtramp_r                                      /usr/lib/gcc/arm-none-eabi/9.2.1/../../../arm-none-eabi/lib/thumb/v7e-m+fp/softfp/libg.a(lib_a-signal.o)
__sinit                                           /usr/lib/gcc/arm-none-eabi/9.2.1/../../../arm-none-eabi/lib/thumb/v7e-m+fp/softfp/libg.a(lib_a-findfp.o)
                                                  /usr/lib/gcc/arm-none-eabi/9.2.1/../../../arm-none-eabi/lib/thumb/v7e-m+fp/softfp/libg.a(lib_a-wbuf.o)
                                                  /usr/lib/gcc/arm-none-eabi/9.2.1/../../../arm-none-eabi/lib/thumb/v7e-m+fp/softfp/libg.a(lib_a-fputwc.o)
                                                  /usr/lib/gcc/arm-none-eabi/9.2.1/../../../arm-none-eabi/lib/thumb/v7e-m+fp/softfp/libg.a(lib_a-vfiprintf.o)
                                                  /usr/lib/gcc/arm-none-eabi/9.2.1/../../../arm-none-eabi/lib/thumb/v7e-m+fp/softfp/libg.a(lib_a-wsetup.o)
                                                  /usr/lib/gcc/arm-none-eabi/9.2.1/../../../arm-none-eabi/lib/thumb/v7e-m+fp/softfp/libg.a(lib_a-fclose.o)
                                                  /usr/lib/gcc/arm-none-eabi/9.2.1/../../../arm-none-eabi/lib/thumb/v7e-m+fp/softfp/libg.a(lib_a-setvbuf.o)
                                                  /usr/lib/gcc/arm-none-eabi/9.2.1/../../../arm-none-eabi/lib/thumb/v7e-m+fp/softfp/libg.a(lib_a-fwrite.o)
                                                  /usr/lib/gcc/arm-none-eabi/9.2.1/../../../arm-none-eabi/lib/thumb/v7e-m+fp/softfp/libg.a(lib_a-fflush.o)
__sinit_lock_acquire                              /usr/lib/gcc/arm-none-eabi/9.2.1/../../../arm-none-eabi/lib/thumb/v7e-m+fp/softfp/libg.a(lib_a-findfp.o)
__sinit_lock_release                              /usr/lib/gcc/arm-none-eabi/9.2.1/../../../arm-none-eabi/lib/thumb/v7e-m+fp/softfp/libg.a(lib_a-findfp.o)
__smakebuf_r                                      /usr/lib/gcc/arm-none-eabi/9.2.1/../../../arm-none-eabi/lib/thumb/v7e-m+fp/softfp/libg.a(lib_a-makebuf.o)
                                                  /usr/lib/gcc/arm-none-eabi/9.2.1/../../../arm-none-eabi/lib/thumb/v7e-m+fp/softfp/libg.a(lib_a-wsetup.o)
__sprint_r                                        /usr/lib/gcc/arm-none-eabi/9.2.1/../../../arm-none-eabi/lib/thumb/v7e-m+fp/softfp/libg.a(lib_a-vfiprintf.o)
__sread                                           /usr/lib/gcc/arm-none-eabi/9.2.1/../../../arm-none-eabi/lib/thumb/v7e-m+fp/softfp/libg.a(lib_a-stdio.o)
                                                  /usr/lib/gcc/arm-none-eabi/9.2.1/../../../arm-none-eabi/lib/thumb/v7e-m+fp/softfp/libg.a(lib_a-findfp.o)
__sseek                                           /usr/lib/gcc/arm-none-eabi/9.2.1/../../../arm-none-eabi/lib/thumb/v7e-m+fp/softfp/libg.a(lib_a-stdio.o)
                                                  /usr/lib/gcc/arm-none-eabi/9.2.1/../../../arm-none-eabi/lib/thumb/v7e-m+fp/softfp/libg.a(lib_a-findfp.o)
__ssprint_r                                       /usr/lib/gcc/arm-none-eabi/9.2.1/../../../arm-none-eabi/lib/thumb/v7e-m+fp/softfp/libg.a(lib_a-svfiprintf.o)
                                                  /usr/lib/gcc/arm-none-eabi/9.2.1/../../../arm-none-eabi/lib/thumb/v7e-m+fp/softfp/libg.a(lib_a-svfprintf.o)
__subdf3                                          /usr/lib/gcc/arm-none-eabi/9.2.1/thumb/v7e-m+fp/softfp/libgcc.a(_arm_addsubdf3.o)
__swbuf                                           /usr/lib/gcc/arm-none-eabi/9.2.1/../../../arm-none-eabi/lib/thumb/v7e-m+fp/softfp/libg.a(lib_a-wbuf.o)
__swbuf_r                                         /usr/lib/gcc/arm-none-eabi/9.2.1/../../../arm-none-eabi/lib/thumb/v7e-m+fp/softfp/libg.a(lib_a-wbuf.o)
                                                  /usr/lib/gcc/arm-none-eabi/9.2.1/../../../arm-none-eabi/lib/thumb/v7e-m+fp/softfp/libg.a(lib_a-fputwc.o)
__swhatbuf_r                                      /usr/lib/gcc/arm-none-eabi/9.2.1/../../../arm-none-eabi/lib/thumb/v7e-m+fp/softfp/libg.a(lib_a-makebuf.o)
                                                  /usr/lib/gcc/arm-none-eabi/9.2.1/../../../arm-none-eabi/lib/thumb/v7e-m+fp/softfp/libg.a(lib_a-setvbuf.o)
__swrite                                          /usr/lib/gcc/arm-none-eabi/9.2.1/../../../arm-none-eabi/lib/thumb/v7e-m+fp/softfp/libg.a(lib_a-stdio.o)
                                                  /usr/lib/gcc/arm-none-eabi/9.2.1/../../../arm-none-eabi/lib/thumb/v7e-m+fp/softfp/libg.a(lib_a-findfp.o)
__swsetup_r                                       /usr/lib/gcc/arm-none-eabi/9.2.1/../../../arm-none-eabi/lib/thumb/v7e-m+fp/softfp/libg.a(lib_a-wsetup.o)
                                                  /usr/lib/gcc/arm-none-eabi/9.2.1/../../../arm-none-eabi/lib/thumb/v7e-m+fp/softfp/libg.a(lib_a-wbuf.o)
                                                  /usr/lib/gcc/arm-none-eabi/9.2.1/../../../arm-none-eabi/lib/thumb/v7e-m+fp/softfp/libg.a(lib_a-vfiprintf.o)
                                                  /usr/lib/gcc/arm-none-eabi/9.2.1/../../../arm-none-eabi/lib/thumb/v7e-m+fp/softfp/libg.a(lib_a-fvwrite.o)
__udivmoddi4                                      /usr/lib/gcc/arm-none-eabi/9.2.1/thumb/v7e-m+fp/softfp/libgcc.a(_udivmoddi4.o)
                                                  /usr/lib/gcc/arm-none-eabi/9.2.1/thumb/v7e-m+fp/softfp/libgcc.a(_aeabi_uldivmod.o)
__ulp                                             /usr/lib/gcc/arm-none-eabi/9.2.1/../../../arm-none-eabi/lib/thumb/v7e-m+fp/softfp/libg.a(lib_a-mprec.o)
__unorddf2                                        /usr/lib/gcc/arm-none-eabi/9.2.1/thumb/v7e-m+fp/softfp/libgcc.a(_arm_unorddf2.o)
_calloc_r                                         /usr/lib/gcc/arm-none-eabi/9.2.1/../../../arm-none-eabi/lib/thumb/v7e-m+fp/softfp/libg.a(lib_a-callocr.o)
                                                  /usr/lib/gcc/arm-none-eabi/9.2.1/../../../arm-none-eabi/lib/thumb/v7e-m+fp/softfp/libg.a(lib_a-mprec.o)
_cleanup                                          /usr/lib/gcc/arm-none-eabi/9.2.1/../../../arm-none-eabi/lib/thumb/v7e-m+fp/softfp/libg.a(lib_a-findfp.o)
_cleanup_r                                        /usr/lib/gcc/arm-none-eabi/9.2.1/../../../arm-none-eabi/lib/thumb/v7e-m+fp/softfp/libg.a(lib_a-findfp.o)
                                                  /usr/lib/gcc/arm-none-eabi/9.2.1/../../../arm-none-eabi/lib/thumb/v7e-m+fp/softfp/libg.a(lib_a-makebuf.o)
_close                                            build/tsb0//home/karl/SimplicityStudio_v5/developer/sdks/gecko_sdk_suite/v3.2/hardware/kit/common/drivers/retargetio.o
                                                  /usr/lib/gcc/arm-none-eabi/9.2.1/../../../arm-none-eabi/lib/thumb/v7e-m+fp/softfp/libg.a(lib_a-closer.o)
_close_r                                          /usr/lib/gcc/arm-none-eabi/9.2.1/../../../arm-none-eabi/lib/thumb/v7e-m+fp/softfp/libg.a(lib_a-closer.o)
                                                  /usr/lib/gcc/arm-none-eabi/9.2.1/../../../arm-none-eabi/lib/thumb/v7e-m+fp/softfp/libg.a(lib_a-stdio.o)
_ctype_                                           /usr/lib/gcc/arm-none-eabi/9.2.1/../../../arm-none-eabi/lib/thumb/v7e-m+fp/softfp/libg.a(lib_a-ctype_.o)
                                                  /usr/lib/gcc/arm-none-eabi/9.2.1/../../../arm-none-eabi/lib/thumb/v7e-m+fp/softfp/libg.a(lib_a-locale.o)
_dtoa_r                                           /usr/lib/gcc/arm-none-eabi/9.2.1/../../../arm-none-eabi/lib/thumb/v7e-m+fp/softfp/libg.a(lib_a-dtoa.o)
                                                  /usr/lib/gcc/arm-none-eabi/9.2.1/../../../arm-none-eabi/lib/thumb/v7e-m+fp/softfp/libg.a(lib_a-svfprintf.o)
_exit                                             build/tsb0//home/karl/SimplicityStudio_v5/developer/sdks/gecko_sdk_suite/v3.2/hardware/kit/common/drivers/retargetio.o
                                                  /usr/lib/gcc/arm-none-eabi/9.2.1/../../../arm-none-eabi/lib/thumb/v7e-m+fp/softfp/libg.a(lib_a-abort.o)
_fclose_r                                         /usr/lib/gcc/arm-none-eabi/9.2.1/../../../arm-none-eabi/lib/thumb/v7e-m+fp/softfp/libg.a(lib_a-fclose.o)
                                                  /usr/lib/gcc/arm-none-eabi/9.2.1/../../../arm-none-eabi/lib/thumb/v7e-m+fp/softfp/libg.a(lib_a-findfp.o)
_fflush_r                                         /usr/lib/gcc/arm-none-eabi/9.2.1/../../../arm-none-eabi/lib/thumb/v7e-m+fp/softfp/libg.a(lib_a-fflush.o)
                                                  /usr/lib/gcc/arm-none-eabi/9.2.1/../../../arm-none-eabi/lib/thumb/v7e-m+fp/softfp/libg.a(lib_a-wbuf.o)
                                                  /usr/lib/gcc/arm-none-eabi/9.2.1/../../../arm-none-eabi/lib/thumb/v7e-m+fp/softfp/libg.a(lib_a-vfiprintf.o)
                                                  /usr/lib/gcc/arm-none-eabi/9.2.1/../../../arm-none-eabi/lib/thumb/v7e-m+fp/softfp/libg.a(lib_a-fvwrite.o)
                                                  /usr/lib/gcc/arm-none-eabi/9.2.1/../../../arm-none-eabi/lib/thumb/v7e-m+fp/softfp/libg.a(lib_a-setvbuf.o)
_fiprintf_r                                       /usr/lib/gcc/arm-none-eabi/9.2.1/../../../arm-none-eabi/lib/thumb/v7e-m+fp/softfp/libg.a(lib_a-fiprintf.o)
_fputwc_r                                         /usr/lib/gcc/arm-none-eabi/9.2.1/../../../arm-none-eabi/lib/thumb/v7e-m+fp/softfp/libg.a(lib_a-fputwc.o)
                                                  /usr/lib/gcc/arm-none-eabi/9.2.1/../../../arm-none-eabi/lib/thumb/v7e-m+fp/softfp/libg.a(lib_a-vfiprintf.o)
_free_r                                           /usr/lib/gcc/arm-none-eabi/9.2.1/../../../arm-none-eabi/lib/thumb/v7e-m+fp/softfp/libg.a(lib_a-freer.o)
                                                  /usr/lib/gcc/arm-none-eabi/9.2.1/../../../arm-none-eabi/lib/thumb/v7e-m+fp/softfp/libg.a(lib_a-wsetup.o)
                                                  /usr/lib/gcc/arm-none-eabi/9.2.1/../../../arm-none-eabi/lib/thumb/v7e-m+fp/softfp/libg.a(lib_a-svfiprintf.o)
                                                  /usr/lib/gcc/arm-none-eabi/9.2.1/../../../arm-none-eabi/lib/thumb/v7e-m+fp/softfp/libg.a(lib_a-reent.o)
                                                  /usr/lib/gcc/arm-none-eabi/9.2.1/../../../arm-none-eabi/lib/thumb/v7e-m+fp/softfp/libg.a(lib_a-reallocr.o)
                                                  /usr/lib/gcc/arm-none-eabi/9.2.1/../../../arm-none-eabi/lib/thumb/v7e-m+fp/softfp/libg.a(lib_a-malloc.o)
                                                  /usr/lib/gcc/arm-none-eabi/9.2.1/../../../arm-none-eabi/lib/thumb/v7e-m+fp/softfp/libg.a(lib_a-fvwrite.o)
                                                  /usr/lib/gcc/arm-none-eabi/9.2.1/../../../arm-none-eabi/lib/thumb/v7e-m+fp/softfp/libg.a(lib_a-fclose.o)
                                                  /usr/lib/gcc/arm-none-eabi/9.2.1/../../../arm-none-eabi/lib/thumb/v7e-m+fp/softfp/libg.a(lib_a-setvbuf.o)
                                                  /usr/lib/gcc/arm-none-eabi/9.2.1/../../../arm-none-eabi/lib/thumb/v7e-m+fp/softfp/libg.a(lib_a-mallocr.o)
                                                  /usr/lib/gcc/arm-none-eabi/9.2.1/../../../arm-none-eabi/lib/thumb/v7e-m+fp/softfp/libg.a(lib_a-fflush.o)
_fstat                                            build/tsb0//home/karl/SimplicityStudio_v5/developer/sdks/gecko_sdk_suite/v3.2/hardware/kit/common/drivers/retargetio.o
                                                  /usr/lib/gcc/arm-none-eabi/9.2.1/../../../arm-none-eabi/lib/thumb/v7e-m+fp/softfp/libg.a(lib_a-fstatr.o)
_fstat_r                                          /usr/lib/gcc/arm-none-eabi/9.2.1/../../../arm-none-eabi/lib/thumb/v7e-m+fp/softfp/libg.a(lib_a-fstatr.o)
                                                  /usr/lib/gcc/arm-none-eabi/9.2.1/../../../arm-none-eabi/lib/thumb/v7e-m+fp/softfp/libg.a(lib_a-makebuf.o)
_fwalk                                            /usr/lib/gcc/arm-none-eabi/9.2.1/../../../arm-none-eabi/lib/thumb/v7e-m+fp/softfp/libg.a(lib_a-fwalk.o)
                                                  /usr/lib/gcc/arm-none-eabi/9.2.1/../../../arm-none-eabi/lib/thumb/v7e-m+fp/softfp/libg.a(lib_a-findfp.o)
_fwalk_reent                                      /usr/lib/gcc/arm-none-eabi/9.2.1/../../../arm-none-eabi/lib/thumb/v7e-m+fp/softfp/libg.a(lib_a-fwalk.o)
                                                  /usr/lib/gcc/arm-none-eabi/9.2.1/../../../arm-none-eabi/lib/thumb/v7e-m+fp/softfp/libg.a(lib_a-findfp.o)
                                                  /usr/lib/gcc/arm-none-eabi/9.2.1/../../../arm-none-eabi/lib/thumb/v7e-m+fp/softfp/libg.a(lib_a-fflush.o)
_fwrite_r                                         /usr/lib/gcc/arm-none-eabi/9.2.1/../../../arm-none-eabi/lib/thumb/v7e-m+fp/softfp/libg.a(lib_a-fwrite.o)
_getpid                                           build/tsb0//home/karl/SimplicityStudio_v5/developer/sdks/gecko_sdk_suite/v3.2/hardware/kit/common/drivers/retargetio.o
                                                  /usr/lib/gcc/arm-none-eabi/9.2.1/../../../arm-none-eabi/lib/thumb/v7e-m+fp/softfp/libg.a(lib_a-signalr.o)
_getpid_r                                         /usr/lib/gcc/arm-none-eabi/9.2.1/../../../arm-none-eabi/lib/thumb/v7e-m+fp/softfp/libg.a(lib_a-signalr.o)
                                                  /usr/lib/gcc/arm-none-eabi/9.2.1/../../../arm-none-eabi/lib/thumb/v7e-m+fp/softfp/libg.a(lib_a-signal.o)
_global_impure_ptr                                /usr/lib/gcc/arm-none-eabi/9.2.1/../../../arm-none-eabi/lib/thumb/v7e-m+fp/softfp/libg.a(lib_a-impure.o)
                                                  /usr/lib/gcc/arm-none-eabi/9.2.1/../../../arm-none-eabi/lib/thumb/v7e-m+fp/softfp/libg.a(lib_a-findfp.o)
                                                  /usr/lib/gcc/arm-none-eabi/9.2.1/../../../arm-none-eabi/lib/thumb/v7e-m+fp/softfp/libg.a(lib_a-fflush.o)
_impure_ptr                                       /usr/lib/gcc/arm-none-eabi/9.2.1/../../../arm-none-eabi/lib/thumb/v7e-m+fp/softfp/libg.a(lib_a-impure.o)
                                                  /usr/lib/gcc/arm-none-eabi/9.2.1/../../../arm-none-eabi/lib/thumb/v7e-m+fp/softfp/libg.a(lib_a-wcrtomb.o)
                                                  /usr/lib/gcc/arm-none-eabi/9.2.1/../../../arm-none-eabi/lib/thumb/v7e-m+fp/softfp/libg.a(lib_a-wbuf.o)
                                                  /usr/lib/gcc/arm-none-eabi/9.2.1/../../../arm-none-eabi/lib/thumb/v7e-m+fp/softfp/libg.a(lib_a-signal.o)
                                                  /usr/lib/gcc/arm-none-eabi/9.2.1/../../../arm-none-eabi/lib/thumb/v7e-m+fp/softfp/libg.a(lib_a-fputwc.o)
                                                  /usr/lib/gcc/arm-none-eabi/9.2.1/../../../arm-none-eabi/lib/thumb/v7e-m+fp/softfp/libg.a(lib_a-vfiprintf.o)
                                                  /usr/lib/gcc/arm-none-eabi/9.2.1/../../../arm-none-eabi/lib/thumb/v7e-m+fp/softfp/libg.a(lib_a-locale.o)
                                                  /usr/lib/gcc/arm-none-eabi/9.2.1/../../../arm-none-eabi/lib/thumb/v7e-m+fp/softfp/libg.a(lib_a-fiprintf.o)
                                                  /usr/lib/gcc/arm-none-eabi/9.2.1/../../../arm-none-eabi/lib/thumb/v7e-m+fp/softfp/libg.a(lib_a-assert.o)
                                                  /usr/lib/gcc/arm-none-eabi/9.2.1/../../../arm-none-eabi/lib/thumb/v7e-m+fp/softfp/libg.a(lib_a-wsetup.o)
                                                  /usr/lib/gcc/arm-none-eabi/9.2.1/../../../arm-none-eabi/lib/thumb/v7e-m+fp/softfp/libg.a(lib_a-reent.o)
                                                  /usr/lib/gcc/arm-none-eabi/9.2.1/../../../arm-none-eabi/lib/thumb/v7e-m+fp/softfp/libg.a(lib_a-malloc.o)
                                                  /usr/lib/gcc/arm-none-eabi/9.2.1/../../../arm-none-eabi/lib/thumb/v7e-m+fp/softfp/libg.a(lib_a-fclose.o)
                                                  /usr/lib/gcc/arm-none-eabi/9.2.1/../../../arm-none-eabi/lib/thumb/v7e-m+fp/softfp/libg.a(lib_a-vsnprintf.o)
                                                  /usr/lib/gcc/arm-none-eabi/9.2.1/../../../arm-none-eabi/lib/thumb/v7e-m+fp/softfp/libg.a(lib_a-snprintf.o)
                                                  /usr/lib/gcc/arm-none-eabi/9.2.1/../../../arm-none-eabi/lib/thumb/v7e-m+fp/softfp/libg.a(lib_a-setvbuf.o)
                                                  /usr/lib/gcc/arm-none-eabi/9.2.1/../../../arm-none-eabi/lib/thumb/v7e-m+fp/softfp/libg.a(lib_a-fwrite.o)
                                                  /usr/lib/gcc/arm-none-eabi/9.2.1/../../../arm-none-eabi/lib/thumb/v7e-m+fp/softfp/libg.a(lib_a-findfp.o)
                                                  /usr/lib/gcc/arm-none-eabi/9.2.1/../../../arm-none-eabi/lib/thumb/v7e-m+fp/softfp/libg.a(lib_a-fflush.o)
                                                  build/tsb0//home/karl/node-apps/zoo/thinnect.node-platform/silabs/logger_fwrite.o
                                                  build/tsb0//home/karl/SimplicityStudio_v5/developer/sdks/gecko_sdk_suite/v3.2/hardware/kit/common/drivers/retargetserial.o
                                                  build/tsb0/blink_pwm_main.o
_init_signal                                      /usr/lib/gcc/arm-none-eabi/9.2.1/../../../arm-none-eabi/lib/thumb/v7e-m+fp/softfp/libg.a(lib_a-signal.o)
_init_signal_r                                    /usr/lib/gcc/arm-none-eabi/9.2.1/../../../arm-none-eabi/lib/thumb/v7e-m+fp/softfp/libg.a(lib_a-signal.o)
_isatty                                           build/tsb0//home/karl/SimplicityStudio_v5/developer/sdks/gecko_sdk_suite/v3.2/hardware/kit/common/drivers/retargetio.o
                                                  /usr/lib/gcc/arm-none-eabi/9.2.1/../../../arm-none-eabi/lib/thumb/v7e-m+fp/softfp/libg.a(lib_a-isattyr.o)
_isatty_r                                         /usr/lib/gcc/arm-none-eabi/9.2.1/../../../arm-none-eabi/lib/thumb/v7e-m+fp/softfp/libg.a(lib_a-isattyr.o)
                                                  /usr/lib/gcc/arm-none-eabi/9.2.1/../../../arm-none-eabi/lib/thumb/v7e-m+fp/softfp/libg.a(lib_a-makebuf.o)
_kill                                             build/tsb0//home/karl/SimplicityStudio_v5/developer/sdks/gecko_sdk_suite/v3.2/hardware/kit/common/drivers/retargetio.o
                                                  /usr/lib/gcc/arm-none-eabi/9.2.1/../../../arm-none-eabi/lib/thumb/v7e-m+fp/softfp/libg.a(lib_a-signalr.o)
_kill_r                                           /usr/lib/gcc/arm-none-eabi/9.2.1/../../../arm-none-eabi/lib/thumb/v7e-m+fp/softfp/libg.a(lib_a-signalr.o)
                                                  /usr/lib/gcc/arm-none-eabi/9.2.1/../../../arm-none-eabi/lib/thumb/v7e-m+fp/softfp/libg.a(lib_a-signal.o)
_localeconv_r                                     /usr/lib/gcc/arm-none-eabi/9.2.1/../../../arm-none-eabi/lib/thumb/v7e-m+fp/softfp/libg.a(lib_a-localeconv.o)
                                                  /usr/lib/gcc/arm-none-eabi/9.2.1/../../../arm-none-eabi/lib/thumb/v7e-m+fp/softfp/libg.a(lib_a-svfprintf.o)
_lseek                                            build/tsb0//home/karl/SimplicityStudio_v5/developer/sdks/gecko_sdk_suite/v3.2/hardware/kit/common/drivers/retargetio.o
                                                  /usr/lib/gcc/arm-none-eabi/9.2.1/../../../arm-none-eabi/lib/thumb/v7e-m+fp/softfp/libg.a(lib_a-lseekr.o)
_lseek_r                                          /usr/lib/gcc/arm-none-eabi/9.2.1/../../../arm-none-eabi/lib/thumb/v7e-m+fp/softfp/libg.a(lib_a-lseekr.o)
                                                  /usr/lib/gcc/arm-none-eabi/9.2.1/../../../arm-none-eabi/lib/thumb/v7e-m+fp/softfp/libg.a(lib_a-stdio.o)
_malloc_r                                         /usr/lib/gcc/arm-none-eabi/9.2.1/../../../arm-none-eabi/lib/thumb/v7e-m+fp/softfp/libg.a(lib_a-mallocr.o)
                                                  /usr/lib/gcc/arm-none-eabi/9.2.1/../../../arm-none-eabi/lib/thumb/v7e-m+fp/softfp/libg.a(lib_a-signal.o)
                                                  /usr/lib/gcc/arm-none-eabi/9.2.1/../../../arm-none-eabi/lib/thumb/v7e-m+fp/softfp/libg.a(lib_a-callocr.o)
                                                  /usr/lib/gcc/arm-none-eabi/9.2.1/../../../arm-none-eabi/lib/thumb/v7e-m+fp/softfp/libg.a(lib_a-svfiprintf.o)
                                                  /usr/lib/gcc/arm-none-eabi/9.2.1/../../../arm-none-eabi/lib/thumb/v7e-m+fp/softfp/libg.a(lib_a-reallocr.o)
                                                  /usr/lib/gcc/arm-none-eabi/9.2.1/../../../arm-none-eabi/lib/thumb/v7e-m+fp/softfp/libg.a(lib_a-malloc.o)
                                                  /usr/lib/gcc/arm-none-eabi/9.2.1/../../../arm-none-eabi/lib/thumb/v7e-m+fp/softfp/libg.a(lib_a-makebuf.o)
                                                  /usr/lib/gcc/arm-none-eabi/9.2.1/../../../arm-none-eabi/lib/thumb/v7e-m+fp/softfp/libg.a(lib_a-fvwrite.o)
                                                  /usr/lib/gcc/arm-none-eabi/9.2.1/../../../arm-none-eabi/lib/thumb/v7e-m+fp/softfp/libg.a(lib_a-svfprintf.o)
                                                  /usr/lib/gcc/arm-none-eabi/9.2.1/../../../arm-none-eabi/lib/thumb/v7e-m+fp/softfp/libg.a(lib_a-findfp.o)
_malloc_trim_r                                    /usr/lib/gcc/arm-none-eabi/9.2.1/../../../arm-none-eabi/lib/thumb/v7e-m+fp/softfp/libg.a(lib_a-freer.o)
_mbtowc_r                                         /usr/lib/gcc/arm-none-eabi/9.2.1/../../../arm-none-eabi/lib/thumb/v7e-m+fp/softfp/libg.a(lib_a-mbtowc_r.o)
_mprec_log10                                      /usr/lib/gcc/arm-none-eabi/9.2.1/../../../arm-none-eabi/lib/thumb/v7e-m+fp/softfp/libg.a(lib_a-mprec.o)
_raise_r                                          /usr/lib/gcc/arm-none-eabi/9.2.1/../../../arm-none-eabi/lib/thumb/v7e-m+fp/softfp/libg.a(lib_a-signal.o)
_read                                             build/tsb0//home/karl/SimplicityStudio_v5/developer/sdks/gecko_sdk_suite/v3.2/hardware/kit/common/drivers/retargetio.o
                                                  /usr/lib/gcc/arm-none-eabi/9.2.1/../../../arm-none-eabi/lib/thumb/v7e-m+fp/softfp/libg.a(lib_a-readr.o)
_read_r                                           /usr/lib/gcc/arm-none-eabi/9.2.1/../../../arm-none-eabi/lib/thumb/v7e-m+fp/softfp/libg.a(lib_a-readr.o)
                                                  /usr/lib/gcc/arm-none-eabi/9.2.1/../../../arm-none-eabi/lib/thumb/v7e-m+fp/softfp/libg.a(lib_a-stdio.o)
_realloc_r                                        /usr/lib/gcc/arm-none-eabi/9.2.1/../../../arm-none-eabi/lib/thumb/v7e-m+fp/softfp/libg.a(lib_a-reallocr.o)
                                                  /usr/lib/gcc/arm-none-eabi/9.2.1/../../../arm-none-eabi/lib/thumb/v7e-m+fp/softfp/libg.a(lib_a-svfiprintf.o)
                                                  /usr/lib/gcc/arm-none-eabi/9.2.1/../../../arm-none-eabi/lib/thumb/v7e-m+fp/softfp/libg.a(lib_a-fvwrite.o)
_reclaim_reent                                    /usr/lib/gcc/arm-none-eabi/9.2.1/../../../arm-none-eabi/lib/thumb/v7e-m+fp/softfp/libg.a(lib_a-reent.o)
_sbrk                                             /usr/lib/gcc/arm-none-eabi/9.2.1/../../../arm-none-eabi/lib/thumb/v7e-m+fp/softfp/libnosys.a(sbrk.o)
                                                  /usr/lib/gcc/arm-none-eabi/9.2.1/../../../arm-none-eabi/lib/thumb/v7e-m+fp/softfp/libg.a(lib_a-sbrkr.o)
_sbrk_r                                           /usr/lib/gcc/arm-none-eabi/9.2.1/../../../arm-none-eabi/lib/thumb/v7e-m+fp/softfp/libg.a(lib_a-sbrkr.o)
                                                  /usr/lib/gcc/arm-none-eabi/9.2.1/../../../arm-none-eabi/lib/thumb/v7e-m+fp/softfp/libg.a(lib_a-mallocr.o)
                                                  /usr/lib/gcc/arm-none-eabi/9.2.1/../../../arm-none-eabi/lib/thumb/v7e-m+fp/softfp/libg.a(lib_a-freer.o)
_setlocale_r                                      /usr/lib/gcc/arm-none-eabi/9.2.1/../../../arm-none-eabi/lib/thumb/v7e-m+fp/softfp/libg.a(lib_a-locale.o)
_signal_r                                         /usr/lib/gcc/arm-none-eabi/9.2.1/../../../arm-none-eabi/lib/thumb/v7e-m+fp/softfp/libg.a(lib_a-signal.o)
_snprintf_r                                       /usr/lib/gcc/arm-none-eabi/9.2.1/../../../arm-none-eabi/lib/thumb/v7e-m+fp/softfp/libg.a(lib_a-snprintf.o)
_svfiprintf_r                                     /usr/lib/gcc/arm-none-eabi/9.2.1/../../../arm-none-eabi/lib/thumb/v7e-m+fp/softfp/libg.a(lib_a-svfiprintf.o)
_svfprintf_r                                      /usr/lib/gcc/arm-none-eabi/9.2.1/../../../arm-none-eabi/lib/thumb/v7e-m+fp/softfp/libg.a(lib_a-svfprintf.o)
                                                  /usr/lib/gcc/arm-none-eabi/9.2.1/../../../arm-none-eabi/lib/thumb/v7e-m+fp/softfp/libg.a(lib_a-vsnprintf.o)
                                                  /usr/lib/gcc/arm-none-eabi/9.2.1/../../../arm-none-eabi/lib/thumb/v7e-m+fp/softfp/libg.a(lib_a-snprintf.o)
_vfiprintf_r                                      /usr/lib/gcc/arm-none-eabi/9.2.1/../../../arm-none-eabi/lib/thumb/v7e-m+fp/softfp/libg.a(lib_a-vfiprintf.o)
                                                  /usr/lib/gcc/arm-none-eabi/9.2.1/../../../arm-none-eabi/lib/thumb/v7e-m+fp/softfp/libg.a(lib_a-fiprintf.o)
_vsnprintf_r                                      /usr/lib/gcc/arm-none-eabi/9.2.1/../../../arm-none-eabi/lib/thumb/v7e-m+fp/softfp/libg.a(lib_a-vsnprintf.o)
_wcrtomb_r                                        /usr/lib/gcc/arm-none-eabi/9.2.1/../../../arm-none-eabi/lib/thumb/v7e-m+fp/softfp/libg.a(lib_a-wcrtomb.o)
                                                  /usr/lib/gcc/arm-none-eabi/9.2.1/../../../arm-none-eabi/lib/thumb/v7e-m+fp/softfp/libg.a(lib_a-fputwc.o)
_wctomb_r                                         /usr/lib/gcc/arm-none-eabi/9.2.1/../../../arm-none-eabi/lib/thumb/v7e-m+fp/softfp/libg.a(lib_a-wctomb_r.o)
_write                                            build/tsb0//home/karl/SimplicityStudio_v5/developer/sdks/gecko_sdk_suite/v3.2/hardware/kit/common/drivers/retargetio.o
                                                  /usr/lib/gcc/arm-none-eabi/9.2.1/../../../arm-none-eabi/lib/thumb/v7e-m+fp/softfp/libg.a(lib_a-writer.o)
_write_r                                          /usr/lib/gcc/arm-none-eabi/9.2.1/../../../arm-none-eabi/lib/thumb/v7e-m+fp/softfp/libg.a(lib_a-writer.o)
                                                  /usr/lib/gcc/arm-none-eabi/9.2.1/../../../arm-none-eabi/lib/thumb/v7e-m+fp/softfp/libg.a(lib_a-stdio.o)
abort                                             /usr/lib/gcc/arm-none-eabi/9.2.1/../../../arm-none-eabi/lib/thumb/v7e-m+fp/softfp/libg.a(lib_a-abort.o)
                                                  /usr/lib/gcc/arm-none-eabi/9.2.1/../../../arm-none-eabi/lib/thumb/v7e-m+fp/softfp/libg.a(lib_a-assert.o)
app_loop                                          build/tsb0/blink_pwm_main.o
cleanup_glue                                      /usr/lib/gcc/arm-none-eabi/9.2.1/../../../arm-none-eabi/lib/thumb/v7e-m+fp/softfp/libg.a(lib_a-reent.o)
crc_ccitt_1d0f                                    build/tsb0//home/karl/node-apps/zoo/lammertb.libcrc/src/crcccitt.o
crc_ccitt_ffff                                    build/tsb0//home/karl/node-apps/zoo/lammertb.libcrc/src/crcccitt.o
crc_xmodem                                        build/tsb0//home/karl/node-apps/zoo/lammertb.libcrc/src/crcccitt.o
dimmer_loop                                       build/tsb0/blink_pwm_main.o
eTaskGetState                                     build/tsb0//home/karl/node-apps/zoo/FreeRTOS-Kernel/tasks.o
                                                  build/tsb0//home/karl/node-apps/zoo/thinnect.cmsis-freertos/CMSIS-FreeRTOS/CMSIS/RTOS2/FreeRTOS/Source/cmsis_os2.o
end                                               /usr/lib/gcc/arm-none-eabi/9.2.1/../../../arm-none-eabi/lib/thumb/v7e-m+fp/softfp/libnosys.a(sbrk.o)
errno                                             /usr/lib/gcc/arm-none-eabi/9.2.1/../../../arm-none-eabi/lib/thumb/v7e-m+fp/softfp/libg.a(lib_a-reent.o)
                                                  /usr/lib/gcc/arm-none-eabi/9.2.1/../../../arm-none-eabi/lib/thumb/v7e-m+fp/softfp/libg.a(lib_a-signalr.o)
                                                  /usr/lib/gcc/arm-none-eabi/9.2.1/../../../arm-none-eabi/lib/thumb/v7e-m+fp/softfp/libg.a(lib_a-isattyr.o)
                                                  /usr/lib/gcc/arm-none-eabi/9.2.1/../../../arm-none-eabi/lib/thumb/v7e-m+fp/softfp/libg.a(lib_a-fstatr.o)
                                                  /usr/lib/gcc/arm-none-eabi/9.2.1/../../../arm-none-eabi/lib/thumb/v7e-m+fp/softfp/libg.a(lib_a-readr.o)
                                                  /usr/lib/gcc/arm-none-eabi/9.2.1/../../../arm-none-eabi/lib/thumb/v7e-m+fp/softfp/libg.a(lib_a-lseekr.o)
                                                  /usr/lib/gcc/arm-none-eabi/9.2.1/../../../arm-none-eabi/lib/thumb/v7e-m+fp/softfp/libg.a(lib_a-closer.o)
                                                  /usr/lib/gcc/arm-none-eabi/9.2.1/../../../arm-none-eabi/lib/thumb/v7e-m+fp/softfp/libg.a(lib_a-writer.o)
                                                  /usr/lib/gcc/arm-none-eabi/9.2.1/../../../arm-none-eabi/lib/thumb/v7e-m+fp/softfp/libg.a(lib_a-sbrkr.o)
fclose                                            /usr/lib/gcc/arm-none-eabi/9.2.1/../../../arm-none-eabi/lib/thumb/v7e-m+fp/softfp/libg.a(lib_a-fclose.o)
fflush                                            /usr/lib/gcc/arm-none-eabi/9.2.1/../../../arm-none-eabi/lib/thumb/v7e-m+fp/softfp/libg.a(lib_a-fflush.o)
                                                  build/tsb0//home/karl/node-apps/zoo/thinnect.node-platform/silabs/logger_fwrite.o
                                                  build/tsb0/blink_pwm_main.o
fiprintf                                          /usr/lib/gcc/arm-none-eabi/9.2.1/../../../arm-none-eabi/lib/thumb/v7e-m+fp/softfp/libg.a(lib_a-fiprintf.o)
                                                  /usr/lib/gcc/arm-none-eabi/9.2.1/../../../arm-none-eabi/lib/thumb/v7e-m+fp/softfp/libg.a(lib_a-assert.o)
fputwc                                            /usr/lib/gcc/arm-none-eabi/9.2.1/../../../arm-none-eabi/lib/thumb/v7e-m+fp/softfp/libg.a(lib_a-fputwc.o)
free                                              /usr/lib/gcc/arm-none-eabi/9.2.1/../../../arm-none-eabi/lib/thumb/v7e-m+fp/softfp/libg.a(lib_a-malloc.o)
fwrite                                            /usr/lib/gcc/arm-none-eabi/9.2.1/../../../arm-none-eabi/lib/thumb/v7e-m+fp/softfp/libg.a(lib_a-fwrite.o)
                                                  build/tsb0//home/karl/node-apps/zoo/thinnect.node-platform/silabs/logger_fwrite.o
                                                  build/tsb0/blink_pwm_main.o
gHeaderData                                       build/tsb0/blink_pwm_main.o
gHeaderEnd                                        build/tsb0/blink_pwm_main.o
gHeaderSize                                       build/tsb0/blink_pwm_main.o
getEui64                                          build/tsb0//home/karl/node-apps/zoo/thinnect.device-signature/signature/DeviceSignature.o
getSignatureLength                                build/tsb0//home/karl/node-apps/zoo/thinnect.device-signature/signature/DeviceSignature.o
getSignatureVersion                               build/tsb0//home/karl/node-apps/zoo/thinnect.device-signature/signature/DeviceSignature.o
get_leds_pwm                                      build/tsb0/timer_handler.o
                                                  build/tsb0/blink_pwm_main.o
localeconv                                        /usr/lib/gcc/arm-none-eabi/9.2.1/../../../arm-none-eabi/lib/thumb/v7e-m+fp/softfp/libg.a(lib_a-localeconv.o)
log_init                                          build/tsb0//home/karl/node-apps/zoo/thinnect.lll/logging/loggers_ext.o
                                                  build/tsb0/blink_pwm_main.o
logger_fwrite                                     build/tsb0//home/karl/node-apps/zoo/thinnect.node-platform/silabs/logger_fwrite.o
                                                  build/tsb0/blink_pwm_main.o
logger_fwrite_boot                                build/tsb0/blink_pwm_main.o
logger_fwrite_init                                build/tsb0//home/karl/node-apps/zoo/thinnect.node-platform/silabs/logger_fwrite.o
                                                  build/tsb0/blink_pwm_main.o
main                                              build/tsb0/blink_pwm_main.o
                                                  build/tsb0//home/karl/SimplicityStudio_v5/developer/sdks/gecko_sdk_suite/v3.2/platform/Device/SiliconLabs/EFR32MG12P/Source/GCC/startup_efr32mg12p.o
malloc                                            /usr/lib/gcc/arm-none-eabi/9.2.1/../../../arm-none-eabi/lib/thumb/v7e-m+fp/softfp/libg.a(lib_a-malloc.o)
                                                  /usr/lib/gcc/arm-none-eabi/9.2.1/../../../arm-none-eabi/lib/thumb/v7e-m+fp/softfp/libg.a(lib_a-setvbuf.o)
memchr                                            /usr/lib/gcc/arm-none-eabi/9.2.1/../../../arm-none-eabi/lib/thumb/v7e-m+fp/softfp/libg.a(lib_a-memchr.o)
                                                  /usr/lib/gcc/arm-none-eabi/9.2.1/../../../arm-none-eabi/lib/thumb/v7e-m+fp/softfp/libg.a(lib_a-vfiprintf.o)
                                                  /usr/lib/gcc/arm-none-eabi/9.2.1/../../../arm-none-eabi/lib/thumb/v7e-m+fp/softfp/libg.a(lib_a-svfiprintf.o)
                                                  /usr/lib/gcc/arm-none-eabi/9.2.1/../../../arm-none-eabi/lib/thumb/v7e-m+fp/softfp/libg.a(lib_a-fvwrite.o)
                                                  /usr/lib/gcc/arm-none-eabi/9.2.1/../../../arm-none-eabi/lib/thumb/v7e-m+fp/softfp/libg.a(lib_a-svfprintf.o)
memcpy                                            /usr/lib/gcc/arm-none-eabi/9.2.1/../../../arm-none-eabi/lib/thumb/v7e-m+fp/softfp/libg.a(lib_a-memcpy.o)
                                                  /usr/lib/gcc/arm-none-eabi/9.2.1/../../../arm-none-eabi/lib/thumb/v7e-m+fp/softfp/libg.a(lib_a-svfiprintf.o)
                                                  /usr/lib/gcc/arm-none-eabi/9.2.1/../../../arm-none-eabi/lib/thumb/v7e-m+fp/softfp/libg.a(lib_a-mprec.o)
                                                  /usr/lib/gcc/arm-none-eabi/9.2.1/../../../arm-none-eabi/lib/thumb/v7e-m+fp/softfp/libg.a(lib_a-fvwrite.o)
                                                  /usr/lib/gcc/arm-none-eabi/9.2.1/../../../arm-none-eabi/lib/thumb/v7e-m+fp/softfp/libg.a(lib_a-dtoa.o)
                                                  build/tsb0//home/karl/node-apps/zoo/thinnect.device-signature/area/silabs/SignatureArea.o
                                                  build/tsb0//home/karl/node-apps/zoo/thinnect.device-signature/signature/DeviceSignature.o
                                                  build/tsb0//home/karl/node-apps/zoo/thinnect.cmsis-freertos/CMSIS-FreeRTOS/CMSIS/RTOS2/FreeRTOS/Source/cmsis_os2.o
                                                  build/tsb0//home/karl/node-apps/zoo/FreeRTOS-Kernel/stream_buffer.o
                                                  build/tsb0//home/karl/node-apps/zoo/FreeRTOS-Kernel/queue.o
memmove                                           /usr/lib/gcc/arm-none-eabi/9.2.1/../../../arm-none-eabi/lib/thumb/v7e-m+fp/softfp/libg.a(lib_a-memmove.o)
                                                  /usr/lib/gcc/arm-none-eabi/9.2.1/../../../arm-none-eabi/lib/thumb/v7e-m+fp/softfp/libg.a(lib_a-svfiprintf.o)
                                                  /usr/lib/gcc/arm-none-eabi/9.2.1/../../../arm-none-eabi/lib/thumb/v7e-m+fp/softfp/libg.a(lib_a-reallocr.o)
                                                  /usr/lib/gcc/arm-none-eabi/9.2.1/../../../arm-none-eabi/lib/thumb/v7e-m+fp/softfp/libg.a(lib_a-fvwrite.o)
memset                                            /usr/lib/gcc/arm-none-eabi/9.2.1/../../../arm-none-eabi/lib/thumb/v7e-m+fp/softfp/libg.a(lib_a-memset.o)
                                                  /usr/lib/gcc/arm-none-eabi/9.2.1/../../../arm-none-eabi/lib/thumb/v7e-m+fp/softfp/libg.a(lib_a-callocr.o)
                                                  /usr/lib/gcc/arm-none-eabi/9.2.1/../../../arm-none-eabi/lib/thumb/v7e-m+fp/softfp/libg.a(lib_a-findfp.o)
                                                  build/tsb0//home/karl/node-apps/zoo/thinnect.device-signature/signature/DeviceSignature.o
                                                  build/tsb0//home/karl/node-apps/zoo/FreeRTOS-Kernel/tasks.o
                                                  build/tsb0//home/karl/node-apps/zoo/FreeRTOS-Kernel/stream_buffer.o
                                                  build/tsb0/blink_pwm_main.o
osDelay                                           build/tsb0//home/karl/node-apps/zoo/thinnect.cmsis-freertos/CMSIS-FreeRTOS/CMSIS/RTOS2/FreeRTOS/Source/cmsis_os2.o
                                                  build/tsb0/blink_pwm_main.o
osDelayUntil                                      build/tsb0//home/karl/node-apps/zoo/thinnect.cmsis-freertos/CMSIS-FreeRTOS/CMSIS/RTOS2/FreeRTOS/Source/cmsis_os2.o
osEventFlagsClear                                 build/tsb0//home/karl/node-apps/zoo/thinnect.cmsis-freertos/CMSIS-FreeRTOS/CMSIS/RTOS2/FreeRTOS/Source/cmsis_os2.o
osEventFlagsDelete                                build/tsb0//home/karl/node-apps/zoo/thinnect.cmsis-freertos/CMSIS-FreeRTOS/CMSIS/RTOS2/FreeRTOS/Source/cmsis_os2.o
osEventFlagsGet                                   build/tsb0//home/karl/node-apps/zoo/thinnect.cmsis-freertos/CMSIS-FreeRTOS/CMSIS/RTOS2/FreeRTOS/Source/cmsis_os2.o
osEventFlagsNew                                   build/tsb0//home/karl/node-apps/zoo/thinnect.cmsis-freertos/CMSIS-FreeRTOS/CMSIS/RTOS2/FreeRTOS/Source/cmsis_os2.o
osEventFlagsSet                                   build/tsb0//home/karl/node-apps/zoo/thinnect.cmsis-freertos/CMSIS-FreeRTOS/CMSIS/RTOS2/FreeRTOS/Source/cmsis_os2.o
osEventFlagsWait                                  build/tsb0//home/karl/node-apps/zoo/thinnect.cmsis-freertos/CMSIS-FreeRTOS/CMSIS/RTOS2/FreeRTOS/Source/cmsis_os2.o
osKernelGetInfo                                   build/tsb0//home/karl/node-apps/zoo/thinnect.cmsis-freertos/CMSIS-FreeRTOS/CMSIS/RTOS2/FreeRTOS/Source/cmsis_os2.o
osKernelGetState                                  build/tsb0//home/karl/node-apps/zoo/thinnect.cmsis-freertos/CMSIS-FreeRTOS/CMSIS/RTOS2/FreeRTOS/Source/cmsis_os2.o
                                                  build/tsb0/blink_pwm_main.o
osKernelGetSysTimerCount                          build/tsb0//home/karl/node-apps/zoo/thinnect.cmsis-freertos/CMSIS-FreeRTOS/CMSIS/RTOS2/FreeRTOS/Source/cmsis_os2.o
osKernelGetSysTimerFreq                           build/tsb0//home/karl/node-apps/zoo/thinnect.cmsis-freertos/CMSIS-FreeRTOS/CMSIS/RTOS2/FreeRTOS/Source/cmsis_os2.o
osKernelGetTickCount                              build/tsb0//home/karl/node-apps/zoo/thinnect.cmsis-freertos/CMSIS-FreeRTOS/CMSIS/RTOS2/FreeRTOS/Source/cmsis_os2.o
osKernelGetTickFreq                               build/tsb0//home/karl/node-apps/zoo/thinnect.cmsis-freertos/CMSIS-FreeRTOS/CMSIS/RTOS2/FreeRTOS/Source/cmsis_os2.o
osKernelInitialize                                build/tsb0//home/karl/node-apps/zoo/thinnect.cmsis-freertos/CMSIS-FreeRTOS/CMSIS/RTOS2/FreeRTOS/Source/cmsis_os2.o
                                                  build/tsb0/blink_pwm_main.o
osKernelLock                                      build/tsb0//home/karl/node-apps/zoo/thinnect.cmsis-freertos/CMSIS-FreeRTOS/CMSIS/RTOS2/FreeRTOS/Source/cmsis_os2.o
osKernelRestoreLock                               build/tsb0//home/karl/node-apps/zoo/thinnect.cmsis-freertos/CMSIS-FreeRTOS/CMSIS/RTOS2/FreeRTOS/Source/cmsis_os2.o
osKernelStart                                     build/tsb0//home/karl/node-apps/zoo/thinnect.cmsis-freertos/CMSIS-FreeRTOS/CMSIS/RTOS2/FreeRTOS/Source/cmsis_os2.o
                                                  build/tsb0/blink_pwm_main.o
osKernelUnlock                                    build/tsb0//home/karl/node-apps/zoo/thinnect.cmsis-freertos/CMSIS-FreeRTOS/CMSIS/RTOS2/FreeRTOS/Source/cmsis_os2.o
osMemoryPoolAlloc                                 build/tsb0//home/karl/node-apps/zoo/thinnect.cmsis-freertos/CMSIS-FreeRTOS/CMSIS/RTOS2/FreeRTOS/Source/cmsis_os2.o
osMemoryPoolDelete                                build/tsb0//home/karl/node-apps/zoo/thinnect.cmsis-freertos/CMSIS-FreeRTOS/CMSIS/RTOS2/FreeRTOS/Source/cmsis_os2.o
osMemoryPoolFree                                  build/tsb0//home/karl/node-apps/zoo/thinnect.cmsis-freertos/CMSIS-FreeRTOS/CMSIS/RTOS2/FreeRTOS/Source/cmsis_os2.o
osMemoryPoolGetBlockSize                          build/tsb0//home/karl/node-apps/zoo/thinnect.cmsis-freertos/CMSIS-FreeRTOS/CMSIS/RTOS2/FreeRTOS/Source/cmsis_os2.o
osMemoryPoolGetCapacity                           build/tsb0//home/karl/node-apps/zoo/thinnect.cmsis-freertos/CMSIS-FreeRTOS/CMSIS/RTOS2/FreeRTOS/Source/cmsis_os2.o
osMemoryPoolGetCount                              build/tsb0//home/karl/node-apps/zoo/thinnect.cmsis-freertos/CMSIS-FreeRTOS/CMSIS/RTOS2/FreeRTOS/Source/cmsis_os2.o
osMemoryPoolGetName                               build/tsb0//home/karl/node-apps/zoo/thinnect.cmsis-freertos/CMSIS-FreeRTOS/CMSIS/RTOS2/FreeRTOS/Source/cmsis_os2.o
osMemoryPoolGetSpace                              build/tsb0//home/karl/node-apps/zoo/thinnect.cmsis-freertos/CMSIS-FreeRTOS/CMSIS/RTOS2/FreeRTOS/Source/cmsis_os2.o
osMemoryPoolNew                                   build/tsb0//home/karl/node-apps/zoo/thinnect.cmsis-freertos/CMSIS-FreeRTOS/CMSIS/RTOS2/FreeRTOS/Source/cmsis_os2.o
osMessageQueueDelete                              build/tsb0//home/karl/node-apps/zoo/thinnect.cmsis-freertos/CMSIS-FreeRTOS/CMSIS/RTOS2/FreeRTOS/Source/cmsis_os2.o
osMessageQueueGet                                 build/tsb0//home/karl/node-apps/zoo/thinnect.cmsis-freertos/CMSIS-FreeRTOS/CMSIS/RTOS2/FreeRTOS/Source/cmsis_os2.o
osMessageQueueGetCapacity                         build/tsb0//home/karl/node-apps/zoo/thinnect.cmsis-freertos/CMSIS-FreeRTOS/CMSIS/RTOS2/FreeRTOS/Source/cmsis_os2.o
osMessageQueueGetCount                            build/tsb0//home/karl/node-apps/zoo/thinnect.cmsis-freertos/CMSIS-FreeRTOS/CMSIS/RTOS2/FreeRTOS/Source/cmsis_os2.o
osMessageQueueGetMsgSize                          build/tsb0//home/karl/node-apps/zoo/thinnect.cmsis-freertos/CMSIS-FreeRTOS/CMSIS/RTOS2/FreeRTOS/Source/cmsis_os2.o
osMessageQueueGetSpace                            build/tsb0//home/karl/node-apps/zoo/thinnect.cmsis-freertos/CMSIS-FreeRTOS/CMSIS/RTOS2/FreeRTOS/Source/cmsis_os2.o
osMessageQueueNew                                 build/tsb0//home/karl/node-apps/zoo/thinnect.cmsis-freertos/CMSIS-FreeRTOS/CMSIS/RTOS2/FreeRTOS/Source/cmsis_os2.o
osMessageQueuePut                                 build/tsb0//home/karl/node-apps/zoo/thinnect.cmsis-freertos/CMSIS-FreeRTOS/CMSIS/RTOS2/FreeRTOS/Source/cmsis_os2.o
osMessageQueueReset                               build/tsb0//home/karl/node-apps/zoo/thinnect.cmsis-freertos/CMSIS-FreeRTOS/CMSIS/RTOS2/FreeRTOS/Source/cmsis_os2.o
osMutexAcquire                                    build/tsb0//home/karl/node-apps/zoo/thinnect.cmsis-freertos/CMSIS-FreeRTOS/CMSIS/RTOS2/FreeRTOS/Source/cmsis_os2.o
                                                  build/tsb0//home/karl/node-apps/zoo/thinnect.node-platform/silabs/logger_fwrite.o
                                                  build/tsb0/blink_pwm_main.o
osMutexDelete                                     build/tsb0//home/karl/node-apps/zoo/thinnect.cmsis-freertos/CMSIS-FreeRTOS/CMSIS/RTOS2/FreeRTOS/Source/cmsis_os2.o
osMutexGetOwner                                   build/tsb0//home/karl/node-apps/zoo/thinnect.cmsis-freertos/CMSIS-FreeRTOS/CMSIS/RTOS2/FreeRTOS/Source/cmsis_os2.o
osMutexNew                                        build/tsb0//home/karl/node-apps/zoo/thinnect.cmsis-freertos/CMSIS-FreeRTOS/CMSIS/RTOS2/FreeRTOS/Source/cmsis_os2.o
                                                  build/tsb0//home/karl/node-apps/zoo/thinnect.node-platform/silabs/logger_fwrite.o
                                                  build/tsb0/blink_pwm_main.o
osMutexRelease                                    build/tsb0//home/karl/node-apps/zoo/thinnect.cmsis-freertos/CMSIS-FreeRTOS/CMSIS/RTOS2/FreeRTOS/Source/cmsis_os2.o
                                                  build/tsb0//home/karl/node-apps/zoo/thinnect.node-platform/silabs/logger_fwrite.o
                                                  build/tsb0/blink_pwm_main.o
osSemaphoreAcquire                                build/tsb0//home/karl/node-apps/zoo/thinnect.cmsis-freertos/CMSIS-FreeRTOS/CMSIS/RTOS2/FreeRTOS/Source/cmsis_os2.o
osSemaphoreDelete                                 build/tsb0//home/karl/node-apps/zoo/thinnect.cmsis-freertos/CMSIS-FreeRTOS/CMSIS/RTOS2/FreeRTOS/Source/cmsis_os2.o
osSemaphoreGetCount                               build/tsb0//home/karl/node-apps/zoo/thinnect.cmsis-freertos/CMSIS-FreeRTOS/CMSIS/RTOS2/FreeRTOS/Source/cmsis_os2.o
osSemaphoreNew                                    build/tsb0//home/karl/node-apps/zoo/thinnect.cmsis-freertos/CMSIS-FreeRTOS/CMSIS/RTOS2/FreeRTOS/Source/cmsis_os2.o
osSemaphoreRelease                                build/tsb0//home/karl/node-apps/zoo/thinnect.cmsis-freertos/CMSIS-FreeRTOS/CMSIS/RTOS2/FreeRTOS/Source/cmsis_os2.o
osThreadEnumerate                                 build/tsb0//home/karl/node-apps/zoo/thinnect.cmsis-freertos/CMSIS-FreeRTOS/CMSIS/RTOS2/FreeRTOS/Source/cmsis_os2.o
osThreadExit                                      build/tsb0//home/karl/node-apps/zoo/thinnect.cmsis-freertos/CMSIS-FreeRTOS/CMSIS/RTOS2/FreeRTOS/Source/cmsis_os2.o
osThreadFlagsClear                                build/tsb0//home/karl/node-apps/zoo/thinnect.cmsis-freertos/CMSIS-FreeRTOS/CMSIS/RTOS2/FreeRTOS/Source/cmsis_os2.o
osThreadFlagsGet                                  build/tsb0//home/karl/node-apps/zoo/thinnect.cmsis-freertos/CMSIS-FreeRTOS/CMSIS/RTOS2/FreeRTOS/Source/cmsis_os2.o
osThreadFlagsSet                                  build/tsb0//home/karl/node-apps/zoo/thinnect.cmsis-freertos/CMSIS-FreeRTOS/CMSIS/RTOS2/FreeRTOS/Source/cmsis_os2.o
osThreadFlagsWait                                 build/tsb0//home/karl/node-apps/zoo/thinnect.cmsis-freertos/CMSIS-FreeRTOS/CMSIS/RTOS2/FreeRTOS/Source/cmsis_os2.o
osThreadGetCount                                  build/tsb0//home/karl/node-apps/zoo/thinnect.cmsis-freertos/CMSIS-FreeRTOS/CMSIS/RTOS2/FreeRTOS/Source/cmsis_os2.o
osThreadGetId                                     build/tsb0//home/karl/node-apps/zoo/thinnect.cmsis-freertos/CMSIS-FreeRTOS/CMSIS/RTOS2/FreeRTOS/Source/cmsis_os2.o
osThreadGetName                                   build/tsb0//home/karl/node-apps/zoo/thinnect.cmsis-freertos/CMSIS-FreeRTOS/CMSIS/RTOS2/FreeRTOS/Source/cmsis_os2.o
osThreadGetPriority                               build/tsb0//home/karl/node-apps/zoo/thinnect.cmsis-freertos/CMSIS-FreeRTOS/CMSIS/RTOS2/FreeRTOS/Source/cmsis_os2.o
osThreadGetStackSpace                             build/tsb0//home/karl/node-apps/zoo/thinnect.cmsis-freertos/CMSIS-FreeRTOS/CMSIS/RTOS2/FreeRTOS/Source/cmsis_os2.o
osThreadGetState                                  build/tsb0//home/karl/node-apps/zoo/thinnect.cmsis-freertos/CMSIS-FreeRTOS/CMSIS/RTOS2/FreeRTOS/Source/cmsis_os2.o
osThreadNew                                       build/tsb0//home/karl/node-apps/zoo/thinnect.cmsis-freertos/CMSIS-FreeRTOS/CMSIS/RTOS2/FreeRTOS/Source/cmsis_os2.o
                                                  build/tsb0/blink_pwm_main.o
osThreadResume                                    build/tsb0//home/karl/node-apps/zoo/thinnect.cmsis-freertos/CMSIS-FreeRTOS/CMSIS/RTOS2/FreeRTOS/Source/cmsis_os2.o
osThreadSetPriority                               build/tsb0//home/karl/node-apps/zoo/thinnect.cmsis-freertos/CMSIS-FreeRTOS/CMSIS/RTOS2/FreeRTOS/Source/cmsis_os2.o
osThreadSuspend                                   build/tsb0//home/karl/node-apps/zoo/thinnect.cmsis-freertos/CMSIS-FreeRTOS/CMSIS/RTOS2/FreeRTOS/Source/cmsis_os2.o
osThreadTerminate                                 build/tsb0//home/karl/node-apps/zoo/thinnect.cmsis-freertos/CMSIS-FreeRTOS/CMSIS/RTOS2/FreeRTOS/Source/cmsis_os2.o
osThreadYield                                     build/tsb0//home/karl/node-apps/zoo/thinnect.cmsis-freertos/CMSIS-FreeRTOS/CMSIS/RTOS2/FreeRTOS/Source/cmsis_os2.o
osTimerDelete                                     build/tsb0//home/karl/node-apps/zoo/thinnect.cmsis-freertos/CMSIS-FreeRTOS/CMSIS/RTOS2/FreeRTOS/Source/cmsis_os2.o
osTimerGetName                                    build/tsb0//home/karl/node-apps/zoo/thinnect.cmsis-freertos/CMSIS-FreeRTOS/CMSIS/RTOS2/FreeRTOS/Source/cmsis_os2.o
osTimerIsRunning                                  build/tsb0//home/karl/node-apps/zoo/thinnect.cmsis-freertos/CMSIS-FreeRTOS/CMSIS/RTOS2/FreeRTOS/Source/cmsis_os2.o
osTimerNew                                        build/tsb0//home/karl/node-apps/zoo/thinnect.cmsis-freertos/CMSIS-FreeRTOS/CMSIS/RTOS2/FreeRTOS/Source/cmsis_os2.o
                                                  build/tsb0/blink_pwm_main.o
osTimerStart                                      build/tsb0//home/karl/node-apps/zoo/thinnect.cmsis-freertos/CMSIS-FreeRTOS/CMSIS/RTOS2/FreeRTOS/Source/cmsis_os2.o
                                                  build/tsb0/blink_pwm_main.o
osTimerStop                                       build/tsb0//home/karl/node-apps/zoo/thinnect.cmsis-freertos/CMSIS-FreeRTOS/CMSIS/RTOS2/FreeRTOS/Source/cmsis_os2.o
pcTaskGetName                                     build/tsb0//home/karl/node-apps/zoo/FreeRTOS-Kernel/tasks.o
                                                  build/tsb0//home/karl/node-apps/zoo/thinnect.cmsis-freertos/CMSIS-FreeRTOS/CMSIS/RTOS2/FreeRTOS/Source/cmsis_os2.o
pcTimerGetName                                    build/tsb0//home/karl/node-apps/zoo/FreeRTOS-Kernel/timers.o
                                                  build/tsb0//home/karl/node-apps/zoo/thinnect.cmsis-freertos/CMSIS-FreeRTOS/CMSIS/RTOS2/FreeRTOS/Source/cmsis_os2.o
pvPortMalloc                                      build/tsb0//home/karl/node-apps/zoo/FreeRTOS-Kernel/portable/MemMang/heap_5.o
                                                  build/tsb0//home/karl/node-apps/zoo/thinnect.cmsis-freertos/CMSIS-FreeRTOS/CMSIS/RTOS2/FreeRTOS/Source/cmsis_os2.o
                                                  build/tsb0//home/karl/node-apps/zoo/FreeRTOS-Kernel/timers.o
                                                  build/tsb0//home/karl/node-apps/zoo/FreeRTOS-Kernel/tasks.o
                                                  build/tsb0//home/karl/node-apps/zoo/FreeRTOS-Kernel/event_groups.o
                                                  build/tsb0//home/karl/node-apps/zoo/FreeRTOS-Kernel/stream_buffer.o
                                                  build/tsb0//home/karl/node-apps/zoo/FreeRTOS-Kernel/queue.o
pvTaskIncrementMutexHeldCount                     build/tsb0//home/karl/node-apps/zoo/FreeRTOS-Kernel/tasks.o
                                                  build/tsb0//home/karl/node-apps/zoo/FreeRTOS-Kernel/queue.o
pvTimerGetTimerID                                 build/tsb0//home/karl/node-apps/zoo/FreeRTOS-Kernel/timers.o
                                                  build/tsb0//home/karl/node-apps/zoo/thinnect.cmsis-freertos/CMSIS-FreeRTOS/CMSIS/RTOS2/FreeRTOS/Source/cmsis_os2.o
pxCurrentTCB                                      build/tsb0//home/karl/node-apps/zoo/FreeRTOS-Kernel/tasks.o
                                                  build/tsb0//home/karl/node-apps/zoo/FreeRTOS-Kernel/portable/GCC/ARM_CM4F/port.o
pxPortInitialiseStack                             build/tsb0//home/karl/node-apps/zoo/FreeRTOS-Kernel/portable/GCC/ARM_CM4F/port.o
                                                  build/tsb0//home/karl/node-apps/zoo/FreeRTOS-Kernel/tasks.o
raise                                             /usr/lib/gcc/arm-none-eabi/9.2.1/../../../arm-none-eabi/lib/thumb/v7e-m+fp/softfp/libg.a(lib_a-signal.o)
                                                  /usr/lib/gcc/arm-none-eabi/9.2.1/../../../arm-none-eabi/lib/thumb/v7e-m+fp/softfp/libg.a(lib_a-abort.o)
set_leds_pwm                                      build/tsb0/timer_handler.o
                                                  build/tsb0/blink_pwm_main.o
setlocale                                         /usr/lib/gcc/arm-none-eabi/9.2.1/../../../arm-none-eabi/lib/thumb/v7e-m+fp/softfp/libg.a(lib_a-locale.o)
setvbuf                                           /usr/lib/gcc/arm-none-eabi/9.2.1/../../../arm-none-eabi/lib/thumb/v7e-m+fp/softfp/libg.a(lib_a-setvbuf.o)
                                                  build/tsb0//home/karl/SimplicityStudio_v5/developer/sdks/gecko_sdk_suite/v3.2/hardware/kit/common/drivers/retargetserial.o
sigAreaGetSize                                    build/tsb0//home/karl/node-apps/zoo/thinnect.device-signature/area/silabs/SignatureArea.o
                                                  build/tsb0//home/karl/node-apps/zoo/thinnect.device-signature/signature/DeviceSignature.o
sigAreaRead                                       build/tsb0//home/karl/node-apps/zoo/thinnect.device-signature/area/silabs/SignatureArea.o
                                                  build/tsb0//home/karl/node-apps/zoo/thinnect.device-signature/signature/DeviceSignature.o
sigAreaReadByte                                   build/tsb0//home/karl/node-apps/zoo/thinnect.device-signature/area/silabs/SignatureArea.o
                                                  build/tsb0//home/karl/node-apps/zoo/thinnect.device-signature/signature/DeviceSignature.o
sigFirstComponent                                 build/tsb0//home/karl/node-apps/zoo/thinnect.device-signature/signature/DeviceSignature.o
sigFirstElement                                   build/tsb0//home/karl/node-apps/zoo/thinnect.device-signature/signature/DeviceSignature.o
sigGetBoardManufacturerUUID                       build/tsb0//home/karl/node-apps/zoo/thinnect.device-signature/signature/DeviceSignature.o
sigGetBoardName                                   build/tsb0//home/karl/node-apps/zoo/thinnect.device-signature/signature/DeviceSignature.o
sigGetBoardProductionTime                         build/tsb0//home/karl/node-apps/zoo/thinnect.device-signature/signature/DeviceSignature.o
sigGetBoardSerial                                 build/tsb0//home/karl/node-apps/zoo/thinnect.device-signature/signature/DeviceSignature.o
sigGetBoardUUID                                   build/tsb0//home/karl/node-apps/zoo/thinnect.device-signature/signature/DeviceSignature.o
sigGetBoardVersion                                build/tsb0//home/karl/node-apps/zoo/thinnect.device-signature/signature/DeviceSignature.o
sigGetComponentData                               build/tsb0//home/karl/node-apps/zoo/thinnect.device-signature/signature/DeviceSignature.o
sigGetComponentDataLength                         build/tsb0//home/karl/node-apps/zoo/thinnect.device-signature/signature/DeviceSignature.o
sigGetComponentManufacturerUUID                   build/tsb0//home/karl/node-apps/zoo/thinnect.device-signature/signature/DeviceSignature.o
sigGetComponentName                               build/tsb0//home/karl/node-apps/zoo/thinnect.device-signature/signature/DeviceSignature.o
sigGetComponentPosition                           build/tsb0//home/karl/node-apps/zoo/thinnect.device-signature/signature/DeviceSignature.o
sigGetComponentProductionTime                     build/tsb0//home/karl/node-apps/zoo/thinnect.device-signature/signature/DeviceSignature.o
sigGetComponentSerial                             build/tsb0//home/karl/node-apps/zoo/thinnect.device-signature/signature/DeviceSignature.o
sigGetComponentUUID                               build/tsb0//home/karl/node-apps/zoo/thinnect.device-signature/signature/DeviceSignature.o
sigGetComponentVersion                            build/tsb0//home/karl/node-apps/zoo/thinnect.device-signature/signature/DeviceSignature.o
sigGetElementData                                 build/tsb0//home/karl/node-apps/zoo/thinnect.device-signature/signature/DeviceSignature.o
sigGetElementDataLength                           build/tsb0//home/karl/node-apps/zoo/thinnect.device-signature/signature/DeviceSignature.o
sigGetElementManufacturerUUID                     build/tsb0//home/karl/node-apps/zoo/thinnect.device-signature/signature/DeviceSignature.o
sigGetElementName                                 build/tsb0//home/karl/node-apps/zoo/thinnect.device-signature/signature/DeviceSignature.o
sigGetElementPosition                             build/tsb0//home/karl/node-apps/zoo/thinnect.device-signature/signature/DeviceSignature.o
sigGetElementProductionTime                       build/tsb0//home/karl/node-apps/zoo/thinnect.device-signature/signature/DeviceSignature.o
sigGetElementSerial                               build/tsb0//home/karl/node-apps/zoo/thinnect.device-signature/signature/DeviceSignature.o
sigGetElementUUID                                 build/tsb0//home/karl/node-apps/zoo/thinnect.device-signature/signature/DeviceSignature.o
sigGetElementVersion                              build/tsb0//home/karl/node-apps/zoo/thinnect.device-signature/signature/DeviceSignature.o
sigGetEui64                                       build/tsb0//home/karl/node-apps/zoo/thinnect.device-signature/signature/DeviceSignature.o
sigGetNodeId                                      build/tsb0//home/karl/node-apps/zoo/thinnect.device-signature/signature/DeviceSignature.o
sigGetPlatformManufacturerUUID                    build/tsb0//home/karl/node-apps/zoo/thinnect.device-signature/signature/DeviceSignature.o
sigGetPlatformName                                build/tsb0//home/karl/node-apps/zoo/thinnect.device-signature/signature/DeviceSignature.o
sigGetPlatformProductionTime                      build/tsb0//home/karl/node-apps/zoo/thinnect.device-signature/signature/DeviceSignature.o
sigGetPlatformSerial                              build/tsb0//home/karl/node-apps/zoo/thinnect.device-signature/signature/DeviceSignature.o
sigGetPlatformUUID                                build/tsb0//home/karl/node-apps/zoo/thinnect.device-signature/signature/DeviceSignature.o
sigGetPlatformVersion                             build/tsb0//home/karl/node-apps/zoo/thinnect.device-signature/signature/DeviceSignature.o
sigGetSignatureVersion                            build/tsb0//home/karl/node-apps/zoo/thinnect.device-signature/signature/DeviceSignature.o
sigInit                                           build/tsb0//home/karl/node-apps/zoo/thinnect.device-signature/signature/DeviceSignature.o
sigNextComponent                                  build/tsb0//home/karl/node-apps/zoo/thinnect.device-signature/signature/DeviceSignature.o
sigNextElement                                    build/tsb0//home/karl/node-apps/zoo/thinnect.device-signature/signature/DeviceSignature.o
sigSetEui64                                       build/tsb0//home/karl/node-apps/zoo/thinnect.device-signature/signature/DeviceSignature.o
signal                                            /usr/lib/gcc/arm-none-eabi/9.2.1/../../../arm-none-eabi/lib/thumb/v7e-m+fp/softfp/libg.a(lib_a-signal.o)
sl_app_properties                                 build/tsb0//home/karl/SimplicityStudio_v5/developer/sdks/gecko_sdk_suite/v3.2/platform/Device/SiliconLabs/EFR32MG12P/Source/GCC/startup_efr32mg12p.o
snprintf                                          /usr/lib/gcc/arm-none-eabi/9.2.1/../../../arm-none-eabi/lib/thumb/v7e-m+fp/softfp/libg.a(lib_a-snprintf.o)
                                                  build/tsb0//home/karl/node-apps/zoo/thinnect.lll/logging/loggers_ext.o
start_fading_leds_loop                            build/tsb0/timer_handler.o
                                                  build/tsb0/blink_pwm_main.o
strcmp                                            /usr/lib/gcc/arm-none-eabi/9.2.1/../../../arm-none-eabi/lib/thumb/v7e-m+fp/softfp/libg.a(lib_a-strcmp.o)
                                                  /usr/lib/gcc/arm-none-eabi/9.2.1/../../../arm-none-eabi/lib/thumb/v7e-m+fp/softfp/libg.a(lib_a-locale.o)
strlen                                            /usr/lib/gcc/arm-none-eabi/9.2.1/../../../arm-none-eabi/lib/thumb/v7e-m+fp/softfp/libg.a(lib_a-strlen.o)
                                                  /usr/lib/gcc/arm-none-eabi/9.2.1/../../../arm-none-eabi/lib/thumb/v7e-m+fp/softfp/libg.a(lib_a-vfiprintf.o)
                                                  /usr/lib/gcc/arm-none-eabi/9.2.1/../../../arm-none-eabi/lib/thumb/v7e-m+fp/softfp/libg.a(lib_a-svfiprintf.o)
                                                  /usr/lib/gcc/arm-none-eabi/9.2.1/../../../arm-none-eabi/lib/thumb/v7e-m+fp/softfp/libg.a(lib_a-svfprintf.o)
timer0_cc_init                                    build/tsb0/timer_handler.o
                                                  build/tsb0/blink_pwm_main.o
timer1_init                                       build/tsb0/timer_handler.o
                                                  build/tsb0/blink_pwm_main.o
ucQueueGetQueueType                               build/tsb0//home/karl/node-apps/zoo/FreeRTOS-Kernel/queue.o
ucStreamBufferGetStreamBufferType                 build/tsb0//home/karl/node-apps/zoo/FreeRTOS-Kernel/stream_buffer.o
ulTaskNotifyTake                                  build/tsb0//home/karl/node-apps/zoo/FreeRTOS-Kernel/tasks.o
ulTaskNotifyValueClear                            build/tsb0//home/karl/node-apps/zoo/FreeRTOS-Kernel/tasks.o
update_crc_ccitt                                  build/tsb0//home/karl/node-apps/zoo/lammertb.libcrc/src/crcccitt.o
                                                  build/tsb0//home/karl/node-apps/zoo/thinnect.device-signature/signature/DeviceSignature.o
uxEventGroupGetNumber                             build/tsb0//home/karl/node-apps/zoo/FreeRTOS-Kernel/event_groups.o
uxListRemove                                      build/tsb0//home/karl/node-apps/zoo/FreeRTOS-Kernel/list.o
                                                  build/tsb0//home/karl/node-apps/zoo/FreeRTOS-Kernel/timers.o
                                                  build/tsb0//home/karl/node-apps/zoo/FreeRTOS-Kernel/tasks.o
uxQueueGetQueueNumber                             build/tsb0//home/karl/node-apps/zoo/FreeRTOS-Kernel/queue.o
uxQueueMessagesWaiting                            build/tsb0//home/karl/node-apps/zoo/FreeRTOS-Kernel/queue.o
                                                  build/tsb0//home/karl/node-apps/zoo/thinnect.cmsis-freertos/CMSIS-FreeRTOS/CMSIS/RTOS2/FreeRTOS/Source/cmsis_os2.o
uxQueueMessagesWaitingFromISR                     build/tsb0//home/karl/node-apps/zoo/FreeRTOS-Kernel/queue.o
                                                  build/tsb0//home/karl/node-apps/zoo/thinnect.cmsis-freertos/CMSIS-FreeRTOS/CMSIS/RTOS2/FreeRTOS/Source/cmsis_os2.o
uxQueueSpacesAvailable                            build/tsb0//home/karl/node-apps/zoo/FreeRTOS-Kernel/queue.o
                                                  build/tsb0//home/karl/node-apps/zoo/thinnect.cmsis-freertos/CMSIS-FreeRTOS/CMSIS/RTOS2/FreeRTOS/Source/cmsis_os2.o
uxStreamBufferGetStreamBufferNumber               build/tsb0//home/karl/node-apps/zoo/FreeRTOS-Kernel/stream_buffer.o
uxTaskGetNumberOfTasks                            build/tsb0//home/karl/node-apps/zoo/FreeRTOS-Kernel/tasks.o
                                                  build/tsb0//home/karl/node-apps/zoo/thinnect.cmsis-freertos/CMSIS-FreeRTOS/CMSIS/RTOS2/FreeRTOS/Source/cmsis_os2.o
uxTaskGetStackHighWaterMark                       build/tsb0//home/karl/node-apps/zoo/FreeRTOS-Kernel/tasks.o
                                                  build/tsb0//home/karl/node-apps/zoo/thinnect.cmsis-freertos/CMSIS-FreeRTOS/CMSIS/RTOS2/FreeRTOS/Source/cmsis_os2.o
uxTaskGetSystemState                              build/tsb0//home/karl/node-apps/zoo/FreeRTOS-Kernel/tasks.o
                                                  build/tsb0//home/karl/node-apps/zoo/thinnect.cmsis-freertos/CMSIS-FreeRTOS/CMSIS/RTOS2/FreeRTOS/Source/cmsis_os2.o
uxTaskGetTaskNumber                               build/tsb0//home/karl/node-apps/zoo/FreeRTOS-Kernel/tasks.o
uxTaskPriorityGet                                 build/tsb0//home/karl/node-apps/zoo/FreeRTOS-Kernel/tasks.o
                                                  build/tsb0//home/karl/node-apps/zoo/thinnect.cmsis-freertos/CMSIS-FreeRTOS/CMSIS/RTOS2/FreeRTOS/Source/cmsis_os2.o
uxTaskPriorityGetFromISR                          build/tsb0//home/karl/node-apps/zoo/FreeRTOS-Kernel/tasks.o
uxTaskResetEventItemValue                         build/tsb0//home/karl/node-apps/zoo/FreeRTOS-Kernel/tasks.o
                                                  build/tsb0//home/karl/node-apps/zoo/FreeRTOS-Kernel/event_groups.o
uxTimerGetReloadMode                              build/tsb0//home/karl/node-apps/zoo/FreeRTOS-Kernel/timers.o
uxTimerGetTimerNumber                             build/tsb0//home/karl/node-apps/zoo/FreeRTOS-Kernel/timers.o
vApplicationGetIdleTaskMemory                     build/tsb0//home/karl/node-apps/zoo/thinnect.cmsis-freertos/CMSIS-FreeRTOS/CMSIS/RTOS2/FreeRTOS/Source/cmsis_os2.o
                                                  build/tsb0//home/karl/node-apps/zoo/FreeRTOS-Kernel/tasks.o
vApplicationGetTimerTaskMemory                    build/tsb0//home/karl/node-apps/zoo/thinnect.cmsis-freertos/CMSIS-FreeRTOS/CMSIS/RTOS2/FreeRTOS/Source/cmsis_os2.o
                                                  build/tsb0//home/karl/node-apps/zoo/FreeRTOS-Kernel/timers.o
vApplicationStackOverflowHook                     build/tsb0//home/karl/node-apps/zoo/thinnect.cmsis-freertos/CMSIS-FreeRTOS/CMSIS/RTOS2/FreeRTOS/Source/cmsis_os2.o
                                                  build/tsb0//home/karl/node-apps/zoo/FreeRTOS-Kernel/tasks.o
vEventGroupClearBitsCallback                      build/tsb0//home/karl/node-apps/zoo/FreeRTOS-Kernel/event_groups.o
vEventGroupDelete                                 build/tsb0//home/karl/node-apps/zoo/FreeRTOS-Kernel/event_groups.o
                                                  build/tsb0//home/karl/node-apps/zoo/thinnect.cmsis-freertos/CMSIS-FreeRTOS/CMSIS/RTOS2/FreeRTOS/Source/cmsis_os2.o
vEventGroupSetBitsCallback                        build/tsb0//home/karl/node-apps/zoo/FreeRTOS-Kernel/event_groups.o
vEventGroupSetNumber                              build/tsb0//home/karl/node-apps/zoo/FreeRTOS-Kernel/event_groups.o
vListInitialise                                   build/tsb0//home/karl/node-apps/zoo/FreeRTOS-Kernel/list.o
                                                  build/tsb0//home/karl/node-apps/zoo/FreeRTOS-Kernel/timers.o
                                                  build/tsb0//home/karl/node-apps/zoo/FreeRTOS-Kernel/tasks.o
                                                  build/tsb0//home/karl/node-apps/zoo/FreeRTOS-Kernel/event_groups.o
                                                  build/tsb0//home/karl/node-apps/zoo/FreeRTOS-Kernel/queue.o
vListInitialiseItem                               build/tsb0//home/karl/node-apps/zoo/FreeRTOS-Kernel/list.o
                                                  build/tsb0//home/karl/node-apps/zoo/FreeRTOS-Kernel/timers.o
                                                  build/tsb0//home/karl/node-apps/zoo/FreeRTOS-Kernel/tasks.o
vListInsert                                       build/tsb0//home/karl/node-apps/zoo/FreeRTOS-Kernel/list.o
                                                  build/tsb0//home/karl/node-apps/zoo/FreeRTOS-Kernel/timers.o
                                                  build/tsb0//home/karl/node-apps/zoo/FreeRTOS-Kernel/tasks.o
vListInsertEnd                                    build/tsb0//home/karl/node-apps/zoo/FreeRTOS-Kernel/list.o
                                                  build/tsb0//home/karl/node-apps/zoo/FreeRTOS-Kernel/tasks.o
vPortDefineHeapRegions                            build/tsb0//home/karl/node-apps/zoo/FreeRTOS-Kernel/portable/MemMang/heap_5.o
                                                  build/tsb0//home/karl/node-apps/zoo/thinnect.cmsis-freertos/CMSIS-FreeRTOS/CMSIS/RTOS2/FreeRTOS/Source/cmsis_os2.o
vPortEndScheduler                                 build/tsb0//home/karl/node-apps/zoo/FreeRTOS-Kernel/portable/GCC/ARM_CM4F/port.o
                                                  build/tsb0//home/karl/node-apps/zoo/FreeRTOS-Kernel/tasks.o
vPortEnterCritical                                build/tsb0//home/karl/node-apps/zoo/FreeRTOS-Kernel/portable/GCC/ARM_CM4F/port.o
                                                  build/tsb0//home/karl/node-apps/zoo/thinnect.cmsis-freertos/CMSIS-FreeRTOS/CMSIS/RTOS2/FreeRTOS/Source/cmsis_os2.o
                                                  build/tsb0//home/karl/node-apps/zoo/FreeRTOS-Kernel/timers.o
                                                  build/tsb0//home/karl/node-apps/zoo/FreeRTOS-Kernel/tasks.o
                                                  build/tsb0//home/karl/node-apps/zoo/FreeRTOS-Kernel/event_groups.o
                                                  build/tsb0//home/karl/node-apps/zoo/FreeRTOS-Kernel/stream_buffer.o
                                                  build/tsb0//home/karl/node-apps/zoo/FreeRTOS-Kernel/queue.o
                                                  build/tsb0//home/karl/node-apps/zoo/FreeRTOS-Kernel/portable/MemMang/heap_5.o
vPortExitCritical                                 build/tsb0//home/karl/node-apps/zoo/FreeRTOS-Kernel/portable/GCC/ARM_CM4F/port.o
                                                  build/tsb0//home/karl/node-apps/zoo/thinnect.cmsis-freertos/CMSIS-FreeRTOS/CMSIS/RTOS2/FreeRTOS/Source/cmsis_os2.o
                                                  build/tsb0//home/karl/node-apps/zoo/FreeRTOS-Kernel/timers.o
                                                  build/tsb0//home/karl/node-apps/zoo/FreeRTOS-Kernel/tasks.o
                                                  build/tsb0//home/karl/node-apps/zoo/FreeRTOS-Kernel/event_groups.o
                                                  build/tsb0//home/karl/node-apps/zoo/FreeRTOS-Kernel/stream_buffer.o
                                                  build/tsb0//home/karl/node-apps/zoo/FreeRTOS-Kernel/queue.o
                                                  build/tsb0//home/karl/node-apps/zoo/FreeRTOS-Kernel/portable/MemMang/heap_5.o
vPortFree                                         build/tsb0//home/karl/node-apps/zoo/FreeRTOS-Kernel/portable/MemMang/heap_5.o
                                                  build/tsb0//home/karl/node-apps/zoo/thinnect.cmsis-freertos/CMSIS-FreeRTOS/CMSIS/RTOS2/FreeRTOS/Source/cmsis_os2.o
                                                  build/tsb0//home/karl/node-apps/zoo/FreeRTOS-Kernel/timers.o
                                                  build/tsb0//home/karl/node-apps/zoo/FreeRTOS-Kernel/tasks.o
                                                  build/tsb0//home/karl/node-apps/zoo/FreeRTOS-Kernel/event_groups.o
                                                  build/tsb0//home/karl/node-apps/zoo/FreeRTOS-Kernel/stream_buffer.o
                                                  build/tsb0//home/karl/node-apps/zoo/FreeRTOS-Kernel/queue.o
vPortGetHeapStats                                 build/tsb0//home/karl/node-apps/zoo/FreeRTOS-Kernel/portable/MemMang/heap_5.o
vPortSetupTimerInterrupt                          build/tsb0//home/karl/node-apps/zoo/FreeRTOS-Kernel/portable/GCC/ARM_CM4F/port.o
vPortValidateInterruptPriority                    build/tsb0//home/karl/node-apps/zoo/FreeRTOS-Kernel/portable/GCC/ARM_CM4F/port.o
                                                  build/tsb0//home/karl/node-apps/zoo/FreeRTOS-Kernel/tasks.o
                                                  build/tsb0//home/karl/node-apps/zoo/FreeRTOS-Kernel/queue.o
vQueueDelete                                      build/tsb0//home/karl/node-apps/zoo/FreeRTOS-Kernel/queue.o
                                                  build/tsb0//home/karl/node-apps/zoo/thinnect.cmsis-freertos/CMSIS-FreeRTOS/CMSIS/RTOS2/FreeRTOS/Source/cmsis_os2.o
vQueueSetQueueNumber                              build/tsb0//home/karl/node-apps/zoo/FreeRTOS-Kernel/queue.o
vQueueWaitForMessageRestricted                    build/tsb0//home/karl/node-apps/zoo/FreeRTOS-Kernel/queue.o
                                                  build/tsb0//home/karl/node-apps/zoo/FreeRTOS-Kernel/timers.o
vStreamBufferDelete                               build/tsb0//home/karl/node-apps/zoo/FreeRTOS-Kernel/stream_buffer.o
vStreamBufferSetStreamBufferNumber                build/tsb0//home/karl/node-apps/zoo/FreeRTOS-Kernel/stream_buffer.o
vTaskDelay                                        build/tsb0//home/karl/node-apps/zoo/FreeRTOS-Kernel/tasks.o
                                                  build/tsb0//home/karl/node-apps/zoo/thinnect.cmsis-freertos/CMSIS-FreeRTOS/CMSIS/RTOS2/FreeRTOS/Source/cmsis_os2.o
vTaskDelayUntil                                   build/tsb0//home/karl/node-apps/zoo/FreeRTOS-Kernel/tasks.o
                                                  build/tsb0//home/karl/node-apps/zoo/thinnect.cmsis-freertos/CMSIS-FreeRTOS/CMSIS/RTOS2/FreeRTOS/Source/cmsis_os2.o
vTaskDelete                                       build/tsb0//home/karl/node-apps/zoo/FreeRTOS-Kernel/tasks.o
                                                  build/tsb0//home/karl/node-apps/zoo/thinnect.cmsis-freertos/CMSIS-FreeRTOS/CMSIS/RTOS2/FreeRTOS/Source/cmsis_os2.o
vTaskEndScheduler                                 build/tsb0//home/karl/node-apps/zoo/FreeRTOS-Kernel/tasks.o
vTaskGetInfo                                      build/tsb0//home/karl/node-apps/zoo/FreeRTOS-Kernel/tasks.o
vTaskInternalSetTimeOutState                      build/tsb0//home/karl/node-apps/zoo/FreeRTOS-Kernel/tasks.o
                                                  build/tsb0//home/karl/node-apps/zoo/FreeRTOS-Kernel/queue.o
vTaskMissedYield                                  build/tsb0//home/karl/node-apps/zoo/FreeRTOS-Kernel/tasks.o
                                                  build/tsb0//home/karl/node-apps/zoo/FreeRTOS-Kernel/queue.o
vTaskNotifyGiveFromISR                            build/tsb0//home/karl/node-apps/zoo/FreeRTOS-Kernel/tasks.o
vTaskPlaceOnEventList                             build/tsb0//home/karl/node-apps/zoo/FreeRTOS-Kernel/tasks.o
                                                  build/tsb0//home/karl/node-apps/zoo/FreeRTOS-Kernel/queue.o
vTaskPlaceOnEventListRestricted                   build/tsb0//home/karl/node-apps/zoo/FreeRTOS-Kernel/tasks.o
                                                  build/tsb0//home/karl/node-apps/zoo/FreeRTOS-Kernel/queue.o
vTaskPlaceOnUnorderedEventList                    build/tsb0//home/karl/node-apps/zoo/FreeRTOS-Kernel/tasks.o
                                                  build/tsb0//home/karl/node-apps/zoo/FreeRTOS-Kernel/event_groups.o
vTaskPriorityDisinheritAfterTimeout               build/tsb0//home/karl/node-apps/zoo/FreeRTOS-Kernel/tasks.o
                                                  build/tsb0//home/karl/node-apps/zoo/FreeRTOS-Kernel/queue.o
vTaskPrioritySet                                  build/tsb0//home/karl/node-apps/zoo/FreeRTOS-Kernel/tasks.o
                                                  build/tsb0//home/karl/node-apps/zoo/thinnect.cmsis-freertos/CMSIS-FreeRTOS/CMSIS/RTOS2/FreeRTOS/Source/cmsis_os2.o
vTaskRemoveFromUnorderedEventList                 build/tsb0//home/karl/node-apps/zoo/FreeRTOS-Kernel/tasks.o
                                                  build/tsb0//home/karl/node-apps/zoo/FreeRTOS-Kernel/event_groups.o
vTaskResume                                       build/tsb0//home/karl/node-apps/zoo/FreeRTOS-Kernel/tasks.o
                                                  build/tsb0//home/karl/node-apps/zoo/thinnect.cmsis-freertos/CMSIS-FreeRTOS/CMSIS/RTOS2/FreeRTOS/Source/cmsis_os2.o
vTaskSetTaskNumber                                build/tsb0//home/karl/node-apps/zoo/FreeRTOS-Kernel/tasks.o
vTaskSetTimeOutState                              build/tsb0//home/karl/node-apps/zoo/FreeRTOS-Kernel/tasks.o
                                                  build/tsb0//home/karl/node-apps/zoo/FreeRTOS-Kernel/stream_buffer.o
vTaskStartScheduler                               build/tsb0//home/karl/node-apps/zoo/FreeRTOS-Kernel/tasks.o
                                                  build/tsb0//home/karl/node-apps/zoo/thinnect.cmsis-freertos/CMSIS-FreeRTOS/CMSIS/RTOS2/FreeRTOS/Source/cmsis_os2.o
vTaskSuspend                                      build/tsb0//home/karl/node-apps/zoo/FreeRTOS-Kernel/tasks.o
                                                  build/tsb0//home/karl/node-apps/zoo/thinnect.cmsis-freertos/CMSIS-FreeRTOS/CMSIS/RTOS2/FreeRTOS/Source/cmsis_os2.o
vTaskSuspendAll                                   build/tsb0//home/karl/node-apps/zoo/FreeRTOS-Kernel/tasks.o
                                                  build/tsb0//home/karl/node-apps/zoo/thinnect.cmsis-freertos/CMSIS-FreeRTOS/CMSIS/RTOS2/FreeRTOS/Source/cmsis_os2.o
                                                  build/tsb0//home/karl/node-apps/zoo/FreeRTOS-Kernel/timers.o
                                                  build/tsb0//home/karl/node-apps/zoo/FreeRTOS-Kernel/event_groups.o
                                                  build/tsb0//home/karl/node-apps/zoo/FreeRTOS-Kernel/stream_buffer.o
                                                  build/tsb0//home/karl/node-apps/zoo/FreeRTOS-Kernel/queue.o
                                                  build/tsb0//home/karl/node-apps/zoo/FreeRTOS-Kernel/portable/MemMang/heap_5.o
vTaskSwitchContext                                build/tsb0//home/karl/node-apps/zoo/FreeRTOS-Kernel/tasks.o
                                                  build/tsb0//home/karl/node-apps/zoo/FreeRTOS-Kernel/portable/GCC/ARM_CM4F/port.o
vTimerSetReloadMode                               build/tsb0//home/karl/node-apps/zoo/FreeRTOS-Kernel/timers.o
vTimerSetTimerID                                  build/tsb0//home/karl/node-apps/zoo/FreeRTOS-Kernel/timers.o
vTimerSetTimerNumber                              build/tsb0//home/karl/node-apps/zoo/FreeRTOS-Kernel/timers.o
vfiprintf                                         /usr/lib/gcc/arm-none-eabi/9.2.1/../../../arm-none-eabi/lib/thumb/v7e-m+fp/softfp/libg.a(lib_a-vfiprintf.o)
vsnprintf                                         /usr/lib/gcc/arm-none-eabi/9.2.1/../../../arm-none-eabi/lib/thumb/v7e-m+fp/softfp/libg.a(lib_a-vsnprintf.o)
                                                  build/tsb0//home/karl/node-apps/zoo/thinnect.lll/logging/loggers_ext.o
wcrtomb                                           /usr/lib/gcc/arm-none-eabi/9.2.1/../../../arm-none-eabi/lib/thumb/v7e-m+fp/softfp/libg.a(lib_a-wcrtomb.o)
xEventGroupClearBits                              build/tsb0//home/karl/node-apps/zoo/FreeRTOS-Kernel/event_groups.o
                                                  build/tsb0//home/karl/node-apps/zoo/thinnect.cmsis-freertos/CMSIS-FreeRTOS/CMSIS/RTOS2/FreeRTOS/Source/cmsis_os2.o
xEventGroupClearBitsFromISR                       build/tsb0//home/karl/node-apps/zoo/FreeRTOS-Kernel/event_groups.o
                                                  build/tsb0//home/karl/node-apps/zoo/thinnect.cmsis-freertos/CMSIS-FreeRTOS/CMSIS/RTOS2/FreeRTOS/Source/cmsis_os2.o
xEventGroupCreate                                 build/tsb0//home/karl/node-apps/zoo/FreeRTOS-Kernel/event_groups.o
                                                  build/tsb0//home/karl/node-apps/zoo/thinnect.cmsis-freertos/CMSIS-FreeRTOS/CMSIS/RTOS2/FreeRTOS/Source/cmsis_os2.o
xEventGroupCreateStatic                           build/tsb0//home/karl/node-apps/zoo/FreeRTOS-Kernel/event_groups.o
                                                  build/tsb0//home/karl/node-apps/zoo/thinnect.cmsis-freertos/CMSIS-FreeRTOS/CMSIS/RTOS2/FreeRTOS/Source/cmsis_os2.o
xEventGroupGetBitsFromISR                         build/tsb0//home/karl/node-apps/zoo/FreeRTOS-Kernel/event_groups.o
                                                  build/tsb0//home/karl/node-apps/zoo/thinnect.cmsis-freertos/CMSIS-FreeRTOS/CMSIS/RTOS2/FreeRTOS/Source/cmsis_os2.o
xEventGroupSetBits                                build/tsb0//home/karl/node-apps/zoo/FreeRTOS-Kernel/event_groups.o
                                                  build/tsb0//home/karl/node-apps/zoo/thinnect.cmsis-freertos/CMSIS-FreeRTOS/CMSIS/RTOS2/FreeRTOS/Source/cmsis_os2.o
xEventGroupSetBitsFromISR                         build/tsb0//home/karl/node-apps/zoo/FreeRTOS-Kernel/event_groups.o
                                                  build/tsb0//home/karl/node-apps/zoo/thinnect.cmsis-freertos/CMSIS-FreeRTOS/CMSIS/RTOS2/FreeRTOS/Source/cmsis_os2.o
xEventGroupSync                                   build/tsb0//home/karl/node-apps/zoo/FreeRTOS-Kernel/event_groups.o
xEventGroupWaitBits                               build/tsb0//home/karl/node-apps/zoo/FreeRTOS-Kernel/event_groups.o
                                                  build/tsb0//home/karl/node-apps/zoo/thinnect.cmsis-freertos/CMSIS-FreeRTOS/CMSIS/RTOS2/FreeRTOS/Source/cmsis_os2.o
xPortGetFreeHeapSize                              build/tsb0//home/karl/node-apps/zoo/FreeRTOS-Kernel/portable/MemMang/heap_5.o
xPortGetMinimumEverFreeHeapSize                   build/tsb0//home/karl/node-apps/zoo/FreeRTOS-Kernel/portable/MemMang/heap_5.o
xPortStartScheduler                               build/tsb0//home/karl/node-apps/zoo/FreeRTOS-Kernel/portable/GCC/ARM_CM4F/port.o
                                                  build/tsb0//home/karl/node-apps/zoo/FreeRTOS-Kernel/tasks.o
xPortSysTickHandler                               build/tsb0//home/karl/node-apps/zoo/FreeRTOS-Kernel/portable/GCC/ARM_CM4F/port.o
                                                  build/tsb0//home/karl/node-apps/zoo/thinnect.cmsis-freertos/CMSIS-FreeRTOS/CMSIS/RTOS2/FreeRTOS/Source/cmsis_os2.o
xQueueCreateCountingSemaphore                     build/tsb0//home/karl/node-apps/zoo/FreeRTOS-Kernel/queue.o
                                                  build/tsb0//home/karl/node-apps/zoo/thinnect.cmsis-freertos/CMSIS-FreeRTOS/CMSIS/RTOS2/FreeRTOS/Source/cmsis_os2.o
xQueueCreateCountingSemaphoreStatic               build/tsb0//home/karl/node-apps/zoo/FreeRTOS-Kernel/queue.o
                                                  build/tsb0//home/karl/node-apps/zoo/thinnect.cmsis-freertos/CMSIS-FreeRTOS/CMSIS/RTOS2/FreeRTOS/Source/cmsis_os2.o
xQueueCreateMutex                                 build/tsb0//home/karl/node-apps/zoo/FreeRTOS-Kernel/queue.o
                                                  build/tsb0//home/karl/node-apps/zoo/thinnect.cmsis-freertos/CMSIS-FreeRTOS/CMSIS/RTOS2/FreeRTOS/Source/cmsis_os2.o
xQueueCreateMutexStatic                           build/tsb0//home/karl/node-apps/zoo/FreeRTOS-Kernel/queue.o
                                                  build/tsb0//home/karl/node-apps/zoo/thinnect.cmsis-freertos/CMSIS-FreeRTOS/CMSIS/RTOS2/FreeRTOS/Source/cmsis_os2.o
xQueueGenericCreate                               build/tsb0//home/karl/node-apps/zoo/FreeRTOS-Kernel/queue.o
                                                  build/tsb0//home/karl/node-apps/zoo/thinnect.cmsis-freertos/CMSIS-FreeRTOS/CMSIS/RTOS2/FreeRTOS/Source/cmsis_os2.o
xQueueGenericCreateStatic                         build/tsb0//home/karl/node-apps/zoo/FreeRTOS-Kernel/queue.o
                                                  build/tsb0//home/karl/node-apps/zoo/thinnect.cmsis-freertos/CMSIS-FreeRTOS/CMSIS/RTOS2/FreeRTOS/Source/cmsis_os2.o
                                                  build/tsb0//home/karl/node-apps/zoo/FreeRTOS-Kernel/timers.o
xQueueGenericReset                                build/tsb0//home/karl/node-apps/zoo/FreeRTOS-Kernel/queue.o
                                                  build/tsb0//home/karl/node-apps/zoo/thinnect.cmsis-freertos/CMSIS-FreeRTOS/CMSIS/RTOS2/FreeRTOS/Source/cmsis_os2.o
xQueueGenericSend                                 build/tsb0//home/karl/node-apps/zoo/FreeRTOS-Kernel/queue.o
                                                  build/tsb0//home/karl/node-apps/zoo/thinnect.cmsis-freertos/CMSIS-FreeRTOS/CMSIS/RTOS2/FreeRTOS/Source/cmsis_os2.o
                                                  build/tsb0//home/karl/node-apps/zoo/FreeRTOS-Kernel/timers.o
xQueueGenericSendFromISR                          build/tsb0//home/karl/node-apps/zoo/FreeRTOS-Kernel/queue.o
                                                  build/tsb0//home/karl/node-apps/zoo/thinnect.cmsis-freertos/CMSIS-FreeRTOS/CMSIS/RTOS2/FreeRTOS/Source/cmsis_os2.o
                                                  build/tsb0//home/karl/node-apps/zoo/FreeRTOS-Kernel/timers.o
xQueueGetMutexHolder                              build/tsb0//home/karl/node-apps/zoo/FreeRTOS-Kernel/queue.o
                                                  build/tsb0//home/karl/node-apps/zoo/thinnect.cmsis-freertos/CMSIS-FreeRTOS/CMSIS/RTOS2/FreeRTOS/Source/cmsis_os2.o
xQueueGetMutexHolderFromISR                       build/tsb0//home/karl/node-apps/zoo/FreeRTOS-Kernel/queue.o
xQueueGiveFromISR                                 build/tsb0//home/karl/node-apps/zoo/FreeRTOS-Kernel/queue.o
                                                  build/tsb0//home/karl/node-apps/zoo/thinnect.cmsis-freertos/CMSIS-FreeRTOS/CMSIS/RTOS2/FreeRTOS/Source/cmsis_os2.o
xQueueGiveMutexRecursive                          build/tsb0//home/karl/node-apps/zoo/FreeRTOS-Kernel/queue.o
                                                  build/tsb0//home/karl/node-apps/zoo/thinnect.cmsis-freertos/CMSIS-FreeRTOS/CMSIS/RTOS2/FreeRTOS/Source/cmsis_os2.o
xQueueIsQueueEmptyFromISR                         build/tsb0//home/karl/node-apps/zoo/FreeRTOS-Kernel/queue.o
xQueueIsQueueFullFromISR                          build/tsb0//home/karl/node-apps/zoo/FreeRTOS-Kernel/queue.o
xQueuePeek                                        build/tsb0//home/karl/node-apps/zoo/FreeRTOS-Kernel/queue.o
xQueuePeekFromISR                                 build/tsb0//home/karl/node-apps/zoo/FreeRTOS-Kernel/queue.o
xQueueReceive                                     build/tsb0//home/karl/node-apps/zoo/FreeRTOS-Kernel/queue.o
                                                  build/tsb0//home/karl/node-apps/zoo/thinnect.cmsis-freertos/CMSIS-FreeRTOS/CMSIS/RTOS2/FreeRTOS/Source/cmsis_os2.o
                                                  build/tsb0//home/karl/node-apps/zoo/FreeRTOS-Kernel/timers.o
xQueueReceiveFromISR                              build/tsb0//home/karl/node-apps/zoo/FreeRTOS-Kernel/queue.o
                                                  build/tsb0//home/karl/node-apps/zoo/thinnect.cmsis-freertos/CMSIS-FreeRTOS/CMSIS/RTOS2/FreeRTOS/Source/cmsis_os2.o
xQueueSemaphoreTake                               build/tsb0//home/karl/node-apps/zoo/FreeRTOS-Kernel/queue.o
                                                  build/tsb0//home/karl/node-apps/zoo/thinnect.cmsis-freertos/CMSIS-FreeRTOS/CMSIS/RTOS2/FreeRTOS/Source/cmsis_os2.o
xQueueTakeMutexRecursive                          build/tsb0//home/karl/node-apps/zoo/FreeRTOS-Kernel/queue.o
                                                  build/tsb0//home/karl/node-apps/zoo/thinnect.cmsis-freertos/CMSIS-FreeRTOS/CMSIS/RTOS2/FreeRTOS/Source/cmsis_os2.o
xStreamBufferBytesAvailable                       build/tsb0//home/karl/node-apps/zoo/FreeRTOS-Kernel/stream_buffer.o
xStreamBufferGenericCreate                        build/tsb0//home/karl/node-apps/zoo/FreeRTOS-Kernel/stream_buffer.o
xStreamBufferGenericCreateStatic                  build/tsb0//home/karl/node-apps/zoo/FreeRTOS-Kernel/stream_buffer.o
xStreamBufferIsEmpty                              build/tsb0//home/karl/node-apps/zoo/FreeRTOS-Kernel/stream_buffer.o
xStreamBufferIsFull                               build/tsb0//home/karl/node-apps/zoo/FreeRTOS-Kernel/stream_buffer.o
xStreamBufferNextMessageLengthBytes               build/tsb0//home/karl/node-apps/zoo/FreeRTOS-Kernel/stream_buffer.o
xStreamBufferReceive                              build/tsb0//home/karl/node-apps/zoo/FreeRTOS-Kernel/stream_buffer.o
xStreamBufferReceiveCompletedFromISR              build/tsb0//home/karl/node-apps/zoo/FreeRTOS-Kernel/stream_buffer.o
xStreamBufferReceiveFromISR                       build/tsb0//home/karl/node-apps/zoo/FreeRTOS-Kernel/stream_buffer.o
xStreamBufferReset                                build/tsb0//home/karl/node-apps/zoo/FreeRTOS-Kernel/stream_buffer.o
xStreamBufferSend                                 build/tsb0//home/karl/node-apps/zoo/FreeRTOS-Kernel/stream_buffer.o
xStreamBufferSendCompletedFromISR                 build/tsb0//home/karl/node-apps/zoo/FreeRTOS-Kernel/stream_buffer.o
xStreamBufferSendFromISR                          build/tsb0//home/karl/node-apps/zoo/FreeRTOS-Kernel/stream_buffer.o
xStreamBufferSetTriggerLevel                      build/tsb0//home/karl/node-apps/zoo/FreeRTOS-Kernel/stream_buffer.o
xStreamBufferSpacesAvailable                      build/tsb0//home/karl/node-apps/zoo/FreeRTOS-Kernel/stream_buffer.o
xTaskCatchUpTicks                                 build/tsb0//home/karl/node-apps/zoo/FreeRTOS-Kernel/tasks.o
xTaskCheckForTimeOut                              build/tsb0//home/karl/node-apps/zoo/FreeRTOS-Kernel/tasks.o
                                                  build/tsb0//home/karl/node-apps/zoo/FreeRTOS-Kernel/stream_buffer.o
                                                  build/tsb0//home/karl/node-apps/zoo/FreeRTOS-Kernel/queue.o
xTaskCreate                                       build/tsb0//home/karl/node-apps/zoo/FreeRTOS-Kernel/tasks.o
                                                  build/tsb0//home/karl/node-apps/zoo/thinnect.cmsis-freertos/CMSIS-FreeRTOS/CMSIS/RTOS2/FreeRTOS/Source/cmsis_os2.o
xTaskCreateStatic                                 build/tsb0//home/karl/node-apps/zoo/FreeRTOS-Kernel/tasks.o
                                                  build/tsb0//home/karl/node-apps/zoo/thinnect.cmsis-freertos/CMSIS-FreeRTOS/CMSIS/RTOS2/FreeRTOS/Source/cmsis_os2.o
                                                  build/tsb0//home/karl/node-apps/zoo/FreeRTOS-Kernel/timers.o
xTaskGenericNotify                                build/tsb0//home/karl/node-apps/zoo/FreeRTOS-Kernel/tasks.o
                                                  build/tsb0//home/karl/node-apps/zoo/thinnect.cmsis-freertos/CMSIS-FreeRTOS/CMSIS/RTOS2/FreeRTOS/Source/cmsis_os2.o
                                                  build/tsb0//home/karl/node-apps/zoo/FreeRTOS-Kernel/stream_buffer.o
xTaskGenericNotifyFromISR                         build/tsb0//home/karl/node-apps/zoo/FreeRTOS-Kernel/tasks.o
                                                  build/tsb0//home/karl/node-apps/zoo/thinnect.cmsis-freertos/CMSIS-FreeRTOS/CMSIS/RTOS2/FreeRTOS/Source/cmsis_os2.o
                                                  build/tsb0//home/karl/node-apps/zoo/FreeRTOS-Kernel/stream_buffer.o
xTaskGetCurrentTaskHandle                         build/tsb0//home/karl/node-apps/zoo/FreeRTOS-Kernel/tasks.o
                                                  build/tsb0//home/karl/node-apps/zoo/thinnect.cmsis-freertos/CMSIS-FreeRTOS/CMSIS/RTOS2/FreeRTOS/Source/cmsis_os2.o
                                                  build/tsb0//home/karl/node-apps/zoo/FreeRTOS-Kernel/stream_buffer.o
                                                  build/tsb0//home/karl/node-apps/zoo/FreeRTOS-Kernel/queue.o
xTaskGetSchedulerState                            build/tsb0//home/karl/node-apps/zoo/FreeRTOS-Kernel/tasks.o
                                                  build/tsb0//home/karl/node-apps/zoo/thinnect.cmsis-freertos/CMSIS-FreeRTOS/CMSIS/RTOS2/FreeRTOS/Source/cmsis_os2.o
                                                  build/tsb0//home/karl/node-apps/zoo/FreeRTOS-Kernel/timers.o
                                                  build/tsb0//home/karl/node-apps/zoo/FreeRTOS-Kernel/event_groups.o
                                                  build/tsb0//home/karl/node-apps/zoo/FreeRTOS-Kernel/queue.o
xTaskGetTickCount                                 build/tsb0//home/karl/node-apps/zoo/FreeRTOS-Kernel/tasks.o
                                                  build/tsb0//home/karl/node-apps/zoo/thinnect.cmsis-freertos/CMSIS-FreeRTOS/CMSIS/RTOS2/FreeRTOS/Source/cmsis_os2.o
                                                  build/tsb0//home/karl/node-apps/zoo/FreeRTOS-Kernel/timers.o
xTaskGetTickCountFromISR                          build/tsb0//home/karl/node-apps/zoo/FreeRTOS-Kernel/tasks.o
                                                  build/tsb0//home/karl/node-apps/zoo/thinnect.cmsis-freertos/CMSIS-FreeRTOS/CMSIS/RTOS2/FreeRTOS/Source/cmsis_os2.o
xTaskIncrementTick                                build/tsb0//home/karl/node-apps/zoo/FreeRTOS-Kernel/tasks.o
                                                  build/tsb0//home/karl/node-apps/zoo/FreeRTOS-Kernel/portable/GCC/ARM_CM4F/port.o
xTaskNotifyStateClear                             build/tsb0//home/karl/node-apps/zoo/FreeRTOS-Kernel/tasks.o
                                                  build/tsb0//home/karl/node-apps/zoo/FreeRTOS-Kernel/stream_buffer.o
xTaskNotifyWait                                   build/tsb0//home/karl/node-apps/zoo/FreeRTOS-Kernel/tasks.o
                                                  build/tsb0//home/karl/node-apps/zoo/thinnect.cmsis-freertos/CMSIS-FreeRTOS/CMSIS/RTOS2/FreeRTOS/Source/cmsis_os2.o
                                                  build/tsb0//home/karl/node-apps/zoo/FreeRTOS-Kernel/stream_buffer.o
xTaskPriorityDisinherit                           build/tsb0//home/karl/node-apps/zoo/FreeRTOS-Kernel/tasks.o
                                                  build/tsb0//home/karl/node-apps/zoo/FreeRTOS-Kernel/queue.o
xTaskPriorityInherit                              build/tsb0//home/karl/node-apps/zoo/FreeRTOS-Kernel/tasks.o
                                                  build/tsb0//home/karl/node-apps/zoo/FreeRTOS-Kernel/queue.o
xTaskRemoveFromEventList                          build/tsb0//home/karl/node-apps/zoo/FreeRTOS-Kernel/tasks.o
                                                  build/tsb0//home/karl/node-apps/zoo/FreeRTOS-Kernel/queue.o
xTaskResumeAll                                    build/tsb0//home/karl/node-apps/zoo/FreeRTOS-Kernel/tasks.o
                                                  build/tsb0//home/karl/node-apps/zoo/thinnect.cmsis-freertos/CMSIS-FreeRTOS/CMSIS/RTOS2/FreeRTOS/Source/cmsis_os2.o
                                                  build/tsb0//home/karl/node-apps/zoo/FreeRTOS-Kernel/timers.o
                                                  build/tsb0//home/karl/node-apps/zoo/FreeRTOS-Kernel/event_groups.o
                                                  build/tsb0//home/karl/node-apps/zoo/FreeRTOS-Kernel/stream_buffer.o
                                                  build/tsb0//home/karl/node-apps/zoo/FreeRTOS-Kernel/queue.o
                                                  build/tsb0//home/karl/node-apps/zoo/FreeRTOS-Kernel/portable/MemMang/heap_5.o
xTaskResumeFromISR                                build/tsb0//home/karl/node-apps/zoo/FreeRTOS-Kernel/tasks.o
xTimerCreate                                      build/tsb0//home/karl/node-apps/zoo/FreeRTOS-Kernel/timers.o
                                                  build/tsb0//home/karl/node-apps/zoo/thinnect.cmsis-freertos/CMSIS-FreeRTOS/CMSIS/RTOS2/FreeRTOS/Source/cmsis_os2.o
xTimerCreateStatic                                build/tsb0//home/karl/node-apps/zoo/FreeRTOS-Kernel/timers.o
                                                  build/tsb0//home/karl/node-apps/zoo/thinnect.cmsis-freertos/CMSIS-FreeRTOS/CMSIS/RTOS2/FreeRTOS/Source/cmsis_os2.o
xTimerCreateTimerTask                             build/tsb0//home/karl/node-apps/zoo/FreeRTOS-Kernel/timers.o
                                                  build/tsb0//home/karl/node-apps/zoo/FreeRTOS-Kernel/tasks.o
xTimerGenericCommand                              build/tsb0//home/karl/node-apps/zoo/FreeRTOS-Kernel/timers.o
                                                  build/tsb0//home/karl/node-apps/zoo/thinnect.cmsis-freertos/CMSIS-FreeRTOS/CMSIS/RTOS2/FreeRTOS/Source/cmsis_os2.o
xTimerGetExpiryTime                               build/tsb0//home/karl/node-apps/zoo/FreeRTOS-Kernel/timers.o
xTimerGetPeriod                                   build/tsb0//home/karl/node-apps/zoo/FreeRTOS-Kernel/timers.o
xTimerGetTimerDaemonTaskHandle                    build/tsb0//home/karl/node-apps/zoo/FreeRTOS-Kernel/timers.o
xTimerIsTimerActive                               build/tsb0//home/karl/node-apps/zoo/FreeRTOS-Kernel/timers.o
                                                  build/tsb0//home/karl/node-apps/zoo/thinnect.cmsis-freertos/CMSIS-FreeRTOS/CMSIS/RTOS2/FreeRTOS/Source/cmsis_os2.o
xTimerPendFunctionCall                            build/tsb0//home/karl/node-apps/zoo/FreeRTOS-Kernel/timers.o
xTimerPendFunctionCallFromISR                     build/tsb0//home/karl/node-apps/zoo/FreeRTOS-Kernel/timers.o
                                                  build/tsb0//home/karl/node-apps/zoo/FreeRTOS-Kernel/event_groups.o
